; generated by Component: ARM Compiler 5.06 update 1 (build 61) Tool: ArmCC [4d35ad]
; commandline ArmCC [--c99 --list --debug -c --asm --interleave -o.\obj\lcd0.o --asm_dir=.\lst\ --list_dir=.\lst\ --depend=.\obj\lcd0.d --cpu=Cortex-M4.fp --apcs=interwork -O1 --diag_suppress=9931 -I..\M463_Library\CMSIS\Include -I..\M463_Library\Device\Nuvoton\m460\Include -I..\M463_Library\StdDriver\inc -I..\..\M463a -IC:\Users\15pro\Desktop\şôÎü»úżŘÖĆ\ÔöÁżĘ˝5-11\Keil\RTE -ID:\MDK518\keil_v5\ARM\PACK\Nuvoton\NuMicroM4_DFP\1.0.2\Device\M460\Include -ID:\MDK518\keil_v5\ARM\CMSIS\Include -D__MICROLIB -D__UVISION_VERSION=516 --omf_browse=.\obj\lcd0.crf ..\LCD0.c]
                          THUMB

                          AREA ||.text||, CODE, READONLY, ALIGN=2

                  LCD_CmdWrite PROC
;;;17     
;;;18     void LCD_CmdWrite(uint8_t cmd)
000000  f04f41c0          MOV      r1,#0x60000000
;;;19     {	
;;;20     	*(volatile uint16_t*) (LCD_BASE0)= (cmd);
000004  8008              STRH     r0,[r1,#0]
;;;21     }
000006  4770              BX       lr
;;;22     
                          ENDP

                  LCD_DataWrite PROC
;;;23     void LCD_DataWrite(uint8_t data)
000008  49fa              LDR      r1,|L1.1012|
;;;24     {
;;;25     	*(volatile uint16_t*) (LCD_BASE1)= (data);
00000a  8088              STRH     r0,[r1,#4]
;;;26     }
00000c  4770              BX       lr
;;;27     
                          ENDP

                  LCD_DataWrite_Pixel PROC
;;;28     void LCD_DataWrite_Pixel(uint16_t data)
00000e  49f9              LDR      r1,|L1.1012|
;;;29     {
;;;30     	*(volatile uint16_t*) (LCD_BASE1)= (data);
000010  8088              STRH     r0,[r1,#4]
;;;31     }
000012  4770              BX       lr
;;;32     
                          ENDP

                  LCD_StatusRead PROC
;;;33     
;;;34     uint8_t LCD_StatusRead(void)
000014  f04f40c0          MOV      r0,#0x60000000
;;;35     {
;;;36     	uint8_t temp = 0;
;;;37     	temp = *(volatile uint16_t*)(LCD_BASE0);
000018  8800              LDRH     r0,[r0,#0]
00001a  b2c0              UXTB     r0,r0
;;;38     	return temp;
;;;39     }
00001c  4770              BX       lr
;;;40     
                          ENDP

                  LCD_DataRead PROC
;;;41     uint16_t LCD_DataRead(void)
00001e  48f5              LDR      r0,|L1.1012|
;;;42     {
;;;43     	uint16_t temp = 0;	
;;;44     	temp =  *(volatile uint16_t*)(LCD_BASE1);
000020  8880              LDRH     r0,[r0,#4]
;;;45     	return temp;
;;;46     }
000022  4770              BX       lr
;;;47     void Delay_us(uint16_t time)
                          ENDP

                  Delay_us PROC
000024  e003              B        |L1.46|
                  |L1.38|
;;;48     {    
;;;49        uint16_t i=0;  
;;;50        while(time--)
;;;51        {
;;;52           i=12;        //×ÔĽş¶¨Ňĺ
000026  210c              MOVS     r1,#0xc
                  |L1.40|
;;;53           while(i--) ;    
000028  1e49              SUBS     r1,r1,#1
00002a  b289              UXTH     r1,r1
00002c  d2fc              BCS      |L1.40|
                  |L1.46|
00002e  1e40              SUBS     r0,r0,#1              ;50
000030  b280              UXTH     r0,r0                 ;50
000032  d2f8              BCS      |L1.38|
;;;54        }
;;;55     }
000034  4770              BX       lr
;;;56     
                          ENDP

                  Delay_ms PROC
;;;57     void Delay_ms(uint16_t time)
000036  f64263e0          MOV      r3,#0x2ee0
;;;58     {    
00003a  e003              B        |L1.68|
                  |L1.60|
;;;59        uint16_t i=0;  
;;;60        while(time--)
;;;61        {
;;;62           i=12000;    //×ÔĽş¶¨Ňĺ
00003c  4619              MOV      r1,r3
                  |L1.62|
;;;63           while(i--) ;    
00003e  1e49              SUBS     r1,r1,#1
000040  b289              UXTH     r1,r1
000042  d2fc              BCS      |L1.62|
                  |L1.68|
000044  1e40              SUBS     r0,r0,#1              ;60
000046  b280              UXTH     r0,r0                 ;60
000048  d2f8              BCS      |L1.60|
;;;64        }
;;;65     }
00004a  4770              BX       lr
;;;66     
                          ENDP

                  LT768_HW_Reset PROC
;;;70     //¸´Î»LT768
;;;71     void LT768_HW_Reset(void)
00004c  b510              PUSH     {r4,lr}
;;;72     {	
;;;73     	
;;;74     	PD14=0;
00004e  4cea              LDR      r4,|L1.1016|
000050  2000              MOVS     r0,#0
000052  6020              STR      r0,[r4,#0]
;;;75     	Delay_ms(100);				   
000054  2064              MOVS     r0,#0x64
000056  f7fffffe          BL       Delay_ms
;;;76       PD14=1;		 	 
00005a  2001              MOVS     r0,#1
00005c  6020              STR      r0,[r4,#0]
;;;77       Delay_ms(100);	
00005e  e8bd4010          POP      {r4,lr}
000062  2064              MOVS     r0,#0x64
000064  e7fe              B        Delay_ms
;;;78     }
;;;79     
                          ENDP

                  System_Check_Temp PROC
;;;80     //Ľě˛éLT768ĎµÍł
;;;81     void System_Check_Temp(void)
000066  b530              PUSH     {r4,r5,lr}
;;;82     {
;;;83     	uint8_t i=0;
000068  2400              MOVS     r4,#0
;;;84     	uint8_t temp=0;
;;;85     	uint8_t system_ok=0;
00006a  2500              MOVS     r5,#0
                  |L1.108|
;;;86     	do
;;;87     	{
;;;88     		if((LCD_StatusRead()&0x02)==0x00)    
00006c  f7fffffe          BL       LCD_StatusRead
000070  0780              LSLS     r0,r0,#30
000072  d41c              BMI      |L1.174|
;;;89     		{
;;;90     			Delay_ms(1);                  //ČôMCU ËŮ¶ČĚ«żěŁ¬±ŘŇŞ•rĘąÓĂ
000074  2001              MOVS     r0,#1
000076  f7fffffe          BL       Delay_ms
;;;91     			LCD_CmdWrite(0x01);
00007a  2001              MOVS     r0,#1
00007c  f7fffffe          BL       LCD_CmdWrite
;;;92     			Delay_ms(1);                  //ČôMCU ËŮ¶ČĚ«żěŁ¬±ŘŇŞ•rĘąÓĂ
000080  2001              MOVS     r0,#1
000082  f7fffffe          BL       Delay_ms
;;;93     			temp =LCD_DataRead();
000086  f7fffffe          BL       LCD_DataRead
;;;94     			if((temp & 0x80)==0x80)       //Ľě˛âCCRĽÄ´ćĆ÷PLLĘÇ·ń×Ľ±¸şĂ
00008a  0600              LSLS     r0,r0,#24
00008c  d502              BPL      |L1.148|
;;;95     			{
;;;96     				system_ok=1;
00008e  2501              MOVS     r5,#1
;;;97     				i=0;
000090  2400              MOVS     r4,#0
000092  e00f              B        |L1.180|
                  |L1.148|
;;;98     			}
;;;99     			else
;;;100    			{
;;;101    				Delay_ms(1); //ČôMCU ËŮ¶ČĚ«żěŁ¬±ŘŇŞ•rĘąÓĂ
000094  2001              MOVS     r0,#1
000096  f7fffffe          BL       Delay_ms
;;;102    				LCD_CmdWrite(0x01);
00009a  2001              MOVS     r0,#1
00009c  f7fffffe          BL       LCD_CmdWrite
;;;103    				Delay_ms(1); //ČôMCU ËŮ¶ČĚ«żěŁ¬±ŘŇŞ•rĘąÓĂ
0000a0  2001              MOVS     r0,#1
0000a2  f7fffffe          BL       Delay_ms
;;;104    				LCD_DataWrite(0x80);
0000a6  2080              MOVS     r0,#0x80
0000a8  f7fffffe          BL       LCD_DataWrite
0000ac  e002              B        |L1.180|
                  |L1.174|
;;;105    			}
;;;106    		}
;;;107    		else
;;;108    		{
;;;109    			system_ok=0;
0000ae  2500              MOVS     r5,#0
;;;110    			i++;
0000b0  1c64              ADDS     r4,r4,#1
0000b2  b2e4              UXTB     r4,r4
                  |L1.180|
;;;111    		}
;;;112    		if(system_ok==0 && i==5)
0000b4  b925              CBNZ     r5,|L1.192|
0000b6  2c05              CMP      r4,#5
0000b8  d102              BNE      |L1.192|
;;;113    		{
;;;114    			LT768_HW_Reset(); //note1
0000ba  f7fffffe          BL       LT768_HW_Reset
;;;115    			i=0;
0000be  2400              MOVS     r4,#0
                  |L1.192|
;;;116    		}
;;;117    	}while(system_ok==0);
0000c0  2d00              CMP      r5,#0
0000c2  d0d3              BEQ      |L1.108|
;;;118    }
0000c4  bd30              POP      {r4,r5,pc}
;;;119    
                          ENDP

                  LT768_PLL_Initial PROC
;;;120    void LT768_PLL_Initial(void) 
0000c6  b510              PUSH     {r4,lr}
;;;121    {    
;;;122    	uint32_t  temp = 0,temp1 =0 ;
;;;123    	
;;;124    	uint16_t lpllOD_sclk, lpllOD_cclk, lpllOD_mclk;
;;;125    	uint16_t lpllR_sclk, lpllR_cclk, lpllR_mclk;
;;;126    	uint16_t lpllN_sclk, lpllN_cclk, lpllN_mclk;
;;;127    	
;;;128    	temp = (LCD_HBPD + LCD_HFPD + LCD_HSPW + LCD_XSIZE_TFT) * (LCD_VBPD + LCD_VFPD + LCD_VSPW+LCD_YSIZE_TFT) * 60;   
0000c8  48cc              LDR      r0,|L1.1020|
;;;129    	
;;;130    	temp1=(temp%1000000)/100000;
0000ca  49cd              LDR      r1,|L1.1024|
0000cc  fbb0f2f1          UDIV     r2,r0,r1
0000d0  fb010312          MLS      r3,r1,r2,r0
0000d4  4acb              LDR      r2,|L1.1028|
0000d6  fbb3f2f2          UDIV     r2,r3,r2
;;;131    	if(temp1>=5) 
0000da  2a05              CMP      r2,#5
0000dc  d303              BCC      |L1.230|
;;;132    		 temp = temp / 1000000 + 1;
0000de  fbb0f0f1          UDIV     r0,r0,r1
0000e2  1c40              ADDS     r0,r0,#1
0000e4  e001              B        |L1.234|
                  |L1.230|
;;;133    	else temp = temp / 1000000;
0000e6  fbb0f0f1          UDIV     r0,r0,r1
                  |L1.234|
;;;134    	SCLK = temp;
0000ea  4cc7              LDR      r4,|L1.1032|
0000ec  b2c1              UXTB     r1,r0
0000ee  70a1              STRB     r1,[r4,#2]
;;;135    	temp = temp * 3;
0000f0  eb000040          ADD      r0,r0,r0,LSL #1
;;;136    	MCLK = temp;
0000f4  b2c0              UXTB     r0,r0
0000f6  7060              STRB     r0,[r4,#1]
;;;137    	CCLK = temp;
0000f8  7020              STRB     r0,[r4,#0]
;;;138    	
;;;139    	if(CCLK > 100)	CCLK = 100;
0000fa  2264              MOVS     r2,#0x64
0000fc  2864              CMP      r0,#0x64
0000fe  d900              BLS      |L1.258|
000100  7022              STRB     r2,[r4,#0]
                  |L1.258|
;;;140    	if(MCLK > 100)	MCLK = 100;
000102  d900              BLS      |L1.262|
000104  7062              STRB     r2,[r4,#1]
                  |L1.262|
;;;141    	if(SCLK > 65)		SCLK = 65;
000106  2941              CMP      r1,#0x41
000108  d901              BLS      |L1.270|
00010a  2041              MOVS     r0,#0x41
00010c  70a0              STRB     r0,[r4,#2]
                  |L1.270|
;;;142    
;;;143    	lpllOD_sclk = 3;
;;;144    	lpllOD_cclk = 2;
;;;145    	lpllOD_mclk = 2;
;;;146    	lpllR_sclk  = 5;
;;;147    	lpllR_cclk  = 5;
;;;148    	lpllR_mclk  = 5;
;;;149    	lpllN_mclk  = MCLK;      
00010e  7863              LDRB     r3,[r4,#1]  ; MCLK
;;;150    	lpllN_cclk  = CCLK;    
000110  7822              LDRB     r2,[r4,#0]  ; CCLK
;;;151    	lpllN_sclk  = 2*SCLK;    
000112  78a0              LDRB     r0,[r4,#2]  ; SCLK
000114  0044              LSLS     r4,r0,#1
;;;152          
;;;153    	LCD_CmdWrite(0x05);
000116  2005              MOVS     r0,#5
000118  f7fffffe          BL       LCD_CmdWrite
;;;154    	LCD_DataWrite((lpllOD_sclk<<6) | (lpllR_sclk<<1) | ((lpllN_sclk>>8)&0x1));
00011c  0a20              LSRS     r0,r4,#8
00011e  f04000ca          ORR      r0,r0,#0xca
000122  f7fffffe          BL       LCD_DataWrite
;;;155    	LCD_CmdWrite(0x07);
000126  2007              MOVS     r0,#7
000128  f7fffffe          BL       LCD_CmdWrite
;;;156    	LCD_DataWrite((lpllOD_mclk<<6) | (lpllR_mclk<<1) | ((lpllN_mclk>>8)&0x1));
00012c  0a18              LSRS     r0,r3,#8
00012e  f040008a          ORR      r0,r0,#0x8a
000132  f7fffffe          BL       LCD_DataWrite
;;;157    	LCD_CmdWrite(0x09);
000136  2009              MOVS     r0,#9
000138  f7fffffe          BL       LCD_CmdWrite
;;;158    	LCD_DataWrite((lpllOD_cclk<<6) | (lpllR_cclk<<1) | ((lpllN_cclk>>8)&0x1));
00013c  0a10              LSRS     r0,r2,#8
00013e  f040008a          ORR      r0,r0,#0x8a
000142  f7fffffe          BL       LCD_DataWrite
;;;159    
;;;160    	LCD_CmdWrite(0x06);
000146  2006              MOVS     r0,#6
000148  f7fffffe          BL       LCD_CmdWrite
;;;161    	LCD_DataWrite(lpllN_sclk);
00014c  b2e0              UXTB     r0,r4
00014e  f7fffffe          BL       LCD_DataWrite
;;;162    	LCD_CmdWrite(0x08);
000152  2008              MOVS     r0,#8
000154  f7fffffe          BL       LCD_CmdWrite
;;;163    	LCD_DataWrite(lpllN_mclk);
000158  4618              MOV      r0,r3
00015a  f7fffffe          BL       LCD_DataWrite
;;;164    	LCD_CmdWrite(0x0a);
00015e  200a              MOVS     r0,#0xa
000160  f7fffffe          BL       LCD_CmdWrite
;;;165    	LCD_DataWrite(lpllN_cclk);
000164  4610              MOV      r0,r2
000166  f7fffffe          BL       LCD_DataWrite
;;;166          
;;;167    	LCD_CmdWrite(0x00);
00016a  2000              MOVS     r0,#0
00016c  f7fffffe          BL       LCD_CmdWrite
;;;168    	Delay_us(1);
000170  2001              MOVS     r0,#1
000172  f7fffffe          BL       Delay_us
;;;169    	LCD_DataWrite(0x80);
000176  2080              MOVS     r0,#0x80
000178  f7fffffe          BL       LCD_DataWrite
;;;170    
;;;171    	Delay_ms(1);	//µĄPLLĂ­
00017c  e8bd4010          POP      {r4,lr}
000180  2001              MOVS     r0,#1
000182  e7fe              B        Delay_ms
;;;172    }
;;;173    
                          ENDP

                  Check_SDRAM_Ready PROC
;;;373    }
;;;374    void Check_SDRAM_Ready(void)
000184  b500              PUSH     {lr}
                  |L1.390|
;;;375    {
;;;376    /*	0: SDRAM is not ready for access
;;;377    	1: SDRAM is ready for access		*/	
;;;378    	uint8_t temp; 	
;;;379    	do
;;;380    	{
;;;381    		temp=LCD_StatusRead();
000186  f7fffffe          BL       LCD_StatusRead
;;;382    	}
;;;383    	while( (temp&0x04) == 0x00 );
00018a  0740              LSLS     r0,r0,#29
00018c  d5fb              BPL      |L1.390|
;;;384    }
00018e  bd00              POP      {pc}
;;;385    void Check_Mem_WR_FIFO_Empty(void)
                          ENDP

                  LCD_RegisterWrite PROC
;;;335    *********************************************************/
;;;336    void LCD_RegisterWrite(uint8_t Cmd,uint8_t Data)
000190  b500              PUSH     {lr}
;;;337    {
000192  460a              MOV      r2,r1
;;;338    	LCD_CmdWrite(Cmd);
000194  f7fffffe          BL       LCD_CmdWrite
;;;339    	LCD_DataWrite(Data);
000198  4610              MOV      r0,r2
00019a  f85deb04          POP      {lr}
00019e  e7fe              B        LCD_DataWrite
;;;340    }  
;;;341    //---------------------//
                          ENDP

                  LT768_SDRAM_initail PROC
;;;174    
;;;175    void LT768_SDRAM_initail(uint8_t mclk)
0001a0  b500              PUSH     {lr}
;;;176    {
0001a2  4603              MOV      r3,r0
;;;177    	uint16_t sdram_itv;
;;;178    	
;;;179    	LCD_RegisterWrite(0xe0,0x29);      
0001a4  2129              MOVS     r1,#0x29
0001a6  20e0              MOVS     r0,#0xe0
0001a8  f7fffffe          BL       LCD_RegisterWrite
;;;180    	LCD_RegisterWrite(0xe1,0x03);	//CAS:2=0x02ˇACAS:3=0x03
0001ac  2103              MOVS     r1,#3
0001ae  20e1              MOVS     r0,#0xe1
0001b0  f7fffffe          BL       LCD_RegisterWrite
;;;181      sdram_itv = (64000000 / 8192) / (1000/mclk) ;
0001b4  f44f707a          MOV      r0,#0x3e8
0001b8  fbb0f0f3          UDIV     r0,r0,r3
0001bc  f6416184          MOV      r1,#0x1e84
0001c0  fbb1f0f0          UDIV     r0,r1,r0
;;;182      sdram_itv-=2;
0001c4  1e80              SUBS     r0,r0,#2
0001c6  b283              UXTH     r3,r0
;;;183    
;;;184    	LCD_RegisterWrite(0xe2,sdram_itv);
0001c8  b2d9              UXTB     r1,r3
0001ca  20e2              MOVS     r0,#0xe2
0001cc  f7fffffe          BL       LCD_RegisterWrite
;;;185    	LCD_RegisterWrite(0xe3,sdram_itv >>8);
0001d0  0a19              LSRS     r1,r3,#8
0001d2  20e3              MOVS     r0,#0xe3
0001d4  f7fffffe          BL       LCD_RegisterWrite
;;;186    	LCD_RegisterWrite(0xe4,0x01);
0001d8  2101              MOVS     r1,#1
0001da  20e4              MOVS     r0,#0xe4
0001dc  f7fffffe          BL       LCD_RegisterWrite
;;;187    	Check_SDRAM_Ready();
0001e0  f7fffffe          BL       Check_SDRAM_Ready
;;;188    	Delay_ms(1);
0001e4  2001              MOVS     r0,#1
0001e6  f85deb04          POP      {lr}
0001ea  e7fe              B        Delay_ms
;;;189    }
;;;190    
                          ENDP

                  Memory_16bpp_Mode PROC
;;;1520   }
;;;1521   void Memory_16bpp_Mode(void)	
0001ec  b500              PUSH     {lr}
;;;1522   {
;;;1523   /*
;;;1524   Canvas imageˇ¦s color depth & memory R/W data width
;;;1525   In Block Mode:
;;;1526   00: 8bpp
;;;1527   01: 16bpp
;;;1528   1x: 24bpp
;;;1529   In Linear Mode:
;;;1530   X0: 8-bits memory data read/write.
;;;1531   X1: 16-bits memory data read/write
;;;1532   */
;;;1533   	uint8_t temp;
;;;1534   
;;;1535   	LCD_CmdWrite(0x5E);
0001ee  205e              MOVS     r0,#0x5e
0001f0  f7fffffe          BL       LCD_CmdWrite
;;;1536   	temp = LCD_DataRead();
0001f4  f7fffffe          BL       LCD_DataRead
;;;1537   	temp &= cClrb1;
0001f8  f00000fd          AND      r0,r0,#0xfd
;;;1538   	temp |= cSetb0;
0001fc  f0400001          ORR      r0,r0,#1
;;;1539   	LCD_DataWrite(temp);
000200  f85deb04          POP      {lr}
000204  e7fe              B        LCD_DataWrite
;;;1540   }
;;;1541   void Memory_Linear_Mode(void)	
                          ENDP

                  Memory_XY_Mode PROC
;;;1506   //5Eh]=========================================================================
;;;1507   void Memory_XY_Mode(void)	
000206  b500              PUSH     {lr}
;;;1508   {
;;;1509   /*
;;;1510   Canvas addressing mode
;;;1511   0: Block mode (X-Y coordination addressing)
;;;1512   1: linear mode
;;;1513   */
;;;1514   	uint8_t temp;
;;;1515   
;;;1516   	LCD_CmdWrite(0x5E);
000208  205e              MOVS     r0,#0x5e
00020a  f7fffffe          BL       LCD_CmdWrite
;;;1517   	temp = LCD_DataRead();
00020e  f7fffffe          BL       LCD_DataRead
;;;1518   	temp &= cClrb2;
000212  f00000fb          AND      r0,r0,#0xfb
;;;1519   	LCD_DataWrite(temp);
000216  f85deb04          POP      {lr}
00021a  e7fe              B        LCD_DataWrite
;;;1520   }
;;;1521   void Memory_16bpp_Mode(void)	
                          ENDP

                  LCD_VSYNC_Pulse_Width PROC
;;;1045   //[1Fh]=========================================================================
;;;1046   void LCD_VSYNC_Pulse_Width(uint16_t HY)
00021c  b500              PUSH     {lr}
;;;1047   {
;;;1048   /*
;;;1049   [1Fh] VSYNC Pulse Width[5:0]
;;;1050   The pulse width of VSYNC in lines.
;;;1051   VSYNC Pulse Width(Line) = (VPWR + 1)
;;;1052   */
;;;1053   	uint8_t temp;
;;;1054       temp=HY-1;
00021e  1e40              SUBS     r0,r0,#1
000220  b2c2              UXTB     r2,r0
;;;1055   	LCD_CmdWrite(0x1F);
000222  201f              MOVS     r0,#0x1f
000224  f7fffffe          BL       LCD_CmdWrite
;;;1056   	LCD_DataWrite(temp);
000228  4610              MOV      r0,r2
00022a  f85deb04          POP      {lr}
00022e  e7fe              B        LCD_DataWrite
;;;1057   }
;;;1058   //[20h][21h][22h][23h]=========================================================================
                          ENDP

                  LCD_VSYNC_Start_Position PROC
;;;1032   //[1Eh]=========================================================================
;;;1033   void LCD_VSYNC_Start_Position(uint16_t HY)
000230  b500              PUSH     {lr}
;;;1034   {
;;;1035   /*
;;;1036   [1Eh] VSYNC Start Position[7:0]
;;;1037   The starting position from the end of display area to the beginning of VSYNC.
;;;1038   VSYNC Start Position(Line) = (VSTR + 1)
;;;1039   */
;;;1040   	uint8_t temp;
;;;1041       temp=HY-1;
000232  1e40              SUBS     r0,r0,#1
000234  b2c2              UXTB     r2,r0
;;;1042   	LCD_CmdWrite(0x1E);
000236  201e              MOVS     r0,#0x1e
000238  f7fffffe          BL       LCD_CmdWrite
;;;1043   	LCD_DataWrite(temp);
00023c  4610              MOV      r0,r2
00023e  f85deb04          POP      {lr}
000242  e7fe              B        LCD_DataWrite
;;;1044   }
;;;1045   //[1Fh]=========================================================================
                          ENDP

                  LCD_Vertical_Non_Display PROC
;;;1014   //[1Ch][1Dh]=========================================================================
;;;1015   void LCD_Vertical_Non_Display(uint16_t HY)
000244  b500              PUSH     {lr}
;;;1016   {
;;;1017   /*
;;;1018   [1Ch] Vertical Non-Display Period Bit[7:0]
;;;1019   Vertical Non-Display Period(Line) = (VNDR + 1)
;;;1020   
;;;1021   [1Dh] Vertical Non-Display Period Bit[9:8]
;;;1022   Vertical Non-Display Period(Line) = (VNDR + 1)
;;;1023   */
;;;1024   	uint8_t temp;
;;;1025       temp=HY-1;
000246  1e40              SUBS     r0,r0,#1
000248  b2c2              UXTB     r2,r0
;;;1026   	LCD_CmdWrite(0x1C);
00024a  201c              MOVS     r0,#0x1c
00024c  f7fffffe          BL       LCD_CmdWrite
;;;1027   	LCD_DataWrite(temp);
000250  4610              MOV      r0,r2
000252  f7fffffe          BL       LCD_DataWrite
;;;1028   
;;;1029   	LCD_CmdWrite(0x1D);
000256  201d              MOVS     r0,#0x1d
000258  f7fffffe          BL       LCD_CmdWrite
;;;1030   	LCD_DataWrite(temp>>8);
00025c  2000              MOVS     r0,#0
00025e  f85deb04          POP      {lr}
000262  e7fe              B        LCD_DataWrite
;;;1031   }
;;;1032   //[1Eh]=========================================================================
                          ENDP

                  LCD_HSYNC_Pulse_Width PROC
;;;993    //[19h]=========================================================================
;;;994    void LCD_HSYNC_Pulse_Width(uint16_t WX)
000264  b500              PUSH     {lr}
;;;995    {
;;;996    /*
;;;997    [19h] HSYNC Pulse Width(HPW) [4:0]
;;;998    The period width of HSYNC.
;;;999    HSYNC Pulse Width(pixels) = (HPW + 1)x8
;;;1000   */
;;;1001   	uint8_t temp;
;;;1002   	if(WX<8)
000266  2808              CMP      r0,#8
000268  d206              BCS      |L1.632|
;;;1003   	{
;;;1004   	LCD_CmdWrite(0x19);
00026a  2019              MOVS     r0,#0x19
00026c  f7fffffe          BL       LCD_CmdWrite
;;;1005   	LCD_DataWrite(0x00);
000270  2000              MOVS     r0,#0
000272  f85deb04          POP      {lr}
000276  e7fe              B        LCD_DataWrite
                  |L1.632|
;;;1006   	}
;;;1007   	else
;;;1008   	{
;;;1009       temp=(WX/8)-1;
000278  21ff              MOVS     r1,#0xff
00027a  eb0100d0          ADD      r0,r1,r0,LSR #3
00027e  b2c2              UXTB     r2,r0
;;;1010   	LCD_CmdWrite(0x19);
000280  2019              MOVS     r0,#0x19
000282  f7fffffe          BL       LCD_CmdWrite
;;;1011   	LCD_DataWrite(temp);	
000286  4610              MOV      r0,r2
000288  f85deb04          POP      {lr}
00028c  e7fe              B        LCD_DataWrite
;;;1012   	}
;;;1013   }
;;;1014   //[1Ch][1Dh]=========================================================================
                          ENDP

                  LCD_HSYNC_Start_Position PROC
;;;970    //[18h]=========================================================================
;;;971    void LCD_HSYNC_Start_Position(uint16_t WX)
00028e  b500              PUSH     {lr}
;;;972    {
;;;973    /*
;;;974    [18h] HSYNC Start Position[4:0]
;;;975    The starting position from the end of display area to the
;;;976    beginning of HSYNC. Each level of this modulation is 8-pixel.
;;;977    Also called front porch.
;;;978    HSYNC Start Position(pixels) = (HSTR + 1)x8
;;;979    */
;;;980    	uint8_t temp;
;;;981    	if(WX<8)
000290  2808              CMP      r0,#8
000292  d206              BCS      |L1.674|
;;;982    	{
;;;983    	LCD_CmdWrite(0x18);
000294  2018              MOVS     r0,#0x18
000296  f7fffffe          BL       LCD_CmdWrite
;;;984    	LCD_DataWrite(0x00);
00029a  2000              MOVS     r0,#0
00029c  f85deb04          POP      {lr}
0002a0  e7fe              B        LCD_DataWrite
                  |L1.674|
;;;985    	}
;;;986    	else
;;;987    	{
;;;988        temp=(WX/8)-1;
0002a2  21ff              MOVS     r1,#0xff
0002a4  eb0100d0          ADD      r0,r1,r0,LSR #3
0002a8  b2c2              UXTB     r2,r0
;;;989    	LCD_CmdWrite(0x18);
0002aa  2018              MOVS     r0,#0x18
0002ac  f7fffffe          BL       LCD_CmdWrite
;;;990    	LCD_DataWrite(temp);	
0002b0  4610              MOV      r0,r2
0002b2  f85deb04          POP      {lr}
0002b6  e7fe              B        LCD_DataWrite
;;;991    	}
;;;992    }
;;;993    //[19h]=========================================================================
                          ENDP

                  LCD_Horizontal_Non_Display PROC
;;;935    ////[16h][17h]=========================================================================
;;;936    void LCD_Horizontal_Non_Display(uint16_t WX)
0002b8  b500              PUSH     {lr}
;;;937    {
0002ba  4602              MOV      r2,r0
;;;938    /*
;;;939    [16h] Horizontal Non-Display Period(HNDR) Bit[4:0]
;;;940    This register specifies the horizontal non-display period. Also
;;;941    called back porch.
;;;942    Horizontal non-display period(pixels) = (HNDR + 1) * 8 + HNDFTR
;;;943    
;;;944    [17h] Horizontal Non-Display Period Fine Tuning(HNDFT) [3:0]
;;;945    This register specifies the fine tuning for horizontal non-display
;;;946    period; it is used to support the SYNC mode panel. Each level of
;;;947    this modulation is 1-pixel.
;;;948    Horizontal non-display period(pixels) = (HNDR + 1) * 8 + HNDFTR
;;;949    */
;;;950    	uint8_t temp;
;;;951    	if(WX<8)
0002bc  2a08              CMP      r2,#8
0002be  d20c              BCS      |L1.730|
;;;952    	{
;;;953    	LCD_CmdWrite(0x16);
0002c0  2016              MOVS     r0,#0x16
0002c2  f7fffffe          BL       LCD_CmdWrite
;;;954    	LCD_DataWrite(0x00);
0002c6  2000              MOVS     r0,#0
0002c8  f7fffffe          BL       LCD_DataWrite
;;;955        
;;;956    	LCD_CmdWrite(0x17);
0002cc  2017              MOVS     r0,#0x17
0002ce  f7fffffe          BL       LCD_CmdWrite
;;;957    	LCD_DataWrite(WX);
0002d2  b2d0              UXTB     r0,r2
0002d4  f85deb04          POP      {lr}
0002d8  e7fe              B        LCD_DataWrite
                  |L1.730|
;;;958    	}
;;;959    	else
;;;960    	{
;;;961        temp=(WX/8)-1;
0002da  20ff              MOVS     r0,#0xff
0002dc  eb0000d2          ADD      r0,r0,r2,LSR #3
0002e0  b2c3              UXTB     r3,r0
;;;962    	LCD_CmdWrite(0x16);
0002e2  2016              MOVS     r0,#0x16
0002e4  f7fffffe          BL       LCD_CmdWrite
;;;963    	LCD_DataWrite(temp);
0002e8  4618              MOV      r0,r3
0002ea  f7fffffe          BL       LCD_DataWrite
;;;964        
;;;965        temp=WX%8;
0002ee  f0020207          AND      r2,r2,#7
;;;966    	LCD_CmdWrite(0x17);
0002f2  2017              MOVS     r0,#0x17
0002f4  f7fffffe          BL       LCD_CmdWrite
;;;967    	LCD_DataWrite(temp);
0002f8  4610              MOV      r0,r2
0002fa  f85deb04          POP      {lr}
0002fe  e7fe              B        LCD_DataWrite
;;;968    	}	
;;;969    }
;;;970    //[18h]=========================================================================
                          ENDP

                  LCD_HorizontalWidth_VerticalHeight PROC
;;;884    
;;;885    void LCD_HorizontalWidth_VerticalHeight(uint16_t WX,uint16_t HY)
000300  b530              PUSH     {r4,r5,lr}
;;;886    {
000302  4602              MOV      r2,r0
;;;887    /*
;;;888    [14h] Horizontal Display Width Setting Bit[7:0]
;;;889    [15h] Horizontal Display Width Fine Tuning (HDWFT) [3:0]
;;;890    The register specifies the LCD panel horizontal display width in
;;;891    the unit of 8 pixels resolution.
;;;892    Horizontal display width(pixels) = (HDWR + 1) * 8 + HDWFTR
;;;893    
;;;894    [1Ah] Vertical Display Height Bit[7:0]
;;;895    Vertical Display Height(Line) = VDHR + 1
;;;896    [1Bh] Vertical Display Height Bit[10:8]
;;;897    Vertical Display Height(Line) = VDHR + 1
;;;898    */
;;;899    	uint8_t temp;
;;;900    	if(WX<8)
;;;901        {
;;;902    	LCD_CmdWrite(0x14);
;;;903    	LCD_DataWrite(0x00);
;;;904        
;;;905    	LCD_CmdWrite(0x15);
;;;906    	LCD_DataWrite(WX);
;;;907        
;;;908        temp=HY-1;
000304  1e4c              SUBS     r4,r1,#1
;;;909    	LCD_CmdWrite(0x1A);
;;;910    	LCD_DataWrite(temp);
;;;911    	    
;;;912    	temp=(HY-1)>>8;
000306  f3c42307          UBFX     r3,r4,#8,#8
00030a  2a08              CMP      r2,#8                 ;900
00030c  d219              BCS      |L1.834|
00030e  2014              MOVS     r0,#0x14              ;902
000310  f7fffffe          BL       LCD_CmdWrite
000314  2000              MOVS     r0,#0                 ;903
000316  f7fffffe          BL       LCD_DataWrite
00031a  2015              MOVS     r0,#0x15              ;905
00031c  f7fffffe          BL       LCD_CmdWrite
000320  b2d0              UXTB     r0,r2                 ;906
000322  f7fffffe          BL       LCD_DataWrite
000326  b2e2              UXTB     r2,r4                 ;908
000328  201a              MOVS     r0,#0x1a              ;909
00032a  f7fffffe          BL       LCD_CmdWrite
00032e  4610              MOV      r0,r2                 ;910
000330  f7fffffe          BL       LCD_DataWrite
;;;913    	LCD_CmdWrite(0x1B);
000334  201b              MOVS     r0,#0x1b
000336  f7fffffe          BL       LCD_CmdWrite
;;;914    	LCD_DataWrite(temp);
00033a  e8bd4030          POP      {r4,r5,lr}
00033e  4618              MOV      r0,r3
000340  e7fe              B        LCD_DataWrite
                  |L1.834|
;;;915    	}
;;;916    	else
;;;917    	{
;;;918        temp=(WX/8)-1;
000342  20ff              MOVS     r0,#0xff
000344  eb0000d2          ADD      r0,r0,r2,LSR #3
000348  b2c5              UXTB     r5,r0
;;;919    	LCD_CmdWrite(0x14);
00034a  2014              MOVS     r0,#0x14
00034c  f7fffffe          BL       LCD_CmdWrite
;;;920    	LCD_DataWrite(temp);
000350  4628              MOV      r0,r5
000352  f7fffffe          BL       LCD_DataWrite
;;;921        
;;;922        temp=WX%8;
000356  f0020207          AND      r2,r2,#7
;;;923    	LCD_CmdWrite(0x15);
00035a  2015              MOVS     r0,#0x15
00035c  f7fffffe          BL       LCD_CmdWrite
;;;924    	LCD_DataWrite(temp);
000360  4610              MOV      r0,r2
000362  f7fffffe          BL       LCD_DataWrite
;;;925        
;;;926        temp=HY-1;
000366  b2e2              UXTB     r2,r4
;;;927    	LCD_CmdWrite(0x1A);
000368  201a              MOVS     r0,#0x1a
00036a  f7fffffe          BL       LCD_CmdWrite
;;;928    	LCD_DataWrite(temp);
00036e  4610              MOV      r0,r2
000370  f7fffffe          BL       LCD_DataWrite
;;;929    	    
;;;930    	temp=(HY-1)>>8;
;;;931    	LCD_CmdWrite(0x1B);
000374  201b              MOVS     r0,#0x1b
000376  f7fffffe          BL       LCD_CmdWrite
;;;932    	LCD_DataWrite(temp);
00037a  e8bd4030          POP      {r4,r5,lr}
00037e  4618              MOV      r0,r3
000380  e7fe              B        LCD_DataWrite
;;;933    	}
;;;934    }
;;;935    ////[16h][17h]=========================================================================
                          ENDP

                  DE_High_Active PROC
;;;867    
;;;868    void DE_High_Active(void)
000382  b500              PUSH     {lr}
;;;869    {
;;;870    /*	
;;;871    DE Polarity
;;;872    0 : High active.
;;;873    1 : Low active.
;;;874    */
;;;875    	uint8_t temp;
;;;876    	
;;;877    	LCD_CmdWrite(0x13);
000384  2013              MOVS     r0,#0x13
000386  f7fffffe          BL       LCD_CmdWrite
;;;878    	temp = LCD_DataRead();
00038a  f7fffffe          BL       LCD_DataRead
;;;879    	temp &= cClrb5;
00038e  f00000df          AND      r0,r0,#0xdf
;;;880    	LCD_DataWrite(temp);
000392  f85deb04          POP      {lr}
000396  e7fe              B        LCD_DataWrite
;;;881    }
;;;882    
                          ENDP

                  VSYNC_Low_Active PROC
;;;852    
;;;853    void VSYNC_Low_Active(void)
000398  b500              PUSH     {lr}
;;;854    {
;;;855    /*	
;;;856    VSYNC Polarity
;;;857    0 : Low active.
;;;858    1 : High active.
;;;859    */
;;;860    	uint8_t temp;
;;;861    	
;;;862    	LCD_CmdWrite(0x13);
00039a  2013              MOVS     r0,#0x13
00039c  f7fffffe          BL       LCD_CmdWrite
;;;863    	temp = LCD_DataRead();
0003a0  f7fffffe          BL       LCD_DataRead
;;;864    	temp &= cClrb6;	
0003a4  f00000bf          AND      r0,r0,#0xbf
;;;865    	LCD_DataWrite(temp);
0003a8  f85deb04          POP      {lr}
0003ac  e7fe              B        LCD_DataWrite
;;;866    }
;;;867    
                          ENDP

                  HSYNC_Low_Active PROC
;;;837    ////[13h]=========================================================================
;;;838    void HSYNC_Low_Active(void)
0003ae  b500              PUSH     {lr}
;;;839    {
;;;840    /*	
;;;841    HSYNC Polarity
;;;842    0 : Low active.
;;;843    1 : High active.
;;;844    */
;;;845    	uint8_t temp;
;;;846    	
;;;847    	LCD_CmdWrite(0x13);
0003b0  2013              MOVS     r0,#0x13
0003b2  f7fffffe          BL       LCD_CmdWrite
;;;848    	temp = LCD_DataRead();
0003b6  f7fffffe          BL       LCD_DataRead
;;;849    	temp &= cClrb7;
0003ba  f000007f          AND      r0,r0,#0x7f
;;;850    	LCD_DataWrite(temp);
0003be  f85deb04          POP      {lr}
0003c2  e7fe              B        LCD_DataWrite
;;;851    }
;;;852    
                          ENDP

                  PDATA_Set_RGB PROC
;;;816    }
;;;817    void PDATA_Set_RGB(void)
0003c4  b500              PUSH     {lr}
;;;818    {
;;;819    /*	
;;;820    parallel PDATA[23:0] Output Sequence
;;;821    000b : RGB.
;;;822    001b : RBG.
;;;823    010b : GRB.
;;;824    011b : GBR.
;;;825    100b : BRG.
;;;826    101b : BGR.
;;;827    */
;;;828    	uint8_t temp;
;;;829    	
;;;830    	LCD_CmdWrite(0x12);
0003c6  2012              MOVS     r0,#0x12
0003c8  f7fffffe          BL       LCD_CmdWrite
;;;831    	temp = LCD_DataRead();
0003cc  f7fffffe          BL       LCD_DataRead
;;;832      temp &=0xf8;
0003d0  f00000f8          AND      r0,r0,#0xf8
;;;833    	temp |=0x05;
0003d4  f0400005          ORR      r0,r0,#5
;;;834    	LCD_DataWrite(temp);
0003d8  f85deb04          POP      {lr}
0003dc  e7fe              B        LCD_DataWrite
;;;835    }
;;;836    
                          ENDP

                  VSCAN_T_to_B PROC
;;;801    }
;;;802    void VSCAN_T_to_B(void)
0003de  b500              PUSH     {lr}
;;;803    {
;;;804    /*	
;;;805    Vertical Scan direction
;;;806    0 : From Top to Bottom
;;;807    1 : From bottom to Top
;;;808    PIP window will be disabled when VDIR set as 1.
;;;809    */
;;;810    	uint8_t temp;
;;;811    	
;;;812    	LCD_CmdWrite(0x12);
0003e0  2012              MOVS     r0,#0x12
0003e2  f7fffffe          BL       LCD_CmdWrite
;;;813    	temp = LCD_DataRead();
0003e6  f7fffffe          BL       LCD_DataRead
;;;814    	temp &= cClrb3;
0003ea  f00000f7          AND      r0,r0,#0xf7
;;;815    	LCD_DataWrite(temp);
0003ee  f85deb04          POP      {lr}
0003f2  e7fe              B        LCD_DataWrite
                  |L1.1012|
                          DCD      0x60040000
                  |L1.1016|
                          DCD      0x400048f8
                  |L1.1020|
                          DCD      0x036083a0
                  |L1.1024|
                          DCD      0x000f4240
                  |L1.1028|
                          DCD      0x000186a0
                  |L1.1032|
                          DCD      ||.data||
                          ENDP

                  PCLK_Falling PROC
;;;732    
;;;733    void PCLK_Falling(void)
00040c  b500              PUSH     {lr}
;;;734    {
;;;735    /*
;;;736    PCLK Inversion
;;;737    0: PDAT, DE, HSYNC etc. Drive(/ change) at PCLK falling edge.
;;;738    1: PDAT, DE, HSYNC etc. Drive(/ change) at PCLK rising edge.
;;;739    */
;;;740    	uint8_t temp;
;;;741    	LCD_CmdWrite(0x12);
00040e  2012              MOVS     r0,#0x12
000410  f7fffffe          BL       LCD_CmdWrite
;;;742    	temp = LCD_DataRead();
000414  f7fffffe          BL       LCD_DataRead
000418  b2c0              UXTB     r0,r0
;;;743        temp |= cSetb7;
00041a  f0400080          ORR      r0,r0,#0x80
;;;744    	LCD_DataWrite(temp);
00041e  f85deb04          POP      {lr}
000422  e7fe              B        LCD_DataWrite
;;;745    }
;;;746    void Display_ON(void)
                          ENDP

                  Memory_Select_SDRAM PROC
;;;513    }
;;;514    void Memory_Select_SDRAM(void)
000424  b500              PUSH     {lr}
;;;515    {
;;;516    	uint8_t temp;
;;;517    	LCD_CmdWrite(0x03);
000426  2003              MOVS     r0,#3
000428  f7fffffe          BL       LCD_CmdWrite
;;;518    	temp = LCD_DataRead();
00042c  f7fffffe          BL       LCD_DataRead
;;;519        temp &= cClrb1;
000430  f00000fd          AND      r0,r0,#0xfd
;;;520        temp &= cClrb0;	// B
000434  f00000fe          AND      r0,r0,#0xfe
;;;521    	LCD_DataWrite(temp);
000438  f85deb04          POP      {lr}
00043c  e7fe              B        LCD_DataWrite
;;;522    }
;;;523    void Memory_Select_Graphic_Cursor_RAM(void)
                          ENDP

                  Graphic_Mode PROC
;;;497    //[03h][03h][03h][03h][03h][03h][03h][03h][03h][03h][03h][03h][03h][03h][03h][03h]
;;;498    void Graphic_Mode(void)
00043e  b500              PUSH     {lr}
;;;499    {
;;;500    	uint8_t temp;
;;;501    	LCD_CmdWrite(0x03);
000440  2003              MOVS     r0,#3
000442  f7fffffe          BL       LCD_CmdWrite
;;;502    	temp = LCD_DataRead();
000446  f7fffffe          BL       LCD_DataRead
;;;503        temp &= cClrb2;
00044a  f00000fb          AND      r0,r0,#0xfb
;;;504    	LCD_DataWrite(temp);
00044e  f85deb04          POP      {lr}
000452  e7fe              B        LCD_DataWrite
;;;505    }
;;;506    void Text_Mode(void)
                          ENDP

                  MemWrite_Left_Right_Top_Down PROC
;;;487    
;;;488    void MemWrite_Left_Right_Top_Down(void)
000454  b500              PUSH     {lr}
;;;489    {
;;;490    	uint8_t temp;
;;;491    	LCD_CmdWrite(0x02);
000456  2002              MOVS     r0,#2
000458  f7fffffe          BL       LCD_CmdWrite
;;;492    	temp = LCD_DataRead();
00045c  f7fffffe          BL       LCD_DataRead
;;;493    	temp &= cClrb2;
000460  f00000fb          AND      r0,r0,#0xfb
;;;494    	temp &= cClrb1;
000464  f00000fd          AND      r0,r0,#0xfd
;;;495    	LCD_DataWrite(temp);
000468  f85deb04          POP      {lr}
00046c  e7fe              B        LCD_DataWrite
;;;496    }
;;;497    //[03h][03h][03h][03h][03h][03h][03h][03h][03h][03h][03h][03h][03h][03h][03h][03h]
                          ENDP

                  RGB_16b_16bpp PROC
;;;477    
;;;478    void RGB_16b_16bpp(void)
00046e  b500              PUSH     {lr}
;;;479    {
;;;480    	uint8_t temp;
;;;481    	LCD_CmdWrite(0x02);
000470  2002              MOVS     r0,#2
000472  f7fffffe          BL       LCD_CmdWrite
;;;482    	temp = LCD_DataRead();
000476  f7fffffe          BL       LCD_DataRead
;;;483    	temp &= cClrb7;
00047a  f000007f          AND      r0,r0,#0x7f
;;;484    	temp |= cSetb6;
00047e  f0400040          ORR      r0,r0,#0x40
;;;485    	LCD_DataWrite(temp);
000482  f85deb04          POP      {lr}
000486  e7fe              B        LCD_DataWrite
;;;486    }
;;;487    
                          ENDP

                  Host_Bus_16bit PROC
;;;463    }
;;;464    void Host_Bus_16bit(void)
000488  b500              PUSH     {lr}
;;;465    {
;;;466    /*  Parallel Host Data Bus Width Selection
;;;467        0: 8-bit Parallel Host Data Bus.
;;;468        1: 16-bit Parallel Host Data Bus.*/
;;;469    	uint8_t temp;
;;;470    	LCD_CmdWrite(0x01);
00048a  2001              MOVS     r0,#1
00048c  f7fffffe          BL       LCD_CmdWrite
;;;471    	temp = LCD_DataRead();
000490  f7fffffe          BL       LCD_DataRead
000494  b2c0              UXTB     r0,r0
;;;472    	temp |= cSetb0;
000496  f0400001          ORR      r0,r0,#1
;;;473    	LCD_DataWrite(temp);
00049a  f85deb04          POP      {lr}
00049e  e7fe              B        LCD_DataWrite
;;;474    }
;;;475    
                          ENDP

                  TFT_16bit PROC
;;;425    
;;;426    void TFT_16bit(void)
0004a0  b500              PUSH     {lr}
;;;427    {
;;;428    /*  00b: 24-bits output.
;;;429        01b: 18-bits output, unused pins are set as GPIO.
;;;430        10b: 16-bits output, unused pins are set as GPIO.
;;;431        11b: LVDS, all 24-bits unused output pins are set as GPIO.*/
;;;432    	uint8_t temp;
;;;433    	LCD_CmdWrite(0x01);
0004a2  2001              MOVS     r0,#1
0004a4  f7fffffe          BL       LCD_CmdWrite
;;;434    	temp = LCD_DataRead();
0004a8  f7fffffe          BL       LCD_DataRead
;;;435    	temp |= cSetb4;
0004ac  f0400010          ORR      r0,r0,#0x10
;;;436        temp &= cClrb3;
0004b0  f00000f7          AND      r0,r0,#0xf7
;;;437    	LCD_DataWrite(temp);  
0004b4  f85deb04          POP      {lr}
0004b8  e7fe              B        LCD_DataWrite
;;;438    }
;;;439    
                          ENDP

                  Set_LCD_Panel PROC
;;;191    
;;;192    void Set_LCD_Panel(void)
0004ba  b500              PUSH     {lr}
;;;193    {
;;;194    	//**[01h]**//   
;;;195    	TFT_16bit();	
0004bc  f7fffffe          BL       TFT_16bit
;;;196    	//TFT_18bit();
;;;197    	//TFT_24bit(); 
;;;198    	
;;;199    	Host_Bus_16bit();	//Ö÷»ú×ÜĎß16bit
0004c0  f7fffffe          BL       Host_Bus_16bit
;;;200          
;;;201    	//**[02h]**//
;;;202    	RGB_16b_16bpp();
0004c4  f7fffffe          BL       RGB_16b_16bpp
;;;203    	//RGB_16b_24bpp_mode1();
;;;204    	MemWrite_Left_Right_Top_Down();	
0004c8  f7fffffe          BL       MemWrite_Left_Right_Top_Down
;;;205    	//MemWrite_Down_Top_Left_Right();
;;;206          
;;;207    	//**[03h]**//
;;;208    	Graphic_Mode();
0004cc  f7fffffe          BL       Graphic_Mode
;;;209    	Memory_Select_SDRAM();
0004d0  f7fffffe          BL       Memory_Select_SDRAM
;;;210         
;;;211    	PCLK_Falling();	       	//REG[12h]:ĎÂ˝µŃŘ 
0004d4  f7fffffe          BL       PCLK_Falling
;;;212    	//PCLK_Rising();
;;;213    	
;;;214    	VSCAN_T_to_B();	        //REG[12h]:´ÓÉĎµ˝ĎÂ
0004d8  f7fffffe          BL       VSCAN_T_to_B
;;;215    	//VSCAN_B_to_T();				//´ÓĎÂµ˝ÉĎ
;;;216    	
;;;217    	PDATA_Set_RGB();        //REG[12h]:Select RGB output
0004dc  f7fffffe          BL       PDATA_Set_RGB
;;;218    	//PDATA_Set_RBG();
;;;219    	//PDATA_Set_GRB();
;;;220    	//PDATA_Set_GBR();
;;;221    	//PDATA_Set_BRG();
;;;222    	//PDATA_Set_BGR();
;;;223    
;;;224    	HSYNC_Low_Active();     //REG[13h]:		  
0004e0  f7fffffe          BL       HSYNC_Low_Active
;;;225    	//HSYNC_High_Active();
;;;226    	
;;;227    	VSYNC_Low_Active();     //REG[13h]:			
0004e4  f7fffffe          BL       VSYNC_Low_Active
;;;228    	//VSYNC_High_Active();
;;;229    	
;;;230    	DE_High_Active();       //REG[13h]:	
0004e8  f7fffffe          BL       DE_High_Active
;;;231    	//DE_Low_Active();
;;;232     
;;;233    	LCD_HorizontalWidth_VerticalHeight(LCD_XSIZE_TFT ,LCD_YSIZE_TFT);	
0004ec  f44f7116          MOV      r1,#0x258
0004f0  f44f6080          MOV      r0,#0x400
0004f4  f7fffffe          BL       LCD_HorizontalWidth_VerticalHeight
;;;234    	LCD_Horizontal_Non_Display(LCD_HBPD);	                            
0004f8  20a0              MOVS     r0,#0xa0
0004fa  f7fffffe          BL       LCD_Horizontal_Non_Display
;;;235    	LCD_HSYNC_Start_Position(LCD_HFPD);	                              
0004fe  20a0              MOVS     r0,#0xa0
000500  f7fffffe          BL       LCD_HSYNC_Start_Position
;;;236    	LCD_HSYNC_Pulse_Width(LCD_HSPW);		                            	
000504  2078              MOVS     r0,#0x78
000506  f7fffffe          BL       LCD_HSYNC_Pulse_Width
;;;237    	LCD_Vertical_Non_Display(LCD_VBPD);	                                
00050a  2017              MOVS     r0,#0x17
00050c  f7fffffe          BL       LCD_Vertical_Non_Display
;;;238    	LCD_VSYNC_Start_Position(LCD_VFPD);	                              
000510  200c              MOVS     r0,#0xc
000512  f7fffffe          BL       LCD_VSYNC_Start_Position
;;;239    	LCD_VSYNC_Pulse_Width(LCD_VSPW);		                            	
000516  200a              MOVS     r0,#0xa
000518  f7fffffe          BL       LCD_VSYNC_Pulse_Width
;;;240    
;;;241    	Memory_XY_Mode();	//Block mode (X-Y coordination addressing);żéÄŁĘ˝
00051c  f7fffffe          BL       Memory_XY_Mode
;;;242    	Memory_16bpp_Mode();	
000520  f85deb04          POP      {lr}
000524  e7fe              B        Memory_16bpp_Mode
;;;243    }
;;;244    
                          ENDP

                  LT768_initial PROC
;;;245    void LT768_initial(void)
000526  b500              PUSH     {lr}
;;;246    {
;;;247      LT768_PLL_Initial();
000528  f7fffffe          BL       LT768_PLL_Initial
;;;248      LT768_SDRAM_initail(MCLK);
00052c  48fc              LDR      r0,|L1.2336|
00052e  7840              LDRB     r0,[r0,#1]  ; MCLK
000530  f7fffffe          BL       LT768_SDRAM_initail
;;;249      Set_LCD_Panel();
000534  f85deb04          POP      {lr}
000538  e7fe              B        Set_LCD_Panel
;;;250    }
;;;251    
                          ENDP

                  LT768_Init PROC
;;;252    
;;;253    void LT768_Init(void)
00053a  b500              PUSH     {lr}
;;;254    {
;;;255    	Delay_ms(100);                    //delay for LT768 power on
00053c  2064              MOVS     r0,#0x64
00053e  f7fffffe          BL       Delay_ms
;;;256    	LT768_HW_Reset();                 //LT768¸´Î»
000542  f7fffffe          BL       LT768_HW_Reset
;;;257    	System_Check_Temp();	            //Ľě˛â¸´Î»ĘÇ·ńłÉą¦
000546  f7fffffe          BL       System_Check_Temp
;;;258    	Delay_ms(100);
00054a  2064              MOVS     r0,#0x64
00054c  f7fffffe          BL       Delay_ms
                  |L1.1360|
;;;259    	while(LCD_StatusRead()&0x02);	    //Initial_Display_test	and  set SW2 pin2 = 1
000550  f7fffffe          BL       LCD_StatusRead
000554  0780              LSLS     r0,r0,#30
000556  d4fb              BMI      |L1.1360|
;;;260    	LT768_initial();
000558  f85deb04          POP      {lr}
00055c  e7fe              B        LT768_initial
;;;261    }
;;;262    
                          ENDP

                  Stop_PWM0 PROC
;;;2444   }
;;;2445   void Stop_PWM0(void)
00055e  b500              PUSH     {lr}
;;;2446   {
;;;2447   /*
;;;2448   PWM Timer 0 start/stop
;;;2449   Determine start/stop for Timer 0. 
;;;2450   0 = Stop 
;;;2451   1 = Start for Timer 0
;;;2452   */
;;;2453   	uint8_t temp;
;;;2454   	LCD_CmdWrite(0x86);
000560  2086              MOVS     r0,#0x86
000562  f7fffffe          BL       LCD_CmdWrite
;;;2455   	temp = LCD_DataRead();
000566  f7fffffe          BL       LCD_DataRead
;;;2456   	temp &= cClrb0;
00056a  f00000fe          AND      r0,r0,#0xfe
;;;2457   	LCD_DataWrite(temp);
00056e  f85deb04          POP      {lr}
000572  e7fe              B        LCD_DataWrite
;;;2458   }
;;;2459   //[87h]=========================================================================
                          ENDP

                  Start_PWM0 PROC
;;;2430   //[86h]PWM0
;;;2431   void Start_PWM0(void)
000574  b500              PUSH     {lr}
;;;2432   {
;;;2433   /*
;;;2434   PWM Timer 0 start/stop
;;;2435   Determine start/stop for Timer 0. 
;;;2436   0 = Stop 
;;;2437   1 = Start for Timer 0
;;;2438   */
;;;2439   	uint8_t temp;
;;;2440   	LCD_CmdWrite(0x86);
000576  2086              MOVS     r0,#0x86
000578  f7fffffe          BL       LCD_CmdWrite
;;;2441   	temp = LCD_DataRead();
00057c  f7fffffe          BL       LCD_DataRead
000580  b2c0              UXTB     r0,r0
;;;2442   	temp |= cSetb0;
000582  f0400001          ORR      r0,r0,#1
;;;2443   	LCD_DataWrite(temp);
000586  f85deb04          POP      {lr}
00058a  e7fe              B        LCD_DataWrite
;;;2444   }
;;;2445   void Stop_PWM0(void)
                          ENDP

                  Set_Timer0_Compare_Buffer PROC
;;;2460   //[88h][89h]=========================================================================
;;;2461   void Set_Timer0_Compare_Buffer(uint16_t WX)
00058c  b500              PUSH     {lr}
;;;2462   {
00058e  4602              MOV      r2,r0
;;;2463   /*
;;;2464   Timer 0 compare buffer register
;;;2465   Compare buffer register total has 16 bits.
;;;2466   When timer counter equal or less than compare buffer register will cause PWM out
;;;2467   high level if inv_on bit is off.
;;;2468   */
;;;2469   	LCD_CmdWrite(0x88);
000590  2088              MOVS     r0,#0x88
000592  f7fffffe          BL       LCD_CmdWrite
;;;2470   	LCD_DataWrite(WX);
000596  b2d0              UXTB     r0,r2
000598  f7fffffe          BL       LCD_DataWrite
;;;2471   	LCD_CmdWrite(0x89);
00059c  2089              MOVS     r0,#0x89
00059e  f7fffffe          BL       LCD_CmdWrite
;;;2472   	LCD_DataWrite(WX>>8);
0005a2  0a10              LSRS     r0,r2,#8
0005a4  f85deb04          POP      {lr}
0005a8  e7fe              B        LCD_DataWrite
;;;2473   }
;;;2474   //[8Ah][8Bh]=========================================================================
                          ENDP

                  Set_Timer0_Count_Buffer PROC
;;;2475   void Set_Timer0_Count_Buffer(uint16_t WX)
0005aa  b500              PUSH     {lr}
;;;2476   {
0005ac  4602              MOV      r2,r0
;;;2477   /*
;;;2478   Timer 0 count buffer register
;;;2479   Count buffer register total has 16 bits.
;;;2480   When timer counter equal to 0 will cause PWM timer reload Count buffer register if reload_en bit set as enable.
;;;2481   It may read back timer counterˇ¦s real time value when PWM timer start.
;;;2482   */
;;;2483   	LCD_CmdWrite(0x8A);
0005ae  208a              MOVS     r0,#0x8a
0005b0  f7fffffe          BL       LCD_CmdWrite
;;;2484   	LCD_DataWrite(WX);
0005b4  b2d0              UXTB     r0,r2
0005b6  f7fffffe          BL       LCD_DataWrite
;;;2485   	LCD_CmdWrite(0x8B);
0005ba  208b              MOVS     r0,#0x8b
0005bc  f7fffffe          BL       LCD_CmdWrite
;;;2486   	LCD_DataWrite(WX>>8);
0005c0  0a10              LSRS     r0,r2,#8
0005c2  f85deb04          POP      {lr}
0005c6  e7fe              B        LCD_DataWrite
;;;2487   }
;;;2488   //[8Ch][8Dh]=========================================================================
                          ENDP

                  Select_PWM0_Clock_Divided_By_8 PROC
;;;2340   }
;;;2341   void Select_PWM0_Clock_Divided_By_8(void)
0005c8  b500              PUSH     {lr}
;;;2342   {
;;;2343   /*
;;;2344   Select MUX input for PWM Timer 0.
;;;2345   00 = 1; 01 = 1/2; 10 = 1/4 ; 11 = 1/8;
;;;2346   */
;;;2347   	uint8_t temp;
;;;2348   	
;;;2349   	LCD_CmdWrite(0x85);
0005ca  2085              MOVS     r0,#0x85
0005cc  f7fffffe          BL       LCD_CmdWrite
;;;2350   	temp = LCD_DataRead();
0005d0  f7fffffe          BL       LCD_DataRead
0005d4  b2c0              UXTB     r0,r0
;;;2351   	temp |= cSetb5;
0005d6  f0400020          ORR      r0,r0,#0x20
;;;2352   	temp |= cSetb4;
0005da  f0400010          ORR      r0,r0,#0x10
;;;2353   	LCD_DataWrite(temp);
0005de  f85deb04          POP      {lr}
0005e2  e7fe              B        LCD_DataWrite
;;;2354   }
;;;2355   //[85h].[bit3][bit2]=========================================================================
                          ENDP

                  Select_PWM0_Clock_Divided_By_4 PROC
;;;2326   }
;;;2327   void Select_PWM0_Clock_Divided_By_4(void)
0005e4  b500              PUSH     {lr}
;;;2328   {
;;;2329   /*
;;;2330   Select MUX input for PWM Timer 0.
;;;2331   00 = 1; 01 = 1/2; 10 = 1/4 ; 11 = 1/8;
;;;2332   */
;;;2333   	uint8_t temp;
;;;2334   	
;;;2335   	LCD_CmdWrite(0x85);
0005e6  2085              MOVS     r0,#0x85
0005e8  f7fffffe          BL       LCD_CmdWrite
;;;2336   	temp = LCD_DataRead();
0005ec  f7fffffe          BL       LCD_DataRead
;;;2337   	temp |= cSetb5;
0005f0  f0400020          ORR      r0,r0,#0x20
;;;2338   	temp &= cClrb4;
0005f4  f00000ef          AND      r0,r0,#0xef
;;;2339   	LCD_DataWrite(temp);
0005f8  f85deb04          POP      {lr}
0005fc  e7fe              B        LCD_DataWrite
;;;2340   }
;;;2341   void Select_PWM0_Clock_Divided_By_8(void)
                          ENDP

                  Select_PWM0_Clock_Divided_By_2 PROC
;;;2312   }
;;;2313   void Select_PWM0_Clock_Divided_By_2(void)
0005fe  b500              PUSH     {lr}
;;;2314   {
;;;2315   /*
;;;2316   Select MUX input for PWM Timer 0.
;;;2317   00 = 1; 01 = 1/2; 10 = 1/4 ; 11 = 1/8;
;;;2318   */
;;;2319   	uint8_t temp;
;;;2320   	
;;;2321   	LCD_CmdWrite(0x85);
000600  2085              MOVS     r0,#0x85
000602  f7fffffe          BL       LCD_CmdWrite
;;;2322   	temp = LCD_DataRead();
000606  f7fffffe          BL       LCD_DataRead
;;;2323   	temp &= cClrb5;
00060a  f00000df          AND      r0,r0,#0xdf
;;;2324   	temp |= cSetb4;
00060e  f0400010          ORR      r0,r0,#0x10
;;;2325   	LCD_DataWrite(temp);
000612  f85deb04          POP      {lr}
000616  e7fe              B        LCD_DataWrite
;;;2326   }
;;;2327   void Select_PWM0_Clock_Divided_By_4(void)
                          ENDP

                  Select_PWM0_Clock_Divided_By_1 PROC
;;;2298   }
;;;2299   void Select_PWM0_Clock_Divided_By_1(void)
000618  b500              PUSH     {lr}
;;;2300   {
;;;2301   /*
;;;2302   Select MUX input for PWM Timer 0.
;;;2303   00 = 1; 01 = 1/2; 10 = 1/4 ; 11 = 1/8;
;;;2304   */
;;;2305   	uint8_t temp;
;;;2306   	
;;;2307   	LCD_CmdWrite(0x85);
00061a  2085              MOVS     r0,#0x85
00061c  f7fffffe          BL       LCD_CmdWrite
;;;2308   	temp = LCD_DataRead();
000620  f7fffffe          BL       LCD_DataRead
;;;2309   	temp &= cClrb5;
000624  f00000df          AND      r0,r0,#0xdf
;;;2310   	temp &= cClrb4;
000628  f00000ef          AND      r0,r0,#0xef
;;;2311   	LCD_DataWrite(temp);
00062c  f85deb04          POP      {lr}
000630  e7fe              B        LCD_DataWrite
;;;2312   }
;;;2313   void Select_PWM0_Clock_Divided_By_2(void)
                          ENDP

                  Set_PWM_Prescaler_1_to_256 PROC
;;;2230   //[84h]=========================================================================
;;;2231   void Set_PWM_Prescaler_1_to_256(uint16_t WX)
000632  b500              PUSH     {lr}
;;;2232   {
;;;2233   /*
;;;2234   PWM Prescaler Register
;;;2235   These 8 bits determine prescaler value for Timer 0 and 1.
;;;2236   Time base is ˇ§Core_Freq / (Prescaler + 1)ˇ¨
;;;2237   */
;;;2238   	WX=WX-1;
000634  1e42              SUBS     r2,r0,#1
;;;2239   	LCD_CmdWrite(0x84);
000636  2084              MOVS     r0,#0x84
000638  f7fffffe          BL       LCD_CmdWrite
;;;2240   	LCD_DataWrite(WX);
00063c  b2d0              UXTB     r0,r2
00063e  f85deb04          POP      {lr}
000642  e7fe              B        LCD_DataWrite
;;;2241   }
;;;2242   //[85h]=========================================================================
                          ENDP

                  Select_PWM0 PROC
;;;2389   
;;;2390   void Select_PWM0(void)
000644  b500              PUSH     {lr}
;;;2391   {
;;;2392   	uint8_t temp;
;;;2393   	
;;;2394   	LCD_CmdWrite(0x85);
000646  2085              MOVS     r0,#0x85
000648  f7fffffe          BL       LCD_CmdWrite
;;;2395   	temp = LCD_DataRead();
00064c  f7fffffe          BL       LCD_DataRead
;;;2396   	temp |= cSetb1;
000650  f0400002          ORR      r0,r0,#2
;;;2397   	temp &= cClrb0;
000654  f00000fe          AND      r0,r0,#0xfe
;;;2398   	LCD_DataWrite(temp);
000658  f85deb04          POP      {lr}
00065c  e7fe              B        LCD_DataWrite
;;;2399   }
;;;2400   //[86h]=========================================================================
                          ENDP

                  LT768_PWM0_Init PROC
;;;264    
;;;265    void LT768_PWM0_Init
00065e  b570              PUSH     {r4-r6,lr}
;;;266    (
;;;267     uint8_t on_off                       // 0Łş˝űÖąPWM0    1ŁşĘąÄÜPWM0
;;;268    ,uint8_t Clock_Divided                // PWMĘ±ÖÓ·ÖĆµ  ČˇÖµ·¶Î§ 0~3(1,1/2,1/4,1/8)
;;;269    ,uint8_t Prescalar                    // Ę±ÖÓ·ÖĆµ     ČˇÖµ·¶Î§ 1~256
;;;270    ,uint16_t Count_Buffer                // ÉčÖĂPWMµÄĘäłöÖÜĆÚ
;;;271    ,uint16_t Compare_Buffer              // ÉčÖĂŐĽżŐ±Č
;;;272    )
;;;273    {
000660  4605              MOV      r5,r0
000662  460c              MOV      r4,r1
000664  9e04              LDR      r6,[sp,#0x10]
;;;274    	 Select_PWM0();
000666  f7fffffe          BL       Select_PWM0
;;;275       Set_PWM_Prescaler_1_to_256(Prescalar);
00066a  4610              MOV      r0,r2
00066c  f7fffffe          BL       Set_PWM_Prescaler_1_to_256
;;;276    
;;;277    	if(Clock_Divided ==0)	Select_PWM0_Clock_Divided_By_1();
000670  b90c              CBNZ     r4,|L1.1654|
000672  f7fffffe          BL       Select_PWM0_Clock_Divided_By_1
                  |L1.1654|
;;;278    	if(Clock_Divided ==1)	Select_PWM0_Clock_Divided_By_2();
000676  2c01              CMP      r4,#1
000678  d101              BNE      |L1.1662|
00067a  f7fffffe          BL       Select_PWM0_Clock_Divided_By_2
                  |L1.1662|
;;;279    	if(Clock_Divided ==2)	Select_PWM0_Clock_Divided_By_4();
00067e  2c02              CMP      r4,#2
000680  d101              BNE      |L1.1670|
000682  f7fffffe          BL       Select_PWM0_Clock_Divided_By_4
                  |L1.1670|
;;;280    	if(Clock_Divided ==3) Select_PWM0_Clock_Divided_By_8();
000686  2c03              CMP      r4,#3
000688  d101              BNE      |L1.1678|
00068a  f7fffffe          BL       Select_PWM0_Clock_Divided_By_8
                  |L1.1678|
;;;281    
;;;282    	Set_Timer0_Count_Buffer(Count_Buffer);  
00068e  4618              MOV      r0,r3
000690  f7fffffe          BL       Set_Timer0_Count_Buffer
;;;283    	Set_Timer0_Compare_Buffer(Compare_Buffer);	
000694  4630              MOV      r0,r6
000696  f7fffffe          BL       Set_Timer0_Compare_Buffer
;;;284    		
;;;285    	if (on_off == 1)	Start_PWM0(); 
00069a  2d01              CMP      r5,#1
00069c  d101              BNE      |L1.1698|
00069e  f7fffffe          BL       Start_PWM0
                  |L1.1698|
;;;286    	if (on_off == 0)	Stop_PWM0();
0006a2  2d00              CMP      r5,#0
0006a4  d102              BNE      |L1.1708|
0006a6  e8bd4070          POP      {r4-r6,lr}
0006aa  e7fe              B        Stop_PWM0
                  |L1.1708|
;;;287    }
0006ac  bd70              POP      {r4-r6,pc}
;;;288    
                          ENDP

                  LT768_PWM0_Duty PROC
;;;289    
;;;290    void LT768_PWM0_Duty(uint16_t Compare_Buffer)
0006ae  e7fe              B        Set_Timer0_Compare_Buffer
;;;291    {
;;;292    	Set_Timer0_Compare_Buffer(Compare_Buffer);
;;;293    }
;;;294    
                          ENDP

                  Stop_PWM1 PROC
;;;2415   }
;;;2416   void Stop_PWM1(void)
0006b0  b500              PUSH     {lr}
;;;2417   {
;;;2418   /*
;;;2419   PWM Timer 1 start/stop
;;;2420   Determine start/stop for Timer 1. 
;;;2421   0 = Stop 
;;;2422   1 = Start for Timer 1
;;;2423   */
;;;2424   	uint8_t temp;
;;;2425   	LCD_CmdWrite(0x86);
0006b2  2086              MOVS     r0,#0x86
0006b4  f7fffffe          BL       LCD_CmdWrite
;;;2426   	temp = LCD_DataRead();
0006b8  f7fffffe          BL       LCD_DataRead
;;;2427   	temp &= cClrb4;
0006bc  f00000ef          AND      r0,r0,#0xef
;;;2428   	LCD_DataWrite(temp);
0006c0  f85deb04          POP      {lr}
0006c4  e7fe              B        LCD_DataWrite
;;;2429   }
;;;2430   //[86h]PWM0
                          ENDP

                  Start_PWM1 PROC
;;;2401   //[86h]PWM1
;;;2402   void Start_PWM1(void)
0006c6  b500              PUSH     {lr}
;;;2403   {
;;;2404   /*
;;;2405   PWM Timer 1 start/stop
;;;2406   Determine start/stop for Timer 1. 
;;;2407   0 = Stop 
;;;2408   1 = Start for Timer 1
;;;2409   */
;;;2410   	uint8_t temp;
;;;2411   	LCD_CmdWrite(0x86);
0006c8  2086              MOVS     r0,#0x86
0006ca  f7fffffe          BL       LCD_CmdWrite
;;;2412   	temp = LCD_DataRead();
0006ce  f7fffffe          BL       LCD_DataRead
0006d2  b2c0              UXTB     r0,r0
;;;2413   	temp |= cSetb4;
0006d4  f0400010          ORR      r0,r0,#0x10
;;;2414   	LCD_DataWrite(temp);
0006d8  f85deb04          POP      {lr}
0006dc  e7fe              B        LCD_DataWrite
;;;2415   }
;;;2416   void Stop_PWM1(void)
                          ENDP

                  Set_Timer1_Compare_Buffer PROC
;;;2488   //[8Ch][8Dh]=========================================================================
;;;2489   void Set_Timer1_Compare_Buffer(uint16_t WX)
0006de  b500              PUSH     {lr}
;;;2490   {
0006e0  4602              MOV      r2,r0
;;;2491   /*
;;;2492   Timer 0 compare buffer register
;;;2493   Compare buffer register total has 16 bits.
;;;2494   When timer counter equal or less than compare buffer register will cause PWM out
;;;2495   high level if inv_on bit is off.
;;;2496   */
;;;2497   	LCD_CmdWrite(0x8C);
0006e2  208c              MOVS     r0,#0x8c
0006e4  f7fffffe          BL       LCD_CmdWrite
;;;2498   	LCD_DataWrite(WX);
0006e8  b2d0              UXTB     r0,r2
0006ea  f7fffffe          BL       LCD_DataWrite
;;;2499   	LCD_CmdWrite(0x8D);
0006ee  208d              MOVS     r0,#0x8d
0006f0  f7fffffe          BL       LCD_CmdWrite
;;;2500   	LCD_DataWrite(WX>>8);
0006f4  0a10              LSRS     r0,r2,#8
0006f6  f85deb04          POP      {lr}
0006fa  e7fe              B        LCD_DataWrite
;;;2501   }
;;;2502   //[8Eh][8Fh]=========================================================================
                          ENDP

                  Set_Timer1_Count_Buffer PROC
;;;2503   void Set_Timer1_Count_Buffer(uint16_t WX)
0006fc  b500              PUSH     {lr}
;;;2504   {
0006fe  4602              MOV      r2,r0
;;;2505   /*
;;;2506   Timer 0 count buffer register
;;;2507   Count buffer register total has 16 bits.
;;;2508   When timer counter equal to 0 will cause PWM timer reload Count buffer register if reload_en bit set as enable.
;;;2509   It may read back timer counterˇ¦s real time value when PWM timer start.
;;;2510   */
;;;2511   	LCD_CmdWrite(0x8E);
000700  208e              MOVS     r0,#0x8e
000702  f7fffffe          BL       LCD_CmdWrite
;;;2512   	LCD_DataWrite(WX);
000706  b2d0              UXTB     r0,r2
000708  f7fffffe          BL       LCD_DataWrite
;;;2513   	LCD_CmdWrite(0x8F);
00070c  208f              MOVS     r0,#0x8f
00070e  f7fffffe          BL       LCD_CmdWrite
;;;2514   	LCD_DataWrite(WX>>8);
000712  0a10              LSRS     r0,r2,#8
000714  f85deb04          POP      {lr}
000718  e7fe              B        LCD_DataWrite
;;;2515   }
;;;2516   //[90h]=========================================================================
                          ENDP

                  Select_PWM1_Clock_Divided_By_8 PROC
;;;2284   }
;;;2285   void Select_PWM1_Clock_Divided_By_8(void)
00071a  b500              PUSH     {lr}
;;;2286   {
;;;2287   /*
;;;2288   Select MUX input for PWM Timer 1.
;;;2289   00 = 1; 01 = 1/2; 10 = 1/4 ; 11 = 1/8;
;;;2290   */
;;;2291   	uint8_t temp;
;;;2292   	
;;;2293   	LCD_CmdWrite(0x85);
00071c  2085              MOVS     r0,#0x85
00071e  f7fffffe          BL       LCD_CmdWrite
;;;2294   	temp = LCD_DataRead();
000722  f7fffffe          BL       LCD_DataRead
000726  b2c0              UXTB     r0,r0
;;;2295   	temp |= cSetb7;
000728  f0400080          ORR      r0,r0,#0x80
;;;2296   	temp |= cSetb6;
00072c  f0400040          ORR      r0,r0,#0x40
;;;2297   	LCD_DataWrite(temp);
000730  f85deb04          POP      {lr}
000734  e7fe              B        LCD_DataWrite
;;;2298   }
;;;2299   void Select_PWM0_Clock_Divided_By_1(void)
                          ENDP

                  Select_PWM1_Clock_Divided_By_4 PROC
;;;2270   }
;;;2271   void Select_PWM1_Clock_Divided_By_4(void)
000736  b500              PUSH     {lr}
;;;2272   {
;;;2273   /*
;;;2274   Select MUX input for PWM Timer 1.
;;;2275   00 = 1; 01 = 1/2; 10 = 1/4 ; 11 = 1/8;
;;;2276   */
;;;2277   	uint8_t temp;
;;;2278   	
;;;2279   	LCD_CmdWrite(0x85);
000738  2085              MOVS     r0,#0x85
00073a  f7fffffe          BL       LCD_CmdWrite
;;;2280   	temp = LCD_DataRead();
00073e  f7fffffe          BL       LCD_DataRead
;;;2281   	temp |= cSetb7;
000742  f0400080          ORR      r0,r0,#0x80
;;;2282   	temp &= cClrb6;
000746  f00000bf          AND      r0,r0,#0xbf
;;;2283   	LCD_DataWrite(temp);
00074a  f85deb04          POP      {lr}
00074e  e7fe              B        LCD_DataWrite
;;;2284   }
;;;2285   void Select_PWM1_Clock_Divided_By_8(void)
                          ENDP

                  Select_PWM1_Clock_Divided_By_2 PROC
;;;2256   }
;;;2257   void Select_PWM1_Clock_Divided_By_2(void)
000750  b500              PUSH     {lr}
;;;2258   {
;;;2259   /*
;;;2260   Select MUX input for PWM Timer 1.
;;;2261   00 = 1; 01 = 1/2; 10 = 1/4 ; 11 = 1/8;
;;;2262   */
;;;2263   	uint8_t temp;
;;;2264   	
;;;2265   	LCD_CmdWrite(0x85);
000752  2085              MOVS     r0,#0x85
000754  f7fffffe          BL       LCD_CmdWrite
;;;2266   	temp = LCD_DataRead();
000758  f7fffffe          BL       LCD_DataRead
;;;2267   	temp &= cClrb7;
00075c  f000007f          AND      r0,r0,#0x7f
;;;2268   	temp |= cSetb6;
000760  f0400040          ORR      r0,r0,#0x40
;;;2269   	LCD_DataWrite(temp);
000764  f85deb04          POP      {lr}
000768  e7fe              B        LCD_DataWrite
;;;2270   }
;;;2271   void Select_PWM1_Clock_Divided_By_4(void)
                          ENDP

                  Select_PWM1_Clock_Divided_By_1 PROC
;;;2242   //[85h]=========================================================================
;;;2243   void Select_PWM1_Clock_Divided_By_1(void)
00076a  b500              PUSH     {lr}
;;;2244   {
;;;2245   /*
;;;2246   Select MUX input for PWM Timer 1.
;;;2247   00 = 1; 01 = 1/2; 10 = 1/4 ; 11 = 1/8;
;;;2248   */
;;;2249   	uint8_t temp;
;;;2250   	
;;;2251   	LCD_CmdWrite(0x85);
00076c  2085              MOVS     r0,#0x85
00076e  f7fffffe          BL       LCD_CmdWrite
;;;2252   	temp = LCD_DataRead();
000772  f7fffffe          BL       LCD_DataRead
;;;2253   	temp &= cClrb7;
000776  f000007f          AND      r0,r0,#0x7f
;;;2254   	temp &= cClrb6;
00077a  f00000bf          AND      r0,r0,#0xbf
;;;2255   	LCD_DataWrite(temp);
00077e  f85deb04          POP      {lr}
000782  e7fe              B        LCD_DataWrite
;;;2256   }
;;;2257   void Select_PWM1_Clock_Divided_By_2(void)
                          ENDP

                  Select_PWM1 PROC
;;;2371   }
;;;2372   void Select_PWM1(void)
000784  b500              PUSH     {lr}
;;;2373   {
;;;2374   	uint8_t temp;
;;;2375   	
;;;2376   	LCD_CmdWrite(0x85);
000786  2085              MOVS     r0,#0x85
000788  f7fffffe          BL       LCD_CmdWrite
;;;2377   	temp = LCD_DataRead();
00078c  f7fffffe          BL       LCD_DataRead
;;;2378   	temp |= cSetb3;
000790  f0400008          ORR      r0,r0,#8
;;;2379   	temp &= cClrb2;
000794  f00000fb          AND      r0,r0,#0xfb
;;;2380   	LCD_DataWrite(temp);
000798  f85deb04          POP      {lr}
00079c  e7fe              B        LCD_DataWrite
;;;2381   }
;;;2382   //[85h].[bit1][bit0]=========================================================================
                          ENDP

                  LT768_PWM1_Init PROC
;;;296    
;;;297    void LT768_PWM1_Init
00079e  b570              PUSH     {r4-r6,lr}
;;;298    (
;;;299     uint8_t on_off                       // 0Łş˝űÖąPWM0    1ŁşĘąÄÜPWM0
;;;300    ,uint8_t Clock_Divided                // PWMĘ±ÖÓ·ÖĆµ  ČˇÖµ·¶Î§ 0~3(1,1/2,1/4,1/8)
;;;301    ,uint8_t Prescalar                    // Ę±ÖÓ·ÖĆµ     ČˇÖµ·¶Î§ 1~256
;;;302    ,uint16_t Count_Buffer                // ÉčÖĂPWMµÄĘäłöÖÜĆÚ
;;;303    ,uint16_t Compare_Buffer              // ÉčÖĂŐĽżŐ±Č
;;;304    )
;;;305    {
0007a0  4605              MOV      r5,r0
0007a2  460c              MOV      r4,r1
0007a4  9e04              LDR      r6,[sp,#0x10]
;;;306    	Select_PWM1();
0007a6  f7fffffe          BL       Select_PWM1
;;;307    	Set_PWM_Prescaler_1_to_256(Prescalar);
0007aa  4610              MOV      r0,r2
0007ac  f7fffffe          BL       Set_PWM_Prescaler_1_to_256
;;;308     
;;;309    	if(Clock_Divided ==0)	Select_PWM1_Clock_Divided_By_1();
0007b0  b90c              CBNZ     r4,|L1.1974|
0007b2  f7fffffe          BL       Select_PWM1_Clock_Divided_By_1
                  |L1.1974|
;;;310    	if(Clock_Divided ==1)	Select_PWM1_Clock_Divided_By_2();
0007b6  2c01              CMP      r4,#1
0007b8  d101              BNE      |L1.1982|
0007ba  f7fffffe          BL       Select_PWM1_Clock_Divided_By_2
                  |L1.1982|
;;;311    	if(Clock_Divided ==2) Select_PWM1_Clock_Divided_By_4();
0007be  2c02              CMP      r4,#2
0007c0  d101              BNE      |L1.1990|
0007c2  f7fffffe          BL       Select_PWM1_Clock_Divided_By_4
                  |L1.1990|
;;;312    	if(Clock_Divided ==3)	Select_PWM1_Clock_Divided_By_8();
0007c6  2c03              CMP      r4,#3
0007c8  d101              BNE      |L1.1998|
0007ca  f7fffffe          BL       Select_PWM1_Clock_Divided_By_8
                  |L1.1998|
;;;313    
;;;314    	Set_Timer1_Count_Buffer(Count_Buffer); 
0007ce  4618              MOV      r0,r3
0007d0  f7fffffe          BL       Set_Timer1_Count_Buffer
;;;315    	Set_Timer1_Compare_Buffer(Compare_Buffer); 
0007d4  4630              MOV      r0,r6
0007d6  f7fffffe          BL       Set_Timer1_Compare_Buffer
;;;316    
;;;317    	if (on_off == 1)	Start_PWM1(); 
0007da  2d01              CMP      r5,#1
0007dc  d101              BNE      |L1.2018|
0007de  f7fffffe          BL       Start_PWM1
                  |L1.2018|
;;;318    	if (on_off == 0)	Stop_PWM1();
0007e2  2d00              CMP      r5,#0
0007e4  d102              BNE      |L1.2028|
0007e6  e8bd4070          POP      {r4-r6,lr}
0007ea  e7fe              B        Stop_PWM1
                  |L1.2028|
;;;319    }
0007ec  bd70              POP      {r4-r6,pc}
;;;320    
                          ENDP

                  LT768_PWM1_Duty PROC
;;;321    
;;;322    void LT768_PWM1_Duty(uint16_t Compare_Buffer)
0007ee  e7fe              B        Set_Timer1_Compare_Buffer
;;;323    {
;;;324    	Set_Timer1_Compare_Buffer(Compare_Buffer);
;;;325    }
;;;326    
                          ENDP

                  LCD_RegisterRead PROC
;;;341    //---------------------//
;;;342    uint8_t LCD_RegisterRead(uint8_t Cmd)
0007f0  b500              PUSH     {lr}
;;;343    {
;;;344    	uint8_t temp;
;;;345    	
;;;346    	LCD_CmdWrite(Cmd);
0007f2  f7fffffe          BL       LCD_CmdWrite
;;;347    	temp=LCD_DataRead();
0007f6  f7fffffe          BL       LCD_DataRead
0007fa  b2c0              UXTB     r0,r0
;;;348    	return temp;
;;;349    }
0007fc  bd00              POP      {pc}
;;;350    
                          ENDP

                  Check_Mem_WR_FIFO_not_Full PROC
;;;354    
;;;355    void Check_Mem_WR_FIFO_not_Full(void)
0007fe  b500              PUSH     {lr}
                  |L1.2048|
;;;356    {
;;;357    /*	0: Memory Write FIFO is not full.
;;;358    	1: Memory Write FIFO is full.		*/
;;;359    	do
;;;360    	{
;;;361    		
;;;362    	}
;;;363    	while( LCD_StatusRead()&0x80 );
000800  f7fffffe          BL       LCD_StatusRead
000804  0600              LSLS     r0,r0,#24
000806  d4fb              BMI      |L1.2048|
;;;364    }
000808  bd00              POP      {pc}
;;;365    
                          ENDP

                  Check_2D_Busy PROC
;;;366    void Check_2D_Busy(void)
00080a  b500              PUSH     {lr}
                  |L1.2060|
;;;367    {
;;;368    	do
;;;369    	{
;;;370    		
;;;371    	}
;;;372    	while( LCD_StatusRead()&0x08 );
00080c  f7fffffe          BL       LCD_StatusRead
000810  0700              LSLS     r0,r0,#28
000812  d4fb              BMI      |L1.2060|
;;;373    }
000814  bd00              POP      {pc}
;;;374    void Check_SDRAM_Ready(void)
                          ENDP

                  Check_Mem_WR_FIFO_Empty PROC
;;;384    }
;;;385    void Check_Mem_WR_FIFO_Empty(void)
000816  b500              PUSH     {lr}
                  |L1.2072|
;;;386    {
;;;387    /*	0: Memory Write FIFO is not empty.
;;;388    	1: Memory Write FIFO is empty.		*/	
;;;389    	do
;;;390    	{
;;;391    		
;;;392    	}
;;;393    	while( (LCD_StatusRead()&0x40) == 0x00 );
000818  f7fffffe          BL       LCD_StatusRead
00081c  0640              LSLS     r0,r0,#25
00081e  d5fb              BPL      |L1.2072|
;;;394    }
000820  bd00              POP      {pc}
;;;395    void Check_Busy_Draw(void)
                          ENDP

                  Check_Busy_Draw PROC
000822  b500              PUSH     {lr}
                  |L1.2084|
;;;396    {
;;;397    	uint8_t temp;
;;;398    	do
;;;399    	{
;;;400    		temp=LCD_StatusRead();
000824  f7fffffe          BL       LCD_StatusRead
;;;401    	}
;;;402    	while(temp&0x08);
000828  0700              LSLS     r0,r0,#28
00082a  d4fb              BMI      |L1.2084|
;;;403    
;;;404    }
00082c  bd00              POP      {pc}
;;;405    
                          ENDP

                  LT768_SW_Reset PROC
;;;407    
;;;408    void LT768_SW_Reset(void)//IC ResetˇA¦ý
00082e  b500              PUSH     {lr}
;;;409    {
;;;410    	uint8_t temp;
;;;411    
;;;412    	LCD_CmdWrite(0x00);
000830  2000              MOVS     r0,#0
000832  f7fffffe          BL       LCD_CmdWrite
;;;413    	temp = LCD_DataRead();
000836  f7fffffe          BL       LCD_DataRead
00083a  b2c0              UXTB     r0,r0
;;;414    	temp |= 0x01;
00083c  f0400001          ORR      r0,r0,#1
;;;415    	LCD_DataWrite(temp);
000840  f7fffffe          BL       LCD_DataWrite
                  |L1.2116|
;;;416    
;;;417        do
;;;418        {
;;;419    	    temp = LCD_DataRead();
000844  f7fffffe          BL       LCD_DataRead
;;;420        }
;;;421        while( temp&0x01 );
000848  07c0              LSLS     r0,r0,#31
00084a  d1fb              BNE      |L1.2116|
;;;422    }
00084c  bd00              POP      {pc}
;;;423    
                          ENDP

                  Enable_SFlash_SPI PROC
;;;440    
;;;441    void Enable_SFlash_SPI(void)
00084e  b500              PUSH     {lr}
;;;442    {
;;;443    /*  Serial Flash SPI Interface Enable/Disable
;;;444        0: Disable
;;;445        1: Enable*/
;;;446    	uint8_t temp;
;;;447    	LCD_CmdWrite(0x01);
000850  2001              MOVS     r0,#1
000852  f7fffffe          BL       LCD_CmdWrite
;;;448    	temp = LCD_DataRead();
000856  f7fffffe          BL       LCD_DataRead
00085a  b2c0              UXTB     r0,r0
;;;449    	temp |= cSetb1;
00085c  f0400002          ORR      r0,r0,#2
;;;450    	LCD_DataWrite(temp);     
000860  f85deb04          POP      {lr}
000864  f7ffbffe          B.W      LCD_DataWrite
;;;451    }
;;;452    
                          ENDP

                  Disable_SFlash_SPI PROC
;;;453    void Disable_SFlash_SPI(void)
000868  b500              PUSH     {lr}
;;;454    {
;;;455    /*  Serial Flash SPI Interface Enable/Disable
;;;456        0: Disable
;;;457        1: Enable*/
;;;458    	uint8_t temp;
;;;459    	LCD_CmdWrite(0x01);
00086a  2001              MOVS     r0,#1
00086c  f7fffffe          BL       LCD_CmdWrite
;;;460    	temp = LCD_DataRead();
000870  f7fffffe          BL       LCD_DataRead
;;;461    	temp &= cClrb1;
000874  f00000fd          AND      r0,r0,#0xfd
;;;462    	LCD_DataWrite(temp);     
000878  f85deb04          POP      {lr}
00087c  f7ffbffe          B.W      LCD_DataWrite
;;;463    }
;;;464    void Host_Bus_16bit(void)
                          ENDP

                  Text_Mode PROC
;;;505    }
;;;506    void Text_Mode(void)
000880  b500              PUSH     {lr}
;;;507    {
;;;508    	uint8_t temp;
;;;509    	LCD_CmdWrite(0x03);
000882  2003              MOVS     r0,#3
000884  f7fffffe          BL       LCD_CmdWrite
;;;510    	temp = LCD_DataRead();
000888  f7fffffe          BL       LCD_DataRead
00088c  b2c0              UXTB     r0,r0
;;;511        temp |= cSetb2;
00088e  f0400004          ORR      r0,r0,#4
;;;512    	LCD_DataWrite(temp);
000892  f85deb04          POP      {lr}
000896  f7ffbffe          B.W      LCD_DataWrite
;;;513    }
;;;514    void Memory_Select_SDRAM(void)
                          ENDP

                  Memory_Select_Graphic_Cursor_RAM PROC
;;;522    }
;;;523    void Memory_Select_Graphic_Cursor_RAM(void)
00089a  b500              PUSH     {lr}
;;;524    {
;;;525    	unsigned char temp;
;;;526    	LCD_CmdWrite(0x03);
00089c  2003              MOVS     r0,#3
00089e  f7fffffe          BL       LCD_CmdWrite
;;;527    	temp = LCD_DataRead();
0008a2  f7fffffe          BL       LCD_DataRead
;;;528        temp |= cSetb1;
0008a6  f0400002          ORR      r0,r0,#2
;;;529        temp &= cClrb0;
0008aa  f00000fe          AND      r0,r0,#0xfe
;;;530    	LCD_DataWrite(temp);
0008ae  f85deb04          POP      {lr}
0008b2  f7ffbffe          B.W      LCD_DataWrite
;;;531    }
;;;532    
                          ENDP

                  Select_Main_Window_16bpp PROC
;;;542    
;;;543    void Select_Main_Window_16bpp(void)
0008b6  b500              PUSH     {lr}
;;;544    {
;;;545    /*
;;;546    Main Window Color Depth Setting
;;;547    00b: 8-bpp generic TFT, i.e. 256 colors.
;;;548    01b: 16-bpp generic TFT, i.e. 65K colors.
;;;549    1xb: 24-bpp generic TFT, i.e. 1.67M colors.
;;;550    */
;;;551    	uint8_t temp;
;;;552    	LCD_CmdWrite(0x10);
0008b8  2010              MOVS     r0,#0x10
0008ba  f7fffffe          BL       LCD_CmdWrite
;;;553    	temp = LCD_DataRead();
0008be  f7fffffe          BL       LCD_DataRead
;;;554        temp &= cClrb3;
0008c2  f00000f7          AND      r0,r0,#0xf7
;;;555        temp |= cSetb2;
0008c6  f0400004          ORR      r0,r0,#4
;;;556    	LCD_DataWrite(temp);
0008ca  f85deb04          POP      {lr}
0008ce  f7ffbffe          B.W      LCD_DataWrite
;;;557    }
;;;558    //[10h]=========================================================================
                          ENDP

                  Enable_PIP1 PROC
;;;559    void Enable_PIP1(void)
0008d2  b500              PUSH     {lr}
;;;560    {
;;;561    /*
;;;562    PIP 1 window Enable/Disable
;;;563    0 : PIP 1 window disable.
;;;564    1 : PIP 1 window enable
;;;565    PIP 1 window always on top of PIP 2 window.
;;;566    */
;;;567    	unsigned char temp;
;;;568    	LCD_CmdWrite(0x10);
0008d4  2010              MOVS     r0,#0x10
0008d6  f7fffffe          BL       LCD_CmdWrite
;;;569    	temp = LCD_DataRead();
0008da  f7fffffe          BL       LCD_DataRead
0008de  b2c0              UXTB     r0,r0
;;;570        temp |= cSetb7;
0008e0  f0400080          ORR      r0,r0,#0x80
;;;571    	LCD_DataWrite(temp);
0008e4  f85deb04          POP      {lr}
0008e8  f7ffbffe          B.W      LCD_DataWrite
;;;572    }
;;;573    void Disable_PIP1(void)
                          ENDP

                  Disable_PIP1 PROC
0008ec  b500              PUSH     {lr}
;;;574    {
;;;575    /*
;;;576    PIP 1 window Enable/Disable
;;;577    0 : PIP 1 window disable.
;;;578    1 : PIP 1 window enable
;;;579    PIP 1 window always on top of PIP 2 window.
;;;580    */
;;;581    	unsigned char temp;
;;;582    	LCD_CmdWrite(0x10);
0008ee  2010              MOVS     r0,#0x10
0008f0  f7fffffe          BL       LCD_CmdWrite
;;;583    	temp = LCD_DataRead();
0008f4  f7fffffe          BL       LCD_DataRead
;;;584        temp &= cClrb7;
0008f8  f000007f          AND      r0,r0,#0x7f
;;;585    	LCD_DataWrite(temp);
0008fc  f85deb04          POP      {lr}
000900  f7ffbffe          B.W      LCD_DataWrite
;;;586    }
;;;587    void Enable_PIP2(void)
                          ENDP

                  Enable_PIP2 PROC
000904  b500              PUSH     {lr}
;;;588    {
;;;589    /*
;;;590    PIP 2 window Enable/Disable
;;;591    0 : PIP 2 window disable.
;;;592    1 : PIP 2 window enable
;;;593    PIP 1 window always on top of PIP 2 window.
;;;594    */
;;;595    	unsigned char temp;
;;;596    	LCD_CmdWrite(0x10);
000906  2010              MOVS     r0,#0x10
000908  f7fffffe          BL       LCD_CmdWrite
;;;597    	temp = LCD_DataRead();
00090c  f7fffffe          BL       LCD_DataRead
000910  b2c0              UXTB     r0,r0
;;;598        temp |= cSetb6;
000912  f0400040          ORR      r0,r0,#0x40
;;;599    	LCD_DataWrite(temp);
000916  f85deb04          POP      {lr}
00091a  f7ffbffe          B.W      LCD_DataWrite
00091e  0000              DCW      0x0000
                  |L1.2336|
                          DCD      ||.data||
                          ENDP

                  Disable_PIP2 PROC
;;;600    }
;;;601    void Disable_PIP2(void)
000924  b500              PUSH     {lr}
;;;602    {
;;;603    /*
;;;604    PIP 2 window Enable/Disable
;;;605    0 : PIP 2 window disable.
;;;606    1 : PIP 2 window enable
;;;607    PIP 1 window always on top of PIP 2 window.
;;;608    */
;;;609    	unsigned char temp;
;;;610    	LCD_CmdWrite(0x10);
000926  2010              MOVS     r0,#0x10
000928  f7fffffe          BL       LCD_CmdWrite
;;;611    	temp = LCD_DataRead();
00092c  f7fffffe          BL       LCD_DataRead
;;;612        temp &= cClrb6;
000930  f00000bf          AND      r0,r0,#0xbf
;;;613    	LCD_DataWrite(temp);
000934  f85deb04          POP      {lr}
000938  f7ffbffe          B.W      LCD_DataWrite
;;;614    }
;;;615    void Select_PIP1_Parameter(void)
                          ENDP

                  Select_PIP1_Parameter PROC
00093c  b500              PUSH     {lr}
;;;616    {
;;;617    /*
;;;618    0: To configure PIP 1ˇ¦s parameters.
;;;619    1: To configure PIP 2ˇ¦s parameters..
;;;620    */
;;;621    	unsigned char temp;
;;;622    	LCD_CmdWrite(0x10);
00093e  2010              MOVS     r0,#0x10
000940  f7fffffe          BL       LCD_CmdWrite
;;;623    	temp = LCD_DataRead();
000944  f7fffffe          BL       LCD_DataRead
;;;624        temp &= cClrb4;
000948  f00000ef          AND      r0,r0,#0xef
;;;625    	LCD_DataWrite(temp);
00094c  f85deb04          POP      {lr}
000950  f7ffbffe          B.W      LCD_DataWrite
;;;626    }
;;;627    void Select_PIP2_Parameter(void)
                          ENDP

                  Select_PIP2_Parameter PROC
000954  b500              PUSH     {lr}
;;;628    {
;;;629    /*
;;;630    0: To configure PIP 1ˇ¦s parameters.
;;;631    1: To configure PIP 2ˇ¦s parameters..
;;;632    */
;;;633    	unsigned char temp;
;;;634    	LCD_CmdWrite(0x10);
000956  2010              MOVS     r0,#0x10
000958  f7fffffe          BL       LCD_CmdWrite
;;;635    	temp = LCD_DataRead();
00095c  f7fffffe          BL       LCD_DataRead
000960  b2c0              UXTB     r0,r0
;;;636        temp |= cSetb4;
000962  f0400010          ORR      r0,r0,#0x10
;;;637    	LCD_DataWrite(temp);
000966  f85deb04          POP      {lr}
00096a  f7ffbffe          B.W      LCD_DataWrite
;;;638    }
;;;639    //[11h]=========================================================================
                          ENDP

                  Select_PIP2_Window_8bpp PROC
;;;640    void Select_PIP2_Window_8bpp(void)
00096e  b500              PUSH     {lr}
;;;641    {
;;;642    /*
;;;643    PIP 1 Window Color Depth Setting
;;;644    00b: 8-bpp generic TFT, i.e. 256 colors.
;;;645    01b: 16-bpp generic TFT, i.e. 65K colors.
;;;646    1xb: 24-bpp generic TFT, i.e. 1.67M colors.
;;;647    */
;;;648    	unsigned char temp;
;;;649    	LCD_CmdWrite(0x11);
000970  2011              MOVS     r0,#0x11
000972  f7fffffe          BL       LCD_CmdWrite
;;;650    	temp = LCD_DataRead();
000976  f7fffffe          BL       LCD_DataRead
;;;651        temp &= cClrb1;
00097a  f00000fd          AND      r0,r0,#0xfd
;;;652        temp &= cClrb0;
00097e  f00000fe          AND      r0,r0,#0xfe
;;;653    	LCD_DataWrite(temp);
000982  f85deb04          POP      {lr}
000986  f7ffbffe          B.W      LCD_DataWrite
;;;654    }
;;;655    void Select_PIP2_Window_16bpp(void)
                          ENDP

                  Select_PIP2_Window_16bpp PROC
00098a  b500              PUSH     {lr}
;;;656    {
;;;657    /*
;;;658    PIP 1 Window Color Depth Setting
;;;659    00b: 8-bpp generic TFT, i.e. 256 colors.
;;;660    01b: 16-bpp generic TFT, i.e. 65K colors.
;;;661    1xb: 24-bpp generic TFT, i.e. 1.67M colors.
;;;662    */
;;;663    	unsigned char temp;
;;;664    	LCD_CmdWrite(0x11);
00098c  2011              MOVS     r0,#0x11
00098e  f7fffffe          BL       LCD_CmdWrite
;;;665    	temp = LCD_DataRead();
000992  f7fffffe          BL       LCD_DataRead
;;;666        temp &= cClrb1;
000996  f00000fd          AND      r0,r0,#0xfd
;;;667        temp |= cSetb0;
00099a  f0400001          ORR      r0,r0,#1
;;;668    	LCD_DataWrite(temp);
00099e  f85deb04          POP      {lr}
0009a2  f7ffbffe          B.W      LCD_DataWrite
;;;669    }
;;;670    void Select_PIP2_Window_24bpp(void)
                          ENDP

                  Select_PIP2_Window_24bpp PROC
0009a6  b500              PUSH     {lr}
;;;671    {
;;;672    /*
;;;673    PIP 1 Window Color Depth Setting
;;;674    00b: 8-bpp generic TFT, i.e. 256 colors.
;;;675    01b: 16-bpp generic TFT, i.e. 65K colors.
;;;676    1xb: 24-bpp generic TFT, i.e. 1.67M colors.
;;;677    */
;;;678    	unsigned char temp;
;;;679    	LCD_CmdWrite(0x11);
0009a8  2011              MOVS     r0,#0x11
0009aa  f7fffffe          BL       LCD_CmdWrite
;;;680    	temp = LCD_DataRead();
0009ae  f7fffffe          BL       LCD_DataRead
;;;681        temp |= cSetb1;
0009b2  f0400002          ORR      r0,r0,#2
;;;682        temp &= cClrb0;
0009b6  f00000fe          AND      r0,r0,#0xfe
;;;683    	LCD_DataWrite(temp);
0009ba  f85deb04          POP      {lr}
0009be  f7ffbffe          B.W      LCD_DataWrite
;;;684    }
;;;685    void Select_PIP1_Window_8bpp(void)
                          ENDP

                  Select_PIP1_Window_8bpp PROC
0009c2  b500              PUSH     {lr}
;;;686    {
;;;687    /*
;;;688    PIP 2 Window Color Depth Setting
;;;689    00b: 8-bpp generic TFT, i.e. 256 colors.
;;;690    01b: 16-bpp generic TFT, i.e. 65K colors.
;;;691    1xb: 24-bpp generic TFT, i.e. 1.67M colors.
;;;692    */
;;;693    	unsigned char temp;
;;;694    	LCD_CmdWrite(0x11);
0009c4  2011              MOVS     r0,#0x11
0009c6  f7fffffe          BL       LCD_CmdWrite
;;;695    	temp = LCD_DataRead();
0009ca  f7fffffe          BL       LCD_DataRead
;;;696        temp &= cClrb3;
0009ce  f00000f7          AND      r0,r0,#0xf7
;;;697        temp &= cClrb2;
0009d2  f00000fb          AND      r0,r0,#0xfb
;;;698    	LCD_DataWrite(temp);
0009d6  f85deb04          POP      {lr}
0009da  f7ffbffe          B.W      LCD_DataWrite
;;;699    }
;;;700    void Select_PIP1_Window_16bpp(void)
                          ENDP

                  Select_PIP1_Window_16bpp PROC
0009de  b500              PUSH     {lr}
;;;701    {
;;;702    /*
;;;703    PIP 2 Window Color Depth Setting
;;;704    00b: 8-bpp generic TFT, i.e. 256 colors.
;;;705    01b: 16-bpp generic TFT, i.e. 65K colors.
;;;706    1xb: 24-bpp generic TFT, i.e. 1.67M colors.
;;;707    */
;;;708    	unsigned char temp;
;;;709    	LCD_CmdWrite(0x11);
0009e0  2011              MOVS     r0,#0x11
0009e2  f7fffffe          BL       LCD_CmdWrite
;;;710    	temp = LCD_DataRead();
0009e6  f7fffffe          BL       LCD_DataRead
;;;711        temp &= cClrb3;
0009ea  f00000f7          AND      r0,r0,#0xf7
;;;712        temp |= cSetb2;
0009ee  f0400004          ORR      r0,r0,#4
;;;713    	LCD_DataWrite(temp);
0009f2  f85deb04          POP      {lr}
0009f6  f7ffbffe          B.W      LCD_DataWrite
;;;714    }
;;;715    void Select_PIP1_Window_24bpp(void)
                          ENDP

                  Select_PIP1_Window_24bpp PROC
0009fa  b500              PUSH     {lr}
;;;716    {
;;;717    /*
;;;718    PIP 2 Window Color Depth Setting
;;;719    00b: 8-bpp generic TFT, i.e. 256 colors.
;;;720    01b: 16-bpp generic TFT, i.e. 65K colors.
;;;721    1xb: 24-bpp generic TFT, i.e. 1.67M colors.
;;;722    */
;;;723    	unsigned char temp;
;;;724    	LCD_CmdWrite(0x11);
0009fc  2011              MOVS     r0,#0x11
0009fe  f7fffffe          BL       LCD_CmdWrite
;;;725    	temp = LCD_DataRead();
000a02  f7fffffe          BL       LCD_DataRead
;;;726        temp |= cSetb3;
000a06  f0400008          ORR      r0,r0,#8
;;;727        temp &= cClrb2;
000a0a  f00000fb          AND      r0,r0,#0xfb
;;;728    	LCD_DataWrite(temp);
000a0e  f85deb04          POP      {lr}
000a12  f7ffbffe          B.W      LCD_DataWrite
;;;729    }
;;;730    
                          ENDP

                  Display_ON PROC
;;;745    }
;;;746    void Display_ON(void)
000a16  b500              PUSH     {lr}
;;;747    {
;;;748    /*	
;;;749    Display ON/OFF
;;;750    0b: Display Off.
;;;751    1b: Display On.
;;;752    */
;;;753    	uint8_t temp;
;;;754    	
;;;755    	LCD_CmdWrite(0x12);
000a18  2012              MOVS     r0,#0x12
000a1a  f7fffffe          BL       LCD_CmdWrite
;;;756    	temp = LCD_DataRead();
000a1e  f7fffffe          BL       LCD_DataRead
000a22  b2c0              UXTB     r0,r0
;;;757    	temp |= cSetb6;
000a24  f0400040          ORR      r0,r0,#0x40
;;;758    	LCD_DataWrite(temp);
000a28  f85deb04          POP      {lr}
000a2c  f7ffbffe          B.W      LCD_DataWrite
;;;759    }
;;;760    void Display_OFF(void)
                          ENDP

                  Display_OFF PROC
000a30  b500              PUSH     {lr}
;;;761    {
;;;762    /*	
;;;763    Display ON/OFF
;;;764    0b: Display Off.
;;;765    1b: Display On.
;;;766    */
;;;767    	unsigned char temp;
;;;768    	
;;;769    	LCD_CmdWrite(0x12);
000a32  2012              MOVS     r0,#0x12
000a34  f7fffffe          BL       LCD_CmdWrite
;;;770    	temp = LCD_DataRead();
000a38  f7fffffe          BL       LCD_DataRead
;;;771    	temp &= cClrb6;
000a3c  f00000bf          AND      r0,r0,#0xbf
;;;772    	LCD_DataWrite(temp);
000a40  f85deb04          POP      {lr}
000a44  f7ffbffe          B.W      LCD_DataWrite
;;;773    }
;;;774    void Color_Bar_ON(void)
                          ENDP

                  Color_Bar_ON PROC
000a48  b500              PUSH     {lr}
;;;775    {
;;;776    /*	
;;;777    Display Test Color Bar
;;;778    0b: Disable.
;;;779    1b: Enable.
;;;780    */
;;;781    	unsigned char temp;
;;;782    	
;;;783    	LCD_CmdWrite(0x12);
000a4a  2012              MOVS     r0,#0x12
000a4c  f7fffffe          BL       LCD_CmdWrite
;;;784    	temp = LCD_DataRead();
000a50  f7fffffe          BL       LCD_DataRead
000a54  b2c0              UXTB     r0,r0
;;;785    	temp |= cSetb5;
000a56  f0400020          ORR      r0,r0,#0x20
;;;786    	LCD_DataWrite(temp);
000a5a  f85deb04          POP      {lr}
000a5e  f7ffbffe          B.W      LCD_DataWrite
;;;787    }
;;;788    void Color_Bar_OFF(void)
                          ENDP

                  Color_Bar_OFF PROC
000a62  b500              PUSH     {lr}
;;;789    {
;;;790    /*	
;;;791    Display Test Color Bar
;;;792    0b: Disable.
;;;793    1b: Enable.
;;;794    */
;;;795    	unsigned char temp;
;;;796    	
;;;797    	LCD_CmdWrite(0x12);
000a64  2012              MOVS     r0,#0x12
000a66  f7fffffe          BL       LCD_CmdWrite
;;;798    	temp = LCD_DataRead();
000a6a  f7fffffe          BL       LCD_DataRead
;;;799    	temp &= cClrb5;
000a6e  f00000df          AND      r0,r0,#0xdf
;;;800    	LCD_DataWrite(temp);
000a72  f85deb04          POP      {lr}
000a76  f7ffbffe          B.W      LCD_DataWrite
;;;801    }
;;;802    void VSCAN_T_to_B(void)
                          ENDP

                  Main_Image_Start_Address PROC
;;;1058   //[20h][21h][22h][23h]=========================================================================
;;;1059   void Main_Image_Start_Address(unsigned long Addr)	
000a7a  b500              PUSH     {lr}
;;;1060   {
000a7c  4603              MOV      r3,r0
;;;1061   /*
;;;1062   [20h] Main Image Start Address[7:2]
;;;1063   [21h] Main Image Start Address[15:8]
;;;1064   [22h] Main Image Start Address [23:16]
;;;1065   [23h] Main Image Start Address [31:24]
;;;1066   */
;;;1067   	LCD_RegisterWrite(0x20,Addr);
000a7e  b2d9              UXTB     r1,r3
000a80  2020              MOVS     r0,#0x20
000a82  f7fffffe          BL       LCD_RegisterWrite
;;;1068   	LCD_RegisterWrite(0x21,Addr>>8);
000a86  f3c32107          UBFX     r1,r3,#8,#8
000a8a  2021              MOVS     r0,#0x21
000a8c  f7fffffe          BL       LCD_RegisterWrite
;;;1069   	LCD_RegisterWrite(0x22,Addr>>16);
000a90  f3c34107          UBFX     r1,r3,#16,#8
000a94  2022              MOVS     r0,#0x22
000a96  f7fffffe          BL       LCD_RegisterWrite
;;;1070   	LCD_RegisterWrite(0x23,Addr>>24);
000a9a  0e19              LSRS     r1,r3,#24
000a9c  2023              MOVS     r0,#0x23
000a9e  f85deb04          POP      {lr}
000aa2  f7ffbffe          B.W      LCD_RegisterWrite
;;;1071   }
;;;1072   //[24h][25h]=========================================================================
                          ENDP

                  Main_Image_Width PROC
;;;1073   void Main_Image_Width(uint16_t WX)	
000aa6  b500              PUSH     {lr}
;;;1074   {
000aa8  4603              MOV      r3,r0
;;;1075   /*
;;;1076   [24h] Main Image Width [7:0]
;;;1077   [25h] Main Image Width [12:8]
;;;1078   Unit: Pixel.
;;;1079   It must be divisible by 4. MIW Bit [1:0] tie to ˇ§0ˇ¨ internally.
;;;1080   The value is physical pixel number. Maximum value is 8188 pixels
;;;1081   */
;;;1082   	LCD_RegisterWrite(0x24,WX);
000aaa  b2d9              UXTB     r1,r3
000aac  2024              MOVS     r0,#0x24
000aae  f7fffffe          BL       LCD_RegisterWrite
;;;1083   	LCD_RegisterWrite(0x25,WX>>8);
000ab2  0a19              LSRS     r1,r3,#8
000ab4  2025              MOVS     r0,#0x25
000ab6  f85deb04          POP      {lr}
000aba  f7ffbffe          B.W      LCD_RegisterWrite
;;;1084   }
;;;1085   //[26h][27h][28h][29h]=========================================================================
                          ENDP

                  Main_Window_Start_XY PROC
;;;1086   void Main_Window_Start_XY(uint16_t WX,uint16_t HY)	
000abe  b510              PUSH     {r4,lr}
;;;1087   {
000ac0  4603              MOV      r3,r0
000ac2  460c              MOV      r4,r1
;;;1088   /*
;;;1089   [26h] Main Window Upper-Left corner X-coordination [7:0]
;;;1090   [27h] Main Window Upper-Left corner X-coordination [12:8]
;;;1091   Reference Main Image coordination.
;;;1092   Unit: Pixel
;;;1093   It must be divisible by 4. MWULX Bit [1:0] tie to ˇ§0ˇ¨ internally.
;;;1094   X-axis coordination plus Horizontal display width cannot large than 8188.
;;;1095   
;;;1096   [28h] Main Window Upper-Left corner Y-coordination [7:0]
;;;1097   [29h] Main Window Upper-Left corner Y-coordination [12:8]
;;;1098   Reference Main Image coordination.
;;;1099   Unit: Pixel
;;;1100   Range is between 0 and 8191.
;;;1101   */
;;;1102   	LCD_RegisterWrite(0x26,WX);
000ac4  b2d9              UXTB     r1,r3
000ac6  2026              MOVS     r0,#0x26
000ac8  f7fffffe          BL       LCD_RegisterWrite
;;;1103   	LCD_RegisterWrite(0x27,WX>>8);
000acc  0a19              LSRS     r1,r3,#8
000ace  2027              MOVS     r0,#0x27
000ad0  f7fffffe          BL       LCD_RegisterWrite
;;;1104   
;;;1105   	LCD_RegisterWrite(0x28,HY);
000ad4  b2e1              UXTB     r1,r4
000ad6  2028              MOVS     r0,#0x28
000ad8  f7fffffe          BL       LCD_RegisterWrite
;;;1106   	LCD_RegisterWrite(0x29,HY>>8);
000adc  0a21              LSRS     r1,r4,#8
000ade  e8bd4010          POP      {r4,lr}
000ae2  2029              MOVS     r0,#0x29
000ae4  f7ffbffe          B.W      LCD_RegisterWrite
;;;1107   }
;;;1108   //[2Ah][2Bh][2Ch][2Dh]=========================================================================
                          ENDP

                  PIP_Display_Start_XY PROC
;;;1109   void PIP_Display_Start_XY(unsigned short WX,unsigned short HY)	
000ae8  b510              PUSH     {r4,lr}
;;;1110   {
000aea  4603              MOV      r3,r0
000aec  460c              MOV      r4,r1
;;;1111   /*
;;;1112   [2Ah] PIP Window Display Upper-Left corner X-coordination [7:0]
;;;1113   [2Bh] PIP Window Display Upper-Left corner X-coordination [12:8]
;;;1114   Reference Main Window coordination.
;;;1115   Unit: Pixel
;;;1116   It must be divisible by 4. PWDULX Bit [1:0] tie to ˇ§0ˇ¨ internally.
;;;1117   X-axis coordination should less than horizontal display width.
;;;1118   According to bit of Select Configure PIP 1 or 2 Windowˇ¦s parameters. 
;;;1119   Function bit will be configured for relative PIP window.
;;;1120   
;;;1121   [2Ch] PIP Window Display Upper-Left corner Y-coordination [7:0]
;;;1122   [2Dh] PIP Window Display Upper-Left corner Y-coordination [12:8]
;;;1123   Reference Main Window coordination.
;;;1124   Unit: Pixel
;;;1125   Y-axis coordination should less than vertical display height.
;;;1126   According to bit of Select Configure PIP 1 or 2 Windowˇ¦s parameters.
;;;1127   Function bit will be configured for relative PIP window.
;;;1128   */
;;;1129   	LCD_RegisterWrite(0x2A,WX);
000aee  b2d9              UXTB     r1,r3
000af0  202a              MOVS     r0,#0x2a
000af2  f7fffffe          BL       LCD_RegisterWrite
;;;1130   	LCD_RegisterWrite(0x2B,WX>>8);
000af6  0a19              LSRS     r1,r3,#8
000af8  202b              MOVS     r0,#0x2b
000afa  f7fffffe          BL       LCD_RegisterWrite
;;;1131   	
;;;1132   	LCD_RegisterWrite(0x2C,HY);
000afe  b2e1              UXTB     r1,r4
000b00  202c              MOVS     r0,#0x2c
000b02  f7fffffe          BL       LCD_RegisterWrite
;;;1133   	LCD_RegisterWrite(0x2D,HY>>8);
000b06  0a21              LSRS     r1,r4,#8
000b08  e8bd4010          POP      {r4,lr}
000b0c  202d              MOVS     r0,#0x2d
000b0e  f7ffbffe          B.W      LCD_RegisterWrite
;;;1134   }
;;;1135   //[2Eh][2Fh][30h][31h]=========================================================================
                          ENDP

                  PIP_Image_Start_Address PROC
;;;1136   void PIP_Image_Start_Address(unsigned long Addr)	
000b12  b500              PUSH     {lr}
;;;1137   {
000b14  4603              MOV      r3,r0
;;;1138   /*
;;;1139   [2Eh] PIP Image Start Address[7:2]
;;;1140   [2Fh] PIP Image Start Address[15:8]
;;;1141   [30h] PIP Image Start Address [23:16]
;;;1142   [31h] PIP Image Start Address [31:24]
;;;1143   */
;;;1144   	LCD_RegisterWrite(0x2E,Addr);
000b16  b2d9              UXTB     r1,r3
000b18  202e              MOVS     r0,#0x2e
000b1a  f7fffffe          BL       LCD_RegisterWrite
;;;1145   	LCD_RegisterWrite(0x2F,Addr>>8);
000b1e  f3c32107          UBFX     r1,r3,#8,#8
000b22  202f              MOVS     r0,#0x2f
000b24  f7fffffe          BL       LCD_RegisterWrite
;;;1146   	LCD_RegisterWrite(0x30,Addr>>16);
000b28  f3c34107          UBFX     r1,r3,#16,#8
000b2c  2030              MOVS     r0,#0x30
000b2e  f7fffffe          BL       LCD_RegisterWrite
;;;1147   	LCD_RegisterWrite(0x31,Addr>>24);
000b32  0e19              LSRS     r1,r3,#24
000b34  2031              MOVS     r0,#0x31
000b36  f85deb04          POP      {lr}
000b3a  f7ffbffe          B.W      LCD_RegisterWrite
;;;1148   }
;;;1149   //[32h][33h]=========================================================================
                          ENDP

                  PIP_Image_Width PROC
;;;1150   void PIP_Image_Width(unsigned short WX)	
000b3e  b500              PUSH     {lr}
;;;1151   {
000b40  4603              MOV      r3,r0
;;;1152   /*
;;;1153   [32h] PIP Image Width [7:0]
;;;1154   [33h] PIP Image Width [12:8]
;;;1155   Unit: Pixel.
;;;1156   It must be divisible by 4. PIW Bit [1:0] tie to ˇ§0ˇ¨ internally.
;;;1157   The value is physical pixel number.
;;;1158   This width should less than horizontal display width.
;;;1159   According to bit of Select Configure PIP 1 or 2 Windowˇ¦s parameters.
;;;1160   Function bit will be configured for relative PIP window.
;;;1161   */
;;;1162   	LCD_RegisterWrite(0x32,WX);
000b42  b2d9              UXTB     r1,r3
000b44  2032              MOVS     r0,#0x32
000b46  f7fffffe          BL       LCD_RegisterWrite
;;;1163   	LCD_RegisterWrite(0x33,WX>>8);
000b4a  0a19              LSRS     r1,r3,#8
000b4c  2033              MOVS     r0,#0x33
000b4e  f85deb04          POP      {lr}
000b52  f7ffbffe          B.W      LCD_RegisterWrite
;;;1164   }
;;;1165   //[34h][35h][36h][37h]=========================================================================
                          ENDP

                  PIP_Window_Image_Start_XY PROC
;;;1166   void PIP_Window_Image_Start_XY(unsigned short WX,unsigned short HY)	
000b56  b510              PUSH     {r4,lr}
;;;1167   {
000b58  4603              MOV      r3,r0
000b5a  460c              MOV      r4,r1
;;;1168   /*
;;;1169   [34h] PIP 1 or 2 Window Image Upper-Left corner X-coordination [7:0]
;;;1170   [35h] PIP Window Image Upper-Left corner X-coordination [12:8]
;;;1171   Reference PIP Image coordination.
;;;1172   Unit: Pixel
;;;1173   It must be divisible by 4. PWIULX Bit [1:0] tie to ˇ§0ˇ¨ internally.
;;;1174   X-axis coordination plus PIP image width cannot large than 8188.
;;;1175   According to bit of Select Configure PIP 1 or 2 Windowˇ¦s parameters. 
;;;1176   Function bit will be configured for relative PIP window.
;;;1177   
;;;1178   [36h] PIP Windows Display Upper-Left corner Y-coordination [7:0]
;;;1179   [37h] PIP Windows Image Upper-Left corner Y-coordination [12:8]
;;;1180   Reference PIP Image coordination.
;;;1181   Unit: Pixel
;;;1182   Y-axis coordination plus PIP window height should less than 8191.
;;;1183   According to bit of Select Configure PIP 1 or 2 Windowˇ¦s parameters. 
;;;1184   Function bit will be configured for relative PIP window.
;;;1185   */
;;;1186   	LCD_RegisterWrite(0x34,WX);
000b5c  b2d9              UXTB     r1,r3
000b5e  2034              MOVS     r0,#0x34
000b60  f7fffffe          BL       LCD_RegisterWrite
;;;1187   	LCD_RegisterWrite(0x35,WX>>8);
000b64  0a19              LSRS     r1,r3,#8
000b66  2035              MOVS     r0,#0x35
000b68  f7fffffe          BL       LCD_RegisterWrite
;;;1188   	
;;;1189   	LCD_RegisterWrite(0x36,HY);
000b6c  b2e1              UXTB     r1,r4
000b6e  2036              MOVS     r0,#0x36
000b70  f7fffffe          BL       LCD_RegisterWrite
;;;1190   	LCD_RegisterWrite(0x37,HY>>8);
000b74  0a21              LSRS     r1,r4,#8
000b76  e8bd4010          POP      {r4,lr}
000b7a  2037              MOVS     r0,#0x37
000b7c  f7ffbffe          B.W      LCD_RegisterWrite
;;;1191   }
;;;1192   //[38h][39h][3Ah][3Bh]=========================================================================
                          ENDP

                  PIP_Window_Width_Height PROC
;;;1193   void PIP_Window_Width_Height(unsigned short WX,unsigned short HY)	
000b80  b510              PUSH     {r4,lr}
;;;1194   {
000b82  4603              MOV      r3,r0
000b84  460c              MOV      r4,r1
;;;1195   /*
;;;1196   [38h] PIP Window Width [7:0]
;;;1197   [39h] PIP Window Width [10:8]
;;;1198   Unit: Pixel.
;;;1199   It must be divisible by 4. The value is physical pixel number.
;;;1200   Maximum value is 8188 pixels.
;;;1201   According to bit of Select Configure PIP 1 or 2 Windowˇ¦s parameters. 
;;;1202   Function bit will be configured for relative PIP window.
;;;1203   
;;;1204   [3Ah] PIP Window Height [7:0]
;;;1205   [3Bh] PIP Window Height [10:8]
;;;1206   Unit: Pixel
;;;1207   The value is physical pixel number. Maximum value is 8191 pixels.
;;;1208   According to bit of Select Configure PIP 1 or 2 Windowˇ¦s parameters. 
;;;1209   Function bit will be configured for relative PIP window.
;;;1210   */
;;;1211   	LCD_RegisterWrite(0x38,WX);
000b86  b2d9              UXTB     r1,r3
000b88  2038              MOVS     r0,#0x38
000b8a  f7fffffe          BL       LCD_RegisterWrite
;;;1212   	LCD_RegisterWrite(0x39,WX>>8);
000b8e  0a19              LSRS     r1,r3,#8
000b90  2039              MOVS     r0,#0x39
000b92  f7fffffe          BL       LCD_RegisterWrite
;;;1213   	
;;;1214   	LCD_RegisterWrite(0x3A,HY);
000b96  b2e1              UXTB     r1,r4
000b98  203a              MOVS     r0,#0x3a
000b9a  f7fffffe          BL       LCD_RegisterWrite
;;;1215   	LCD_RegisterWrite(0x3B,HY>>8);
000b9e  0a21              LSRS     r1,r4,#8
000ba0  e8bd4010          POP      {r4,lr}
000ba4  203b              MOVS     r0,#0x3b
000ba6  f7ffbffe          B.W      LCD_RegisterWrite
;;;1216   }
;;;1217   
                          ENDP

                  Enable_Graphic_Cursor PROC
;;;1218   //[3Ch]=========================================================================
;;;1219   void Enable_Graphic_Cursor(void)	
000baa  b500              PUSH     {lr}
;;;1220   {
;;;1221   /*
;;;1222   Graphic Cursor Enable
;;;1223   0 : Graphic Cursor disable.
;;;1224   1 : Graphic Cursor enable.
;;;1225   */
;;;1226   	unsigned char temp;
;;;1227   	
;;;1228   	LCD_CmdWrite(0x3C);
000bac  203c              MOVS     r0,#0x3c
000bae  f7fffffe          BL       LCD_CmdWrite
;;;1229   	temp = LCD_DataRead();
000bb2  f7fffffe          BL       LCD_DataRead
000bb6  b2c0              UXTB     r0,r0
;;;1230   	temp |= cSetb4;
000bb8  f0400010          ORR      r0,r0,#0x10
;;;1231   	LCD_DataWrite(temp);
000bbc  f85deb04          POP      {lr}
000bc0  f7ffbffe          B.W      LCD_DataWrite
;;;1232   }
;;;1233   void Disable_Graphic_Cursor(void)	
                          ENDP

                  Disable_Graphic_Cursor PROC
000bc4  b500              PUSH     {lr}
;;;1234   {
;;;1235   /*
;;;1236   Graphic Cursor Enable
;;;1237   0 : Graphic Cursor disable.
;;;1238   1 : Graphic Cursor enable.
;;;1239   */
;;;1240   	unsigned char temp;
;;;1241   	
;;;1242   	LCD_CmdWrite(0x3C);
000bc6  203c              MOVS     r0,#0x3c
000bc8  f7fffffe          BL       LCD_CmdWrite
;;;1243   	temp = LCD_DataRead();
000bcc  f7fffffe          BL       LCD_DataRead
;;;1244   	temp &= cClrb4;
000bd0  f00000ef          AND      r0,r0,#0xef
;;;1245   	LCD_DataWrite(temp);
000bd4  f85deb04          POP      {lr}
000bd8  f7ffbffe          B.W      LCD_DataWrite
;;;1246   }
;;;1247   //
                          ENDP

                  Select_Graphic_Cursor_1 PROC
;;;1248   void Select_Graphic_Cursor_1(void)	
000bdc  b500              PUSH     {lr}
;;;1249   {
;;;1250   /*
;;;1251   Graphic Cursor Selection Bit
;;;1252   Select one from four graphic cursor types. (00b to 11b)
;;;1253   00b : Graphic Cursor Set 1.
;;;1254   01b : Graphic Cursor Set 2.
;;;1255   10b : Graphic Cursor Set 3.
;;;1256   11b : Graphic Cursor Set 4.
;;;1257   */
;;;1258   	unsigned char temp;
;;;1259   	
;;;1260   	LCD_CmdWrite(0x3C);
000bde  203c              MOVS     r0,#0x3c
000be0  f7fffffe          BL       LCD_CmdWrite
;;;1261   	temp = LCD_DataRead();
000be4  f7fffffe          BL       LCD_DataRead
;;;1262   	temp &= cClrb3;
000be8  f00000f7          AND      r0,r0,#0xf7
;;;1263   	temp &= cClrb2;
000bec  f00000fb          AND      r0,r0,#0xfb
;;;1264   	LCD_DataWrite(temp);
000bf0  f85deb04          POP      {lr}
000bf4  f7ffbffe          B.W      LCD_DataWrite
;;;1265   }
;;;1266   void Select_Graphic_Cursor_2(void)	
                          ENDP

                  Select_Graphic_Cursor_2 PROC
000bf8  b500              PUSH     {lr}
;;;1267   {
;;;1268   /*
;;;1269   Graphic Cursor Selection Bit
;;;1270   Select one from four graphic cursor types. (00b to 11b)
;;;1271   00b : Graphic Cursor Set 1.
;;;1272   01b : Graphic Cursor Set 2.
;;;1273   10b : Graphic Cursor Set 3.
;;;1274   11b : Graphic Cursor Set 4.
;;;1275   */
;;;1276   	unsigned char temp;
;;;1277   	
;;;1278   	LCD_CmdWrite(0x3C);
000bfa  203c              MOVS     r0,#0x3c
000bfc  f7fffffe          BL       LCD_CmdWrite
;;;1279   	temp = LCD_DataRead();
000c00  f7fffffe          BL       LCD_DataRead
;;;1280   	temp &= cClrb3;
000c04  f00000f7          AND      r0,r0,#0xf7
;;;1281   	temp |= cSetb2;
000c08  f0400004          ORR      r0,r0,#4
;;;1282   	LCD_DataWrite(temp);
000c0c  f85deb04          POP      {lr}
000c10  f7ffbffe          B.W      LCD_DataWrite
;;;1283   }
;;;1284   void Select_Graphic_Cursor_3(void)	
                          ENDP

                  Select_Graphic_Cursor_3 PROC
000c14  b500              PUSH     {lr}
;;;1285   {
;;;1286   /*
;;;1287   Graphic Cursor Selection Bit
;;;1288   Select one from four graphic cursor types. (00b to 11b)
;;;1289   00b : Graphic Cursor Set 1.
;;;1290   01b : Graphic Cursor Set 2.
;;;1291   10b : Graphic Cursor Set 3.
;;;1292   11b : Graphic Cursor Set 4.
;;;1293   */
;;;1294   	unsigned char temp;
;;;1295   	
;;;1296   	LCD_CmdWrite(0x3C);
000c16  203c              MOVS     r0,#0x3c
000c18  f7fffffe          BL       LCD_CmdWrite
;;;1297   	temp = LCD_DataRead();
000c1c  f7fffffe          BL       LCD_DataRead
;;;1298   	temp |= cSetb3;
000c20  f0400008          ORR      r0,r0,#8
;;;1299   	temp &= cClrb2;
000c24  f00000fb          AND      r0,r0,#0xfb
;;;1300   	LCD_DataWrite(temp);
000c28  f85deb04          POP      {lr}
000c2c  f7ffbffe          B.W      LCD_DataWrite
;;;1301   }
;;;1302   void Select_Graphic_Cursor_4(void)	
                          ENDP

                  Select_Graphic_Cursor_4 PROC
000c30  b500              PUSH     {lr}
;;;1303   {
;;;1304   /*
;;;1305   Graphic Cursor Selection Bit
;;;1306   Select one from four graphic cursor types. (00b to 11b)
;;;1307   00b : Graphic Cursor Set 1.
;;;1308   01b : Graphic Cursor Set 2.
;;;1309   10b : Graphic Cursor Set 3.
;;;1310   11b : Graphic Cursor Set 4.
;;;1311   */
;;;1312   	unsigned char temp;
;;;1313   	
;;;1314   	LCD_CmdWrite(0x3C);
000c32  203c              MOVS     r0,#0x3c
000c34  f7fffffe          BL       LCD_CmdWrite
;;;1315   	temp = LCD_DataRead();
000c38  f7fffffe          BL       LCD_DataRead
000c3c  b2c0              UXTB     r0,r0
;;;1316   	temp |= cSetb3;
000c3e  f0400008          ORR      r0,r0,#8
;;;1317   	temp |= cSetb2;
000c42  f0400004          ORR      r0,r0,#4
;;;1318   	LCD_DataWrite(temp);
000c46  f85deb04          POP      {lr}
000c4a  f7ffbffe          B.W      LCD_DataWrite
;;;1319   }
;;;1320   //
                          ENDP

                  Enable_Text_Cursor PROC
;;;1321   void Enable_Text_Cursor(void)	
000c4e  b500              PUSH     {lr}
;;;1322   {
;;;1323   /*
;;;1324   Text Cursor Enable
;;;1325   0 : Disable.
;;;1326   1 : Enable.
;;;1327   Text cursor & Graphic cursor cannot enable simultaneously.
;;;1328   Graphic cursor has higher priority then Text cursor if enabled simultaneously.
;;;1329   */
;;;1330   	unsigned char temp;
;;;1331   	
;;;1332   	LCD_CmdWrite(0x3C);
000c50  203c              MOVS     r0,#0x3c
000c52  f7fffffe          BL       LCD_CmdWrite
;;;1333   	temp = LCD_DataRead();
000c56  f7fffffe          BL       LCD_DataRead
000c5a  b2c0              UXTB     r0,r0
;;;1334   	temp |= cSetb1;
000c5c  f0400002          ORR      r0,r0,#2
;;;1335   	LCD_DataWrite(temp);
000c60  f85deb04          POP      {lr}
000c64  f7ffbffe          B.W      LCD_DataWrite
;;;1336   }
;;;1337   void Disable_Text_Cursor(void)	
                          ENDP

                  Disable_Text_Cursor PROC
000c68  b500              PUSH     {lr}
;;;1338   {
;;;1339   /*
;;;1340   Text Cursor Enable
;;;1341   0 : Disable.
;;;1342   1 : Enable.
;;;1343   Text cursor & Graphic cursor cannot enable simultaneously.
;;;1344   Graphic cursor has higher priority then Text cursor if enabled simultaneously.
;;;1345   */
;;;1346   	unsigned char temp;
;;;1347   	
;;;1348   	LCD_CmdWrite(0x3C);
000c6a  203c              MOVS     r0,#0x3c
000c6c  f7fffffe          BL       LCD_CmdWrite
;;;1349   	temp = LCD_DataRead();
000c70  f7fffffe          BL       LCD_DataRead
;;;1350   	temp &= cClrb1;
000c74  f00000fd          AND      r0,r0,#0xfd
;;;1351   	LCD_DataWrite(temp);
000c78  f85deb04          POP      {lr}
000c7c  f7ffbffe          B.W      LCD_DataWrite
;;;1352   }
;;;1353   //
                          ENDP

                  Enable_Text_Cursor_Blinking PROC
;;;1354   void Enable_Text_Cursor_Blinking(void)	
000c80  b500              PUSH     {lr}
;;;1355   {
;;;1356   /*
;;;1357   Text Cursor Blinking Enable
;;;1358   0 : Disable.
;;;1359   1 : Enable.
;;;1360   */
;;;1361   	unsigned char temp;
;;;1362   	
;;;1363   	LCD_CmdWrite(0x3C);
000c82  203c              MOVS     r0,#0x3c
000c84  f7fffffe          BL       LCD_CmdWrite
;;;1364   	temp = LCD_DataRead();
000c88  f7fffffe          BL       LCD_DataRead
000c8c  b2c0              UXTB     r0,r0
;;;1365   	temp |= cSetb0;
000c8e  f0400001          ORR      r0,r0,#1
;;;1366   	LCD_DataWrite(temp);
000c92  f85deb04          POP      {lr}
000c96  f7ffbffe          B.W      LCD_DataWrite
;;;1367   }
;;;1368   void Disable_Text_Cursor_Blinking(void)	
                          ENDP

                  Disable_Text_Cursor_Blinking PROC
000c9a  b500              PUSH     {lr}
;;;1369   {
;;;1370   /*
;;;1371   Text Cursor Blinking Enable
;;;1372   0 : Disable.
;;;1373   1 : Enable.
;;;1374   */
;;;1375   	unsigned char temp;
;;;1376   	
;;;1377   	LCD_CmdWrite(0x3C);
000c9c  203c              MOVS     r0,#0x3c
000c9e  f7fffffe          BL       LCD_CmdWrite
;;;1378   	temp = LCD_DataRead();
000ca2  f7fffffe          BL       LCD_DataRead
;;;1379   	temp &= cClrb0;
000ca6  f00000fe          AND      r0,r0,#0xfe
;;;1380   	LCD_DataWrite(temp);
000caa  f85deb04          POP      {lr}
000cae  f7ffbffe          B.W      LCD_DataWrite
;;;1381   }
;;;1382   //[3Dh]=========================================================================
                          ENDP

                  Blinking_Time_Frames PROC
;;;1383   void Blinking_Time_Frames(unsigned char temp)	
000cb2  b500              PUSH     {lr}
;;;1384   {
000cb4  4602              MOV      r2,r0
;;;1385   /*
;;;1386   Text Cursor Blink Time Setting (Unit: Frame)
;;;1387   00h : 1 frame time.
;;;1388   01h : 2 frames time.
;;;1389   02h : 3 frames time.
;;;1390   :
;;;1391   FFh : 256 frames time.
;;;1392   */
;;;1393   	LCD_CmdWrite(0x3D);
000cb6  203d              MOVS     r0,#0x3d
000cb8  f7fffffe          BL       LCD_CmdWrite
;;;1394   	LCD_DataWrite(temp);
000cbc  4610              MOV      r0,r2
000cbe  f85deb04          POP      {lr}
000cc2  f7ffbffe          B.W      LCD_DataWrite
;;;1395   }
;;;1396   //[3Eh]=========================================================================
                          ENDP

                  Text_Cursor_H_V PROC
;;;1397   void Text_Cursor_H_V(unsigned short WX,unsigned short HY)
000cc6  b500              PUSH     {lr}
;;;1398   {
000cc8  4603              MOV      r3,r0
000cca  460a              MOV      r2,r1
;;;1399   /*
;;;1400   [3Eh]
;;;1401   Text Cursor Horizontal Size Setting[4:0]
;;;1402   Unit : Pixel
;;;1403   Zero-based number. Value ˇ§0ˇ¨ means 1 pixel.
;;;1404   Note : When font is enlarged, the cursor setting will multiply the
;;;1405   same times as the font enlargement.
;;;1406   [3Fh]
;;;1407   Text Cursor Vertical Size Setting[4:0]
;;;1408   Unit : Pixel
;;;1409   Zero-based number. Value ˇ§0ˇ¨ means 1 pixel.
;;;1410   Note : When font is enlarged, the cursor setting will multiply the
;;;1411   same times as the font enlargement.
;;;1412   */
;;;1413   	LCD_CmdWrite(0x3E);
000ccc  203e              MOVS     r0,#0x3e
000cce  f7fffffe          BL       LCD_CmdWrite
;;;1414   	LCD_DataWrite(WX);
000cd2  b2d8              UXTB     r0,r3
000cd4  f7fffffe          BL       LCD_DataWrite
;;;1415   	LCD_CmdWrite(0x3F);
000cd8  203f              MOVS     r0,#0x3f
000cda  f7fffffe          BL       LCD_CmdWrite
;;;1416   	LCD_DataWrite(HY);
000cde  b2d0              UXTB     r0,r2
000ce0  f85deb04          POP      {lr}
000ce4  f7ffbffe          B.W      LCD_DataWrite
;;;1417   }
;;;1418   //[40h][41h][42h][43h]=========================================================================
                          ENDP

                  Graphic_Cursor_XY PROC
;;;1419   void Graphic_Cursor_XY(unsigned short WX,unsigned short HY)
000ce8  b510              PUSH     {r4,lr}
;;;1420   {
000cea  4603              MOV      r3,r0
000cec  460c              MOV      r4,r1
;;;1421   /*
;;;1422   [40h] Graphic Cursor Horizontal Location[7:0]
;;;1423   [41h] Graphic Cursor Horizontal Location[12:8]
;;;1424   [42h] Graphic Cursor Vertical Location[7:0]
;;;1425   [43h] Graphic Cursor Vertical Location[12:8]
;;;1426   Reference main Window coordination.
;;;1427   */	
;;;1428   	LCD_RegisterWrite(0x40,WX);
000cee  b2d9              UXTB     r1,r3
000cf0  2040              MOVS     r0,#0x40
000cf2  f7fffffe          BL       LCD_RegisterWrite
;;;1429   	LCD_RegisterWrite(0x41,WX>>8);
000cf6  0a19              LSRS     r1,r3,#8
000cf8  2041              MOVS     r0,#0x41
000cfa  f7fffffe          BL       LCD_RegisterWrite
;;;1430   
;;;1431   	LCD_RegisterWrite(0x42,HY);
000cfe  b2e1              UXTB     r1,r4
000d00  2042              MOVS     r0,#0x42
000d02  f7fffffe          BL       LCD_RegisterWrite
;;;1432   	LCD_RegisterWrite(0x43,HY>>8);
000d06  0a21              LSRS     r1,r4,#8
000d08  e8bd4010          POP      {r4,lr}
000d0c  2043              MOVS     r0,#0x43
000d0e  f7ffbffe          B.W      LCD_RegisterWrite
;;;1433   }
;;;1434   //[44h]=========================================================================
                          ENDP

                  Set_Graphic_Cursor_Color_1 PROC
;;;1435   void Set_Graphic_Cursor_Color_1(unsigned char temp)
000d12  4601              MOV      r1,r0
;;;1436   {
;;;1437   /*
;;;1438   [44h] Graphic Cursor Color 0 with 256 Colors
;;;1439   RGB Format [7:0] = RRRGGGBB.
;;;1440   */	
;;;1441   	LCD_RegisterWrite(0x44,temp);
000d14  2044              MOVS     r0,#0x44
000d16  f7ffbffe          B.W      LCD_RegisterWrite
;;;1442   }
;;;1443   //[45h]=========================================================================
                          ENDP

                  Set_Graphic_Cursor_Color_2 PROC
;;;1444   void Set_Graphic_Cursor_Color_2(unsigned char temp)
000d1a  4601              MOV      r1,r0
;;;1445   {
;;;1446   /*
;;;1447   [45h] Graphic Cursor Color 1 with 256 Colors
;;;1448   RGB Format [7:0] = RRRGGGBB.
;;;1449   */	
;;;1450   	LCD_RegisterWrite(0x45,temp);
000d1c  2045              MOVS     r0,#0x45
000d1e  f7ffbffe          B.W      LCD_RegisterWrite
;;;1451   }
;;;1452   //[50h][51h][52h][53h]=========================================================================
                          ENDP

                  Canvas_Image_Start_address PROC
;;;1453   void Canvas_Image_Start_address(unsigned long Addr)	
000d22  b500              PUSH     {lr}
;;;1454   {
000d24  4603              MOV      r3,r0
;;;1455   /*
;;;1456   [50h] Start address of Canvas [7:0]
;;;1457   [51h] Start address of Canvas [15:8]
;;;1458   [52h] Start address of Canvas [23:16]
;;;1459   [53h] Start address of Canvas [31:24]
;;;1460   */
;;;1461   	LCD_RegisterWrite(0x50,Addr);
000d26  b2d9              UXTB     r1,r3
000d28  2050              MOVS     r0,#0x50
000d2a  f7fffffe          BL       LCD_RegisterWrite
;;;1462   	LCD_RegisterWrite(0x51,Addr>>8);
000d2e  f3c32107          UBFX     r1,r3,#8,#8
000d32  2051              MOVS     r0,#0x51
000d34  f7fffffe          BL       LCD_RegisterWrite
;;;1463   	LCD_RegisterWrite(0x52,Addr>>16);
000d38  f3c34107          UBFX     r1,r3,#16,#8
000d3c  2052              MOVS     r0,#0x52
000d3e  f7fffffe          BL       LCD_RegisterWrite
;;;1464   	LCD_RegisterWrite(0x53,Addr>>24);
000d42  0e19              LSRS     r1,r3,#24
000d44  2053              MOVS     r0,#0x53
000d46  f85deb04          POP      {lr}
000d4a  f7ffbffe          B.W      LCD_RegisterWrite
;;;1465   }
;;;1466   //[54h][55h]=========================================================================
                          ENDP

                  Canvas_image_width PROC
;;;1467   void Canvas_image_width(uint16_t WX)	
000d4e  b500              PUSH     {lr}
;;;1468   {
000d50  4603              MOV      r3,r0
;;;1469   /*
;;;1470   [54h] Canvas image width [7:2]
;;;1471   [55h] Canvas image width [12:8]
;;;1472   */
;;;1473   	LCD_RegisterWrite(0x54,WX);
000d52  b2d9              UXTB     r1,r3
000d54  2054              MOVS     r0,#0x54
000d56  f7fffffe          BL       LCD_RegisterWrite
;;;1474   	LCD_RegisterWrite(0x55,WX>>8);
000d5a  0a19              LSRS     r1,r3,#8
000d5c  2055              MOVS     r0,#0x55
000d5e  f85deb04          POP      {lr}
000d62  f7ffbffe          B.W      LCD_RegisterWrite
;;;1475   }
;;;1476   //[56h][57h][58h][59h]=========================================================================
                          ENDP

                  Active_Window_XY PROC
;;;1477   void Active_Window_XY(uint16_t WX,uint16_t HY)	
000d66  b510              PUSH     {r4,lr}
;;;1478   {
000d68  4603              MOV      r3,r0
000d6a  460c              MOV      r4,r1
;;;1479   /*
;;;1480   [56h] Active Window Upper-Left corner X-coordination [7:0]
;;;1481   [57h] Active Window Upper-Left corner X-coordination [12:8]
;;;1482   [58h] Active Window Upper-Left corner Y-coordination [7:0]
;;;1483   [59h] Active Window Upper-Left corner Y-coordination [12:8]
;;;1484   */
;;;1485   	LCD_RegisterWrite(0x56,WX);
000d6c  b2d9              UXTB     r1,r3
000d6e  2056              MOVS     r0,#0x56
000d70  f7fffffe          BL       LCD_RegisterWrite
;;;1486   	LCD_RegisterWrite(0x57,WX>>8);
000d74  0a19              LSRS     r1,r3,#8
000d76  2057              MOVS     r0,#0x57
000d78  f7fffffe          BL       LCD_RegisterWrite
;;;1487   	
;;;1488   	LCD_RegisterWrite(0x58,HY);
000d7c  b2e1              UXTB     r1,r4
000d7e  2058              MOVS     r0,#0x58
000d80  f7fffffe          BL       LCD_RegisterWrite
;;;1489   	LCD_RegisterWrite(0x59,HY>>8);
000d84  0a21              LSRS     r1,r4,#8
000d86  e8bd4010          POP      {r4,lr}
000d8a  2059              MOVS     r0,#0x59
000d8c  f7ffbffe          B.W      LCD_RegisterWrite
;;;1490   }
;;;1491   ////[5Ah][5Bh][5Ch][5Dh]=========================================================================
                          ENDP

                  Active_Window_WH PROC
;;;1492   void Active_Window_WH(uint16_t WX,uint16_t HY)	
000d90  b510              PUSH     {r4,lr}
;;;1493   {
000d92  4603              MOV      r3,r0
000d94  460c              MOV      r4,r1
;;;1494   /*
;;;1495   [5Ah] Width of Active Window [7:0]
;;;1496   [5Bh] Width of Active Window [12:8]
;;;1497   [5Ch] Height of Active Window [7:0]
;;;1498   [5Dh] Height of Active Window [12:8]
;;;1499   */
;;;1500   	LCD_RegisterWrite(0x5A,WX);
000d96  b2d9              UXTB     r1,r3
000d98  205a              MOVS     r0,#0x5a
000d9a  f7fffffe          BL       LCD_RegisterWrite
;;;1501   	LCD_RegisterWrite(0x5B,WX>>8);
000d9e  0a19              LSRS     r1,r3,#8
000da0  205b              MOVS     r0,#0x5b
000da2  f7fffffe          BL       LCD_RegisterWrite
;;;1502    
;;;1503    	LCD_RegisterWrite(0x5C,HY);
000da6  b2e1              UXTB     r1,r4
000da8  205c              MOVS     r0,#0x5c
000daa  f7fffffe          BL       LCD_RegisterWrite
;;;1504   	LCD_RegisterWrite(0x5D,HY>>8);
000dae  0a21              LSRS     r1,r4,#8
000db0  e8bd4010          POP      {r4,lr}
000db4  205d              MOVS     r0,#0x5d
000db6  f7ffbffe          B.W      LCD_RegisterWrite
;;;1505   }
;;;1506   //5Eh]=========================================================================
                          ENDP

                  Memory_Linear_Mode PROC
;;;1540   }
;;;1541   void Memory_Linear_Mode(void)	
000dba  b500              PUSH     {lr}
;;;1542   {
;;;1543   /*
;;;1544   Canvas addressing mode
;;;1545   0: Block mode (X-Y coordination addressing)
;;;1546   1: linear mode
;;;1547   */
;;;1548   	unsigned char temp;
;;;1549   
;;;1550   	LCD_CmdWrite(0x5E);
000dbc  205e              MOVS     r0,#0x5e
000dbe  f7fffffe          BL       LCD_CmdWrite
;;;1551   	temp = LCD_DataRead();
000dc2  f7fffffe          BL       LCD_DataRead
000dc6  b2c0              UXTB     r0,r0
;;;1552   	temp |= cSetb2;
000dc8  f0400004          ORR      r0,r0,#4
;;;1553   	LCD_DataWrite(temp);
000dcc  f85deb04          POP      {lr}
000dd0  f7ffbffe          B.W      LCD_DataWrite
;;;1554   }
;;;1555   //[5Fh][60h][61h][62h]=========================================================================
                          ENDP

                  Goto_Pixel_XY PROC
;;;1556   void Goto_Pixel_XY(uint16_t WX,uint16_t HY)	
000dd4  b510              PUSH     {r4,lr}
;;;1557   {
000dd6  4603              MOV      r3,r0
000dd8  460c              MOV      r4,r1
;;;1558   /*
;;;1559   [Write]: Set Graphic Read/Write position
;;;1560   [Read]: Current Graphic Read/Write position
;;;1561   Read back is Read position or Write position depends on
;;;1562   REG[5Eh] bit3, Select to read back Graphic Read/Write position.
;;;1563   When DPRAM Linear mode:Graphic Read/Write Position [31:24][23:16][15:8][7:0]
;;;1564   When DPRAM Active window mode:Graphic Read/Write 
;;;1565   Horizontal Position [12:8][7:0], 
;;;1566   Vertical Position [12:8][7:0].
;;;1567   Reference Canvas image coordination. Unit: Pixel
;;;1568   */
;;;1569   	LCD_RegisterWrite(0x5F,WX);
000dda  b2d9              UXTB     r1,r3
000ddc  205f              MOVS     r0,#0x5f
000dde  f7fffffe          BL       LCD_RegisterWrite
;;;1570   	LCD_RegisterWrite(0x60,WX>>8);
000de2  0a19              LSRS     r1,r3,#8
000de4  2060              MOVS     r0,#0x60
000de6  f7fffffe          BL       LCD_RegisterWrite
;;;1571   	
;;;1572   	LCD_RegisterWrite(0x61,HY);
000dea  b2e1              UXTB     r1,r4
000dec  2061              MOVS     r0,#0x61
000dee  f7fffffe          BL       LCD_RegisterWrite
;;;1573   	LCD_RegisterWrite(0x62,HY>>8);
000df2  0a21              LSRS     r1,r4,#8
000df4  e8bd4010          POP      {r4,lr}
000df8  2062              MOVS     r0,#0x62
000dfa  f7ffbffe          B.W      LCD_RegisterWrite
;;;1574   }
;;;1575   void Goto_Linear_Addr(unsigned long Addr)
                          ENDP

                  Goto_Linear_Addr PROC
000dfe  b500              PUSH     {lr}
;;;1576   {
000e00  4603              MOV      r3,r0
;;;1577    LCD_RegisterWrite(0x5F,Addr);
000e02  b2d9              UXTB     r1,r3
000e04  205f              MOVS     r0,#0x5f
000e06  f7fffffe          BL       LCD_RegisterWrite
;;;1578    LCD_RegisterWrite(0x60,Addr>>8); 
000e0a  f3c32107          UBFX     r1,r3,#8,#8
000e0e  2060              MOVS     r0,#0x60
000e10  f7fffffe          BL       LCD_RegisterWrite
;;;1579    LCD_RegisterWrite(0x61,Addr>>16);
000e14  f3c34107          UBFX     r1,r3,#16,#8
000e18  2061              MOVS     r0,#0x61
000e1a  f7fffffe          BL       LCD_RegisterWrite
;;;1580    LCD_RegisterWrite(0x62,Addr>>24);
000e1e  0e19              LSRS     r1,r3,#24
000e20  2062              MOVS     r0,#0x62
000e22  f85deb04          POP      {lr}
000e26  f7ffbffe          B.W      LCD_RegisterWrite
;;;1581   }
;;;1582   //[63h][64h][65h][66h]=========================================================================
                          ENDP

                  Goto_Text_XY PROC
;;;1583   void Goto_Text_XY(unsigned short WX,unsigned short HY)	
000e2a  b510              PUSH     {r4,lr}
;;;1584   {
000e2c  4603              MOV      r3,r0
000e2e  460c              MOV      r4,r1
;;;1585   /*
;;;1586   Write: Set Text Write position
;;;1587   Read: Current Text Write position
;;;1588   Text Write X-coordination [12:8][7:0]
;;;1589   Text Write Y-coordination [12:8][7:0]
;;;1590   Reference Canvas image coordination.
;;;1591   Unit: Pixel
;;;1592   */
;;;1593   	LCD_RegisterWrite(0x63,WX);
000e30  b2d9              UXTB     r1,r3
000e32  2063              MOVS     r0,#0x63
000e34  f7fffffe          BL       LCD_RegisterWrite
;;;1594   	LCD_RegisterWrite(0x64,WX>>8);
000e38  0a19              LSRS     r1,r3,#8
000e3a  2064              MOVS     r0,#0x64
000e3c  f7fffffe          BL       LCD_RegisterWrite
;;;1595   	
;;;1596   	LCD_RegisterWrite(0x65,HY);
000e40  b2e1              UXTB     r1,r4
000e42  2065              MOVS     r0,#0x65
000e44  f7fffffe          BL       LCD_RegisterWrite
;;;1597   	LCD_RegisterWrite(0x66,HY>>8);
000e48  0a21              LSRS     r1,r4,#8
000e4a  e8bd4010          POP      {r4,lr}
000e4e  2066              MOVS     r0,#0x66
000e50  f7ffbffe          B.W      LCD_RegisterWrite
;;;1598   }
;;;1599   
                          ENDP

                  Start_Line PROC
;;;1615   */
;;;1616   void Start_Line(void)
000e54  b500              PUSH     {lr}
;;;1617   {
;;;1618   	LCD_CmdWrite(0x67);
000e56  2067              MOVS     r0,#0x67
000e58  f7fffffe          BL       LCD_CmdWrite
;;;1619   	LCD_DataWrite(0x80);
000e5c  2080              MOVS     r0,#0x80
000e5e  f7fffffe          BL       LCD_DataWrite
;;;1620   	Check_Busy_Draw();
000e62  f85deb04          POP      {lr}
000e66  e7fe              B        Check_Busy_Draw
;;;1621   }
;;;1622   void Start_Triangle(void)
                          ENDP

                  Start_Triangle PROC
000e68  b500              PUSH     {lr}
;;;1623   {
;;;1624   	LCD_CmdWrite(0x67);
000e6a  2067              MOVS     r0,#0x67
000e6c  f7fffffe          BL       LCD_CmdWrite
;;;1625   	LCD_DataWrite(0x82);//B1000_0010
000e70  2082              MOVS     r0,#0x82
000e72  f7fffffe          BL       LCD_DataWrite
;;;1626   	Check_Busy_Draw();
000e76  f85deb04          POP      {lr}
000e7a  e7fe              B        Check_Busy_Draw
;;;1627   }
;;;1628   void Start_Triangle_Fill(void)
                          ENDP

                  Start_Triangle_Fill PROC
000e7c  b500              PUSH     {lr}
;;;1629   {
;;;1630   
;;;1631   	LCD_CmdWrite(0x67);
000e7e  2067              MOVS     r0,#0x67
000e80  f7fffffe          BL       LCD_CmdWrite
;;;1632   	LCD_DataWrite(0xA2);//B1010_0010
000e84  20a2              MOVS     r0,#0xa2
000e86  f7fffffe          BL       LCD_DataWrite
;;;1633   	Check_Busy_Draw();
000e8a  f85deb04          POP      {lr}
000e8e  e7fe              B        Check_Busy_Draw
;;;1634   }
;;;1635   //[68h][69h][6Ah][6Bh]=========================================================================
                          ENDP

                  Line_Start_XY PROC
;;;1636   //ĎßĆđµă
;;;1637   void Line_Start_XY(unsigned short WX,unsigned short HY)
000e90  b500              PUSH     {lr}
;;;1638   {
000e92  4602              MOV      r2,r0
000e94  460b              MOV      r3,r1
;;;1639   /*
;;;1640   [68h] Draw Line/Square/Triangle Start X-coordination [7:0]
;;;1641   [69h] Draw Line/Square/Triangle Start X-coordination [12:8]
;;;1642   [6Ah] Draw Line/Square/Triangle Start Y-coordination [7:0]
;;;1643   [6Bh] Draw Line/Square/Triangle Start Y-coordination [12:8]
;;;1644   */
;;;1645   	LCD_CmdWrite(0x68);
000e96  2068              MOVS     r0,#0x68
000e98  f7fffffe          BL       LCD_CmdWrite
;;;1646   	LCD_DataWrite(WX);
000e9c  b2d0              UXTB     r0,r2
000e9e  f7fffffe          BL       LCD_DataWrite
;;;1647   
;;;1648   	LCD_CmdWrite(0x69);
000ea2  2069              MOVS     r0,#0x69
000ea4  f7fffffe          BL       LCD_CmdWrite
;;;1649   	LCD_DataWrite(WX>>8);
000ea8  0a10              LSRS     r0,r2,#8
000eaa  f7fffffe          BL       LCD_DataWrite
;;;1650   
;;;1651   	LCD_CmdWrite(0x6A);
000eae  206a              MOVS     r0,#0x6a
000eb0  f7fffffe          BL       LCD_CmdWrite
;;;1652   	LCD_DataWrite(HY);
000eb4  b2d8              UXTB     r0,r3
000eb6  f7fffffe          BL       LCD_DataWrite
;;;1653   
;;;1654   	LCD_CmdWrite(0x6B);
000eba  206b              MOVS     r0,#0x6b
000ebc  f7fffffe          BL       LCD_CmdWrite
;;;1655   	LCD_DataWrite(HY>>8);
000ec0  0a18              LSRS     r0,r3,#8
000ec2  f85deb04          POP      {lr}
000ec6  f7ffbffe          B.W      LCD_DataWrite
;;;1656   }
;;;1657   //[6Ch][6Dh][6Eh][6Fh]=========================================================================
                          ENDP

                  Line_End_XY PROC
;;;1658   //ĎßÖŐµă
;;;1659   void Line_End_XY(unsigned short WX,unsigned short HY)
000eca  b500              PUSH     {lr}
;;;1660   {
000ecc  4602              MOV      r2,r0
000ece  460b              MOV      r3,r1
;;;1661   /*
;;;1662   [6Ch] Draw Line/Square/Triangle End X-coordination [7:0]
;;;1663   [6Dh] Draw Line/Square/Triangle End X-coordination [12:8]
;;;1664   [6Eh] Draw Line/Square/Triangle End Y-coordination [7:0]
;;;1665   [6Fh] Draw Line/Square/Triangle End Y-coordination [12:8]
;;;1666   */
;;;1667   	LCD_CmdWrite(0x6C);
000ed0  206c              MOVS     r0,#0x6c
000ed2  f7fffffe          BL       LCD_CmdWrite
;;;1668   	LCD_DataWrite(WX);
000ed6  b2d0              UXTB     r0,r2
000ed8  f7fffffe          BL       LCD_DataWrite
;;;1669   
;;;1670   	LCD_CmdWrite(0x6D);
000edc  206d              MOVS     r0,#0x6d
000ede  f7fffffe          BL       LCD_CmdWrite
;;;1671   	LCD_DataWrite(WX>>8);
000ee2  0a10              LSRS     r0,r2,#8
000ee4  f7fffffe          BL       LCD_DataWrite
;;;1672   
;;;1673   	LCD_CmdWrite(0x6E);
000ee8  206e              MOVS     r0,#0x6e
000eea  f7fffffe          BL       LCD_CmdWrite
;;;1674   	LCD_DataWrite(HY);
000eee  b2d8              UXTB     r0,r3
000ef0  f7fffffe          BL       LCD_DataWrite
;;;1675   
;;;1676   	LCD_CmdWrite(0x6F);
000ef4  206f              MOVS     r0,#0x6f
000ef6  f7fffffe          BL       LCD_CmdWrite
;;;1677   	LCD_DataWrite(HY>>8);
000efa  0a18              LSRS     r0,r3,#8
000efc  f85deb04          POP      {lr}
000f00  f7ffbffe          B.W      LCD_DataWrite
;;;1678   }
;;;1679   //[68h]~[73h]=========================================================================
                          ENDP

                  Triangle_Point1_XY PROC
;;;1680   //¤T¨¤-ÂI1
;;;1681   void Triangle_Point1_XY(unsigned short WX,unsigned short HY)
000f04  b500              PUSH     {lr}
;;;1682   {
000f06  4602              MOV      r2,r0
000f08  460b              MOV      r3,r1
;;;1683   /*
;;;1684   [68h] Draw Line/Square/Triangle Start X-coordination [7:0]
;;;1685   [69h] Draw Line/Square/Triangle Start X-coordination [12:8]
;;;1686   [6Ah] Draw Line/Square/Triangle Start Y-coordination [7:0]
;;;1687   [6Bh] Draw Line/Square/Triangle Start Y-coordination [12:8]
;;;1688   */
;;;1689   	LCD_CmdWrite(0x68);
000f0a  2068              MOVS     r0,#0x68
000f0c  f7fffffe          BL       LCD_CmdWrite
;;;1690   	LCD_DataWrite(WX);
000f10  b2d0              UXTB     r0,r2
000f12  f7fffffe          BL       LCD_DataWrite
;;;1691   
;;;1692   	LCD_CmdWrite(0x69);
000f16  2069              MOVS     r0,#0x69
000f18  f7fffffe          BL       LCD_CmdWrite
;;;1693   	LCD_DataWrite(WX>>8);
000f1c  0a10              LSRS     r0,r2,#8
000f1e  f7fffffe          BL       LCD_DataWrite
;;;1694   
;;;1695   	LCD_CmdWrite(0x6A);
000f22  206a              MOVS     r0,#0x6a
000f24  f7fffffe          BL       LCD_CmdWrite
;;;1696   	LCD_DataWrite(HY);
000f28  b2d8              UXTB     r0,r3
000f2a  f7fffffe          BL       LCD_DataWrite
;;;1697   
;;;1698   	LCD_CmdWrite(0x6B);
000f2e  206b              MOVS     r0,#0x6b
000f30  f7fffffe          BL       LCD_CmdWrite
;;;1699   	LCD_DataWrite(HY>>8);
000f34  0a18              LSRS     r0,r3,#8
000f36  f85deb04          POP      {lr}
000f3a  f7ffbffe          B.W      LCD_DataWrite
;;;1700   }
;;;1701   //¤T¨¤-ÂI2
                          ENDP

                  Triangle_Point2_XY PROC
;;;1702   void Triangle_Point2_XY(unsigned short WX,unsigned short HY)
000f3e  b500              PUSH     {lr}
;;;1703   {
000f40  4602              MOV      r2,r0
000f42  460b              MOV      r3,r1
;;;1704   /*
;;;1705   [6Ch] Draw Line/Square/Triangle End X-coordination [7:0]
;;;1706   [6Dh] Draw Line/Square/Triangle End X-coordination [12:8]
;;;1707   [6Eh] Draw Line/Square/Triangle End Y-coordination [7:0]
;;;1708   [6Fh] Draw Line/Square/Triangle End Y-coordination [12:8]
;;;1709   */
;;;1710   	LCD_CmdWrite(0x6C);
000f44  206c              MOVS     r0,#0x6c
000f46  f7fffffe          BL       LCD_CmdWrite
;;;1711   	LCD_DataWrite(WX);
000f4a  b2d0              UXTB     r0,r2
000f4c  f7fffffe          BL       LCD_DataWrite
;;;1712   
;;;1713   	LCD_CmdWrite(0x6D);
000f50  206d              MOVS     r0,#0x6d
000f52  f7fffffe          BL       LCD_CmdWrite
;;;1714   	LCD_DataWrite(WX>>8);
000f56  0a10              LSRS     r0,r2,#8
000f58  f7fffffe          BL       LCD_DataWrite
;;;1715   
;;;1716   	LCD_CmdWrite(0x6E);
000f5c  206e              MOVS     r0,#0x6e
000f5e  f7fffffe          BL       LCD_CmdWrite
;;;1717   	LCD_DataWrite(HY);
000f62  b2d8              UXTB     r0,r3
000f64  f7fffffe          BL       LCD_DataWrite
;;;1718   
;;;1719   	LCD_CmdWrite(0x6F);
000f68  206f              MOVS     r0,#0x6f
000f6a  f7fffffe          BL       LCD_CmdWrite
;;;1720   	LCD_DataWrite(HY>>8);
000f6e  0a18              LSRS     r0,r3,#8
000f70  f85deb04          POP      {lr}
000f74  f7ffbffe          B.W      LCD_DataWrite
;;;1721   }
;;;1722   //¤T¨¤-ÂI3
                          ENDP

                  Triangle_Point3_XY PROC
;;;1723   void Triangle_Point3_XY (unsigned short WX,unsigned short HY)
000f78  b500              PUSH     {lr}
;;;1724   {
000f7a  4602              MOV      r2,r0
000f7c  460b              MOV      r3,r1
;;;1725   /*
;;;1726   [70h] Draw Triangle Point 3 X-coordination [7:0]
;;;1727   [71h] Draw Triangle Point 3 X-coordination [12:8]
;;;1728   [72h] Draw Triangle Point 3 Y-coordination [7:0]
;;;1729   [73h] Draw Triangle Point 3 Y-coordination [12:8]
;;;1730   */
;;;1731   	LCD_CmdWrite(0x70);
000f7e  2070              MOVS     r0,#0x70
000f80  f7fffffe          BL       LCD_CmdWrite
;;;1732   	LCD_DataWrite(WX);
000f84  b2d0              UXTB     r0,r2
000f86  f7fffffe          BL       LCD_DataWrite
;;;1733   
;;;1734   	LCD_CmdWrite(0x71);
000f8a  2071              MOVS     r0,#0x71
000f8c  f7fffffe          BL       LCD_CmdWrite
;;;1735   	LCD_DataWrite(WX>>8);
000f90  0a10              LSRS     r0,r2,#8
000f92  f7fffffe          BL       LCD_DataWrite
;;;1736   
;;;1737   	LCD_CmdWrite(0x72);
000f96  2072              MOVS     r0,#0x72
000f98  f7fffffe          BL       LCD_CmdWrite
;;;1738   	LCD_DataWrite(HY);
000f9c  b2d8              UXTB     r0,r3
000f9e  f7fffffe          BL       LCD_DataWrite
;;;1739   
;;;1740   	LCD_CmdWrite(0x73);
000fa2  2073              MOVS     r0,#0x73
000fa4  f7fffffe          BL       LCD_CmdWrite
;;;1741   	LCD_DataWrite(HY>>8);
000fa8  0a18              LSRS     r0,r3,#8
000faa  f85deb04          POP      {lr}
000fae  f7ffbffe          B.W      LCD_DataWrite
;;;1742   }
;;;1743   //¤č°_ÂI
                          ENDP

                  Square_Start_XY PROC
;;;1744   void Square_Start_XY(unsigned short WX,unsigned short HY)
000fb2  b500              PUSH     {lr}
;;;1745   {
000fb4  4602              MOV      r2,r0
000fb6  460b              MOV      r3,r1
;;;1746   /*
;;;1747   [68h] Draw Line/Square/Triangle Start X-coordination [7:0]
;;;1748   [69h] Draw Line/Square/Triangle Start X-coordination [12:8]
;;;1749   [6Ah] Draw Line/Square/Triangle Start Y-coordination [7:0]
;;;1750   [6Bh] Draw Line/Square/Triangle Start Y-coordination [12:8]
;;;1751   */
;;;1752   	LCD_CmdWrite(0x68);
000fb8  2068              MOVS     r0,#0x68
000fba  f7fffffe          BL       LCD_CmdWrite
;;;1753   	LCD_DataWrite(WX);
000fbe  b2d0              UXTB     r0,r2
000fc0  f7fffffe          BL       LCD_DataWrite
;;;1754   
;;;1755   	LCD_CmdWrite(0x69);
000fc4  2069              MOVS     r0,#0x69
000fc6  f7fffffe          BL       LCD_CmdWrite
;;;1756   	LCD_DataWrite(WX>>8);
000fca  0a10              LSRS     r0,r2,#8
000fcc  f7fffffe          BL       LCD_DataWrite
;;;1757   
;;;1758   	LCD_CmdWrite(0x6A);
000fd0  206a              MOVS     r0,#0x6a
000fd2  f7fffffe          BL       LCD_CmdWrite
;;;1759   	LCD_DataWrite(HY);
000fd6  b2d8              UXTB     r0,r3
000fd8  f7fffffe          BL       LCD_DataWrite
;;;1760   
;;;1761   	LCD_CmdWrite(0x6B);
000fdc  206b              MOVS     r0,#0x6b
000fde  f7fffffe          BL       LCD_CmdWrite
;;;1762   	LCD_DataWrite(HY>>8);
000fe2  0a18              LSRS     r0,r3,#8
000fe4  f85deb04          POP      {lr}
000fe8  f7ffbffe          B.W      LCD_DataWrite
;;;1763   }
;;;1764   
                          ENDP

                  Square_End_XY PROC
;;;1765   void Square_End_XY(uint16_t WX,uint16_t HY)
000fec  b500              PUSH     {lr}
;;;1766   {
000fee  4602              MOV      r2,r0
000ff0  460b              MOV      r3,r1
;;;1767   /*
;;;1768   [6Ch] Draw Line/Square/Triangle End X-coordination [7:0]
;;;1769   [6Dh] Draw Line/Square/Triangle End X-coordination [12:8]
;;;1770   [6Eh] Draw Line/Square/Triangle End Y-coordination [7:0]
;;;1771   [6Fh] Draw Line/Square/Triangle End Y-coordination [12:8]
;;;1772   */
;;;1773   	LCD_CmdWrite(0x6C);
000ff2  206c              MOVS     r0,#0x6c
000ff4  f7fffffe          BL       LCD_CmdWrite
;;;1774   	LCD_DataWrite(WX);
000ff8  b2d0              UXTB     r0,r2
000ffa  f7fffffe          BL       LCD_DataWrite
;;;1775   
;;;1776   	LCD_CmdWrite(0x6D);
000ffe  206d              MOVS     r0,#0x6d
001000  f7fffffe          BL       LCD_CmdWrite
;;;1777   	LCD_DataWrite(WX>>8);
001004  0a10              LSRS     r0,r2,#8
001006  f7fffffe          BL       LCD_DataWrite
;;;1778   
;;;1779   	LCD_CmdWrite(0x6E);
00100a  206e              MOVS     r0,#0x6e
00100c  f7fffffe          BL       LCD_CmdWrite
;;;1780   	LCD_DataWrite(HY);
001010  b2d8              UXTB     r0,r3
001012  f7fffffe          BL       LCD_DataWrite
;;;1781   
;;;1782   	LCD_CmdWrite(0x6F);
001016  206f              MOVS     r0,#0x6f
001018  f7fffffe          BL       LCD_CmdWrite
;;;1783   	LCD_DataWrite(HY>>8);
00101c  0a18              LSRS     r0,r3,#8
00101e  f85deb04          POP      {lr}
001022  f7ffbffe          B.W      LCD_DataWrite
;;;1784   }
;;;1785   
                          ENDP

                  Point PROC
;;;1786   //-----------------------------------------------------
;;;1787   void Point(uint16_t x,uint16_t y,uint16_t color)
001026  b510              PUSH     {r4,lr}
;;;1788   { //x=799-x;
001028  4603              MOV      r3,r0
00102a  460c              MOV      r4,r1
;;;1789   	Check_Mem_WR_FIFO_not_Full();
00102c  f7fffffe          BL       Check_Mem_WR_FIFO_not_Full
;;;1790   	LCD_CmdWrite(0x5e);
001030  205e              MOVS     r0,#0x5e
001032  f7fffffe          BL       LCD_CmdWrite
;;;1791   	LCD_DataWrite(0x01);
001036  2001              MOVS     r0,#1
001038  f7fffffe          BL       LCD_DataWrite
;;;1792   	
;;;1793   	LCD_CmdWrite(0x5f);
00103c  205f              MOVS     r0,#0x5f
00103e  f7fffffe          BL       LCD_CmdWrite
;;;1794   	LCD_DataWrite(x);
001042  b2d8              UXTB     r0,r3
001044  f7fffffe          BL       LCD_DataWrite
;;;1795   	LCD_CmdWrite(0x60);
001048  2060              MOVS     r0,#0x60
00104a  f7fffffe          BL       LCD_CmdWrite
;;;1796   	LCD_DataWrite(x>>8);
00104e  0a18              LSRS     r0,r3,#8
001050  f7fffffe          BL       LCD_DataWrite
;;;1797   
;;;1798   	LCD_CmdWrite(0x61);
001054  2061              MOVS     r0,#0x61
001056  f7fffffe          BL       LCD_CmdWrite
;;;1799   	LCD_DataWrite(y);
00105a  b2e0              UXTB     r0,r4
00105c  f7fffffe          BL       LCD_DataWrite
;;;1800   	LCD_CmdWrite(0x62);
001060  2062              MOVS     r0,#0x62
001062  f7fffffe          BL       LCD_CmdWrite
;;;1801   	LCD_DataWrite(y>>8);
001066  0a20              LSRS     r0,r4,#8
001068  f7fffffe          BL       LCD_DataWrite
;;;1802   		
;;;1803   	LCD_CmdWrite(0x04);
00106c  2004              MOVS     r0,#4
00106e  f7fffffe          BL       LCD_CmdWrite
;;;1804   	LCD_DataWrite_Pixel(color);
001072  e8bd4010          POP      {r4,lr}
001076  4610              MOV      r0,r2
001078  f7ffbffe          B.W      LCD_DataWrite_Pixel
;;;1805   }
;;;1806   
                          ENDP

                  Lines PROC
;;;1807   void Lines(uint16_t x1 ,uint16_t y1 ,uint16_t x2,uint16_t y2,uint16_t color)
00107c  b570              PUSH     {r4-r6,lr}
;;;1808   { 
00107e  4605              MOV      r5,r0
001080  9c04              LDR      r4,[sp,#0x10]
001082  460e              MOV      r6,r1
;;;1809   	uint8_t temp;
;;;1810   	//x1=799-x1,x2=799-x2;
;;;1811   	LCD_CmdWrite(0x68);
001084  2068              MOVS     r0,#0x68
001086  f7fffffe          BL       LCD_CmdWrite
;;;1812   	LCD_DataWrite(x1);
00108a  b2e8              UXTB     r0,r5
00108c  f7fffffe          BL       LCD_DataWrite
;;;1813   	LCD_CmdWrite(0x69);
001090  2069              MOVS     r0,#0x69
001092  f7fffffe          BL       LCD_CmdWrite
;;;1814   	LCD_DataWrite(x1>>8);
001096  0a28              LSRS     r0,r5,#8
001098  f7fffffe          BL       LCD_DataWrite
;;;1815   
;;;1816   	LCD_CmdWrite(0x6A);
00109c  206a              MOVS     r0,#0x6a
00109e  f7fffffe          BL       LCD_CmdWrite
;;;1817   	LCD_DataWrite(y1);
0010a2  b2f0              UXTB     r0,r6
0010a4  f7fffffe          BL       LCD_DataWrite
;;;1818   	LCD_CmdWrite(0x6B);
0010a8  206b              MOVS     r0,#0x6b
0010aa  f7fffffe          BL       LCD_CmdWrite
;;;1819   	LCD_DataWrite(y1>>8);
0010ae  0a30              LSRS     r0,r6,#8
0010b0  f7fffffe          BL       LCD_DataWrite
;;;1820   	
;;;1821   	LCD_CmdWrite(0x6C);
0010b4  206c              MOVS     r0,#0x6c
0010b6  f7fffffe          BL       LCD_CmdWrite
;;;1822   	LCD_DataWrite(x2);
0010ba  b2d0              UXTB     r0,r2
0010bc  f7fffffe          BL       LCD_DataWrite
;;;1823   	LCD_CmdWrite(0x6D);
0010c0  206d              MOVS     r0,#0x6d
0010c2  f7fffffe          BL       LCD_CmdWrite
;;;1824   	LCD_DataWrite(x2>>8);
0010c6  0a10              LSRS     r0,r2,#8
0010c8  f7fffffe          BL       LCD_DataWrite
;;;1825   
;;;1826   	LCD_CmdWrite(0x6E);
0010cc  206e              MOVS     r0,#0x6e
0010ce  f7fffffe          BL       LCD_CmdWrite
;;;1827   	LCD_DataWrite(y2);
0010d2  b2d8              UXTB     r0,r3
0010d4  f7fffffe          BL       LCD_DataWrite
;;;1828   	LCD_CmdWrite(0x6F);
0010d8  206f              MOVS     r0,#0x6f
0010da  f7fffffe          BL       LCD_CmdWrite
;;;1829   	LCD_DataWrite(y2>>8);
0010de  0a18              LSRS     r0,r3,#8
0010e0  f7fffffe          BL       LCD_DataWrite
;;;1830   	
;;;1831   	temp=color;
;;;1832   	temp=temp<<3;
0010e4  06e0              LSLS     r0,r4,#27
0010e6  0e02              LSRS     r2,r0,#24
;;;1833   	LCD_CmdWrite(0xD2);
0010e8  20d2              MOVS     r0,#0xd2
0010ea  f7fffffe          BL       LCD_CmdWrite
;;;1834   	LCD_DataWrite(temp);
0010ee  4610              MOV      r0,r2
0010f0  f7fffffe          BL       LCD_DataWrite
;;;1835   	temp=color>>3;
0010f4  08e0              LSRS     r0,r4,#3
;;;1836   	temp=temp & 0xfc;
0010f6  f00002fc          AND      r2,r0,#0xfc
;;;1837   	LCD_CmdWrite(0xD3);
0010fa  20d3              MOVS     r0,#0xd3
0010fc  f7fffffe          BL       LCD_CmdWrite
;;;1838   	LCD_DataWrite(temp);
001100  4610              MOV      r0,r2
001102  f7fffffe          BL       LCD_DataWrite
;;;1839   	temp=color>>8;
001106  0a20              LSRS     r0,r4,#8
;;;1840   	temp=temp & 0xf8;
001108  f00002f8          AND      r2,r0,#0xf8
;;;1841   	LCD_CmdWrite(0xD4);
00110c  20d4              MOVS     r0,#0xd4
00110e  f7fffffe          BL       LCD_CmdWrite
;;;1842   	LCD_DataWrite(temp);
001112  4610              MOV      r0,r2
001114  f7fffffe          BL       LCD_DataWrite
;;;1843   	
;;;1844   	LCD_CmdWrite(0x67);
001118  2067              MOVS     r0,#0x67
00111a  f7fffffe          BL       LCD_CmdWrite
;;;1845   	LCD_DataWrite(0x80);//B10000000
00111e  2080              MOVS     r0,#0x80
001120  f7fffffe          BL       LCD_DataWrite
;;;1846   	Check_Busy_Draw();
001124  e8bd4070          POP      {r4-r6,lr}
001128  f7ffbffe          B.W      Check_Busy_Draw
;;;1847   	/*int x,y,dx,dy,Dx,Dy,e,i;
;;;1848     Dx=x2-x1;
;;;1849     Dy=y2-y1;
;;;1850     dx=abs(x2-x1); //computes the absolute value of the floating-point number x2-x1.
;;;1851     dy=abs(y2-y1);
;;;1852     x=x1;
;;;1853     y=y1;
;;;1854     if(dy>dx)
;;;1855     {
;;;1856       e=-dy;
;;;1857       for(i=0;i<dy;i++)
;;;1858       {
;;;1859         Point(x,y,color);
;;;1860         if(Dy>=0) y++;  
;;;1861         else y--;   
;;;1862         e+=2*dx;
;;;1863         if(e>=0)
;;;1864         {
;;;1865           if(Dx>=0) x++;
;;;1866           else x--; 
;;;1867           e-=2*dy;
;;;1868         }
;;;1869       }
;;;1870     }
;;;1871     else
;;;1872     {
;;;1873       e=-dx;
;;;1874       for(i=0;i<dx;i++)
;;;1875       {
;;;1876         Point(x,y,color);
;;;1877         if(Dx>=0) x++;
;;;1878         else x--;
;;;1879         e+=2*dy;
;;;1880         if(e>=0)
;;;1881         {
;;;1882           if(Dy>=0) y++;
;;;1883           else y--;
;;;1884           e-=2*dx;
;;;1885         }
;;;1886       }
;;;1887     }*/
;;;1888   }	
;;;1889   void Images(uint16_t x,uint16_t y,const char h[],uint16_t number,uint16_t color1,uint16_t color2) 
                          ENDP

                  Images PROC
00112c  e92d4fff          PUSH     {r0-r11,lr}
;;;1890   {
001130  b083              SUB      sp,sp,#0xc
;;;1891    int16_t dx,i,j,k,color;
;;;1892    uint8_t a,b,c;
;;;1893    a=h[0];
001132  9805              LDR      r0,[sp,#0x14]
001134  f8908000          LDRB     r8,[r0,#0]
;;;1894    b=h[1];
001138  9805              LDR      r0,[sp,#0x14]
00113a  7840              LDRB     r0,[r0,#1]
00113c  9000              STR      r0,[sp,#0]
;;;1895    dx=2+a*b*number;
00113e  9800              LDR      r0,[sp,#0]
001140  fb18f000          SMULBB   r0,r8,r0
001144  4358              MULS     r0,r3,r0
001146  1c80              ADDS     r0,r0,#2
001148  b200              SXTH     r0,r0
00114a  9001              STR      r0,[sp,#4]
;;;1896    for (j=0;j<b;j++)
00114c  2700              MOVS     r7,#0
00114e  e02e              B        |L1.4526|
                  |L1.4432|
;;;1897   	{
;;;1898   			for ( i=0;i<a;i++)
001150  2500              MOVS     r5,#0
001152  e028              B        |L1.4518|
                  |L1.4436|
;;;1899         {   
;;;1900   				c=h[dx+j*a+i] ;
001154  9805              LDR      r0,[sp,#0x14]
001156  fb070108          MLA      r1,r7,r8,r0
00115a  9801              LDR      r0,[sp,#4]
00115c  4428              ADD      r0,r0,r5
00115e  5c0e              LDRB     r6,[r1,r0]
;;;1901           for (k=0;k<8 ;k++)
001160  2400              MOVS     r4,#0
;;;1902            {    
;;;1903   					 if (c&0x80)  color=color1;
001162  9810              LDR      r0,[sp,#0x40]
001164  fa0ff980          SXTH     r9,r0
;;;1904              else         color=color2;
001168  9811              LDR      r0,[sp,#0x44]
00116a  fa0ffa80          SXTH     r10,r0
;;;1905   					 Point(x+i*8+k,y+j,color);
00116e  9804              LDR      r0,[sp,#0x10]
001170  eb000b07          ADD      r11,r0,r7
001174  9803              LDR      r0,[sp,#0xc]
001176  eb0000c5          ADD      r0,r0,r5,LSL #3
00117a  9002              STR      r0,[sp,#8]
                  |L1.4476|
00117c  0630              LSLS     r0,r6,#24             ;1903
00117e  d501              BPL      |L1.4484|
001180  4648              MOV      r0,r9                 ;1903
001182  e000              B        |L1.4486|
                  |L1.4484|
001184  4650              MOV      r0,r10                ;1904
                  |L1.4486|
001186  b282              UXTH     r2,r0
001188  9802              LDR      r0,[sp,#8]
00118a  fa1ff18b          UXTH     r1,r11
00118e  4420              ADD      r0,r0,r4
001190  b280              UXTH     r0,r0
001192  f7fffffe          BL       Point
;;;1906              c=c<<1;
001196  0670              LSLS     r0,r6,#25
001198  0e06              LSRS     r6,r0,#24
00119a  1c64              ADDS     r4,r4,#1              ;1901
00119c  b224              SXTH     r4,r4                 ;1901
00119e  2c08              CMP      r4,#8                 ;1901
0011a0  dbec              BLT      |L1.4476|
0011a2  1c6d              ADDS     r5,r5,#1              ;1898
0011a4  b22d              SXTH     r5,r5                 ;1898
                  |L1.4518|
0011a6  4545              CMP      r5,r8                 ;1898
0011a8  dbd4              BLT      |L1.4436|
0011aa  1c7f              ADDS     r7,r7,#1              ;1896
0011ac  b23f              SXTH     r7,r7                 ;1896
                  |L1.4526|
0011ae  9800              LDR      r0,[sp,#0]            ;1896
0011b0  4287              CMP      r7,r0                 ;1896
0011b2  dbcd              BLT      |L1.4432|
;;;1907            }
;;;1908   		   }
;;;1909   		}	
;;;1910   }	
0011b4  b007              ADD      sp,sp,#0x1c
0011b6  e8bd8ff0          POP      {r4-r11,pc}
;;;1911   /*---------------------------------------*/
                          ENDP

                  MPU_Memory_Write_Window_8bit PROC
;;;1912   void MPU_Memory_Write_Window_8bit  //???????????????
0011ba  e92d4ff0          PUSH     {r4-r11,lr}
;;;1913   (
;;;1914    uint16_t x            // x??
;;;1915   ,uint16_t y            // y??
;;;1916   ,const char g[]
;;;1917   ,uint16_t number
;;;1918   ,uint16_t color1
;;;1919   ,uint16_t color2   // ??(8?)
;;;1920   )
;;;1921   { int16_t dx,i,j,k,color;
0011be  4604              MOV      r4,r0
0011c0  460d              MOV      r5,r1
0011c2  4690              MOV      r8,r2
;;;1922     uint8_t a,b,c;
;;;1923     a=g[0];
0011c4  f8987000          LDRB     r7,[r8,#0]
;;;1924     b=g[1];
0011c8  f8989001          LDRB     r9,[r8,#1]
;;;1925     dx=2+a*b*number;
0011cc  fb17f009          SMULBB   r0,r7,r9
0011d0  4358              MULS     r0,r3,r0
0011d2  1c80              ADDS     r0,r0,#2
0011d4  fa0ffa80          SXTH     r10,r0
;;;1926   	Graphic_Mode();
0011d8  f7fffffe          BL       Graphic_Mode
;;;1927     Active_Window_XY(x,y);
0011dc  4629              MOV      r1,r5
0011de  4620              MOV      r0,r4
0011e0  f7fffffe          BL       Active_Window_XY
;;;1928   	Active_Window_WH(a*8,b);
0011e4  00f8              LSLS     r0,r7,#3
0011e6  4649              MOV      r1,r9
0011e8  f7fffffe          BL       Active_Window_WH
;;;1929   	Goto_Pixel_XY(x,y);
0011ec  4629              MOV      r1,r5
0011ee  4620              MOV      r0,r4
0011f0  f7fffffe          BL       Goto_Pixel_XY
;;;1930   	LCD_CmdWrite(0x04);
0011f4  2004              MOVS     r0,#4
0011f6  f7fffffe          BL       LCD_CmdWrite
;;;1931   	for(j=0;j<b;j++)
0011fa  2600              MOVS     r6,#0
0011fc  e022              B        |L1.4676|
                  |L1.4606|
;;;1932   	{
;;;1933   		for(i=0;i<a;i++)
0011fe  2500              MOVS     r5,#0
001200  e01c              B        |L1.4668|
                  |L1.4610|
;;;1934   		{ 
;;;1935   			c=g[dx+j*a+i] ;
001202  fb068007          MLA      r0,r6,r7,r8
001206  eb0a0105          ADD      r1,r10,r5
00120a  5c44              LDRB     r4,[r0,r1]
;;;1936   			for (k=0;k<8 ;k++)
00120c  2300              MOVS     r3,#0
;;;1937            {    
;;;1938   					 if (c&0x80)  color=color1;
00120e  9809              LDR      r0,[sp,#0x24]
001210  b202              SXTH     r2,r0
;;;1939              else         color=color2;
001212  980a              LDR      r0,[sp,#0x28]
001214  fa0ffb80          SXTH     r11,r0
                  |L1.4632|
001218  0620              LSLS     r0,r4,#24             ;1938
00121a  d501              BPL      |L1.4640|
00121c  4611              MOV      r1,r2                 ;1938
00121e  e000              B        |L1.4642|
                  |L1.4640|
001220  4659              MOV      r1,r11
                  |L1.4642|
;;;1940   					 Check_Mem_WR_FIFO_not_Full();
001222  f7fffffe          BL       Check_Mem_WR_FIFO_not_Full
;;;1941   					 LCD_DataWrite_Pixel(color);
001226  b288              UXTH     r0,r1
001228  f7fffffe          BL       LCD_DataWrite_Pixel
;;;1942              c=c<<1;
00122c  0660              LSLS     r0,r4,#25
00122e  0e04              LSRS     r4,r0,#24
001230  1c5b              ADDS     r3,r3,#1              ;1936
001232  b21b              SXTH     r3,r3                 ;1936
001234  2b08              CMP      r3,#8                 ;1936
001236  dbef              BLT      |L1.4632|
001238  1c6d              ADDS     r5,r5,#1              ;1933
00123a  b22d              SXTH     r5,r5                 ;1933
                  |L1.4668|
00123c  42bd              CMP      r5,r7                 ;1933
00123e  dbe0              BLT      |L1.4610|
001240  1c76              ADDS     r6,r6,#1              ;1931
001242  b236              SXTH     r6,r6                 ;1931
                  |L1.4676|
001244  454e              CMP      r6,r9                 ;1931
001246  dbda              BLT      |L1.4606|
;;;1943            } 
;;;1944   			
;;;1945   		}
;;;1946   	}
;;;1947   	Check_Mem_WR_FIFO_Empty();
001248  f7fffffe          BL       Check_Mem_WR_FIFO_Empty
;;;1948   	Active_Window_XY(0,0);
00124c  2100              MOVS     r1,#0
00124e  4608              MOV      r0,r1
001250  f7fffffe          BL       Active_Window_XY
;;;1949   	Active_Window_WH(LCD_XSIZE_TFT,LCD_YSIZE_TFT);
001254  e8bd4ff0          POP      {r4-r11,lr}
001258  f44f7116          MOV      r1,#0x258
00125c  f44f6080          MOV      r0,#0x400
001260  e7fe              B        Active_Window_WH
;;;1950   }
;;;1951   /*---------------------------------------*/
                          ENDP

                  Start_Square_Fill PROC
;;;2102   }
;;;2103   void Start_Square_Fill(void)
001262  b500              PUSH     {lr}
;;;2104   {
;;;2105   	LCD_CmdWrite(0x76);
001264  2076              MOVS     r0,#0x76
001266  f7fffffe          BL       LCD_CmdWrite
;;;2106   	LCD_DataWrite(0xE0);//B1110_XXXX
00126a  20e0              MOVS     r0,#0xe0
00126c  f7fffffe          BL       LCD_DataWrite
;;;2107   	Check_Busy_Draw();
001270  f85deb04          POP      {lr}
001274  f7ffbffe          B.W      Check_Busy_Draw
;;;2108   }
;;;2109   void Start_Circle_Square(void)
                          ENDP

                  Foreground_color_65k PROC
;;;2967   } 
;;;2968   void Foreground_color_65k(uint16_t temp)
001278  b500              PUSH     {lr}
;;;2969   {
00127a  4602              MOV      r2,r0
;;;2970       LCD_CmdWrite(0xD2);
00127c  20d2              MOVS     r0,#0xd2
00127e  f7fffffe          BL       LCD_CmdWrite
;;;2971    	LCD_DataWrite(temp>>8);
001282  0a10              LSRS     r0,r2,#8
001284  f7fffffe          BL       LCD_DataWrite
;;;2972    
;;;2973       LCD_CmdWrite(0xD3);
001288  20d3              MOVS     r0,#0xd3
00128a  f7fffffe          BL       LCD_CmdWrite
;;;2974    	LCD_DataWrite(temp>>3);
00128e  f3c200c7          UBFX     r0,r2,#3,#8
001292  f7fffffe          BL       LCD_DataWrite
;;;2975     
;;;2976       LCD_CmdWrite(0xD4);
001296  20d4              MOVS     r0,#0xd4
001298  f7fffffe          BL       LCD_CmdWrite
;;;2977    	LCD_DataWrite(temp<<3);
00129c  06d0              LSLS     r0,r2,#27
00129e  0e00              LSRS     r0,r0,#24
0012a0  f85deb04          POP      {lr}
0012a4  f7ffbffe          B.W      LCD_DataWrite
;;;2978   }
;;;2979   //[93h][94h][95h][96h]=========================================================================
                          ENDP

                  Fills PROC
;;;1951   /*---------------------------------------*/
;;;1952   void Fills
0012a8  b5f0              PUSH     {r4-r7,lr}
;;;1953   (
;;;1954    uint16_t X1                // X1Î»ÖĂ
;;;1955   ,uint16_t Y1                // Y1Î»ÖĂ
;;;1956   ,uint16_t X2                // X2Î»ÖĂ
;;;1957   ,uint16_t Y2                // Y2Î»ÖĂ
;;;1958   ,unsigned long ForegroundColor    // ±łľ°ŃŐÉ«
;;;1959   )
;;;1960   {
0012aa  4606              MOV      r6,r0
0012ac  9805              LDR      r0,[sp,#0x14]
0012ae  460f              MOV      r7,r1
0012b0  4614              MOV      r4,r2
0012b2  461d              MOV      r5,r3
;;;1961   	Foreground_color_65k(ForegroundColor);
0012b4  b280              UXTH     r0,r0
0012b6  f7fffffe          BL       Foreground_color_65k
;;;1962     Square_Start_XY(X1,Y1);
0012ba  4639              MOV      r1,r7
0012bc  4630              MOV      r0,r6
0012be  f7fffffe          BL       Square_Start_XY
;;;1963     Square_End_XY(X2,Y2);
0012c2  4629              MOV      r1,r5
0012c4  4620              MOV      r0,r4
0012c6  f7fffffe          BL       Square_End_XY
;;;1964     Start_Square_Fill();
0012ca  f7fffffe          BL       Start_Square_Fill
;;;1965     Check_2D_Busy();
0012ce  e8bd40f0          POP      {r4-r7,lr}
0012d2  f7ffbffe          B.W      Check_2D_Busy
;;;1966   }
;;;1967   void ellipse(uint16_t x1 ,uint16_t y1 ,uint16_t r1,uint16_t r2,uint16_t color)
                          ENDP

                  ellipse PROC
0012d6  b570              PUSH     {r4-r6,lr}
;;;1968   { uint8_t temp;
0012d8  4605              MOV      r5,r0
0012da  9c04              LDR      r4,[sp,#0x10]
0012dc  460e              MOV      r6,r1
;;;1969   	LCD_CmdWrite(0x7b);
0012de  207b              MOVS     r0,#0x7b
0012e0  f7fffffe          BL       LCD_CmdWrite
;;;1970   	LCD_DataWrite(x1);
0012e4  b2e8              UXTB     r0,r5
0012e6  f7fffffe          BL       LCD_DataWrite
;;;1971   	LCD_CmdWrite(0x7c);
0012ea  207c              MOVS     r0,#0x7c
0012ec  f7fffffe          BL       LCD_CmdWrite
;;;1972   	LCD_DataWrite(x1>>8);
0012f0  0a28              LSRS     r0,r5,#8
0012f2  f7fffffe          BL       LCD_DataWrite
;;;1973   
;;;1974   	LCD_CmdWrite(0x7d);
0012f6  207d              MOVS     r0,#0x7d
0012f8  f7fffffe          BL       LCD_CmdWrite
;;;1975   	LCD_DataWrite(y1);
0012fc  b2f0              UXTB     r0,r6
0012fe  f7fffffe          BL       LCD_DataWrite
;;;1976   	LCD_CmdWrite(0x7e);
001302  207e              MOVS     r0,#0x7e
001304  f7fffffe          BL       LCD_CmdWrite
;;;1977   	LCD_DataWrite(y1>>8);
001308  0a30              LSRS     r0,r6,#8
00130a  f7fffffe          BL       LCD_DataWrite
;;;1978   	
;;;1979   	LCD_CmdWrite(0x77);
00130e  2077              MOVS     r0,#0x77
001310  f7fffffe          BL       LCD_CmdWrite
;;;1980   	LCD_DataWrite(r1);
001314  b2d0              UXTB     r0,r2
001316  f7fffffe          BL       LCD_DataWrite
;;;1981   	LCD_CmdWrite(0x78);
00131a  2078              MOVS     r0,#0x78
00131c  f7fffffe          BL       LCD_CmdWrite
;;;1982   	LCD_DataWrite(r1>>8);
001320  0a10              LSRS     r0,r2,#8
001322  f7fffffe          BL       LCD_DataWrite
;;;1983   
;;;1984   	LCD_CmdWrite(0x79);
001326  2079              MOVS     r0,#0x79
001328  f7fffffe          BL       LCD_CmdWrite
;;;1985   	LCD_DataWrite(r2);
00132c  b2d8              UXTB     r0,r3
00132e  f7fffffe          BL       LCD_DataWrite
;;;1986   	LCD_CmdWrite(0x7a);
001332  207a              MOVS     r0,#0x7a
001334  f7fffffe          BL       LCD_CmdWrite
;;;1987   	LCD_DataWrite(r2>>8);
001338  0a18              LSRS     r0,r3,#8
00133a  f7fffffe          BL       LCD_DataWrite
;;;1988   	
;;;1989   	temp=color;
;;;1990   	temp=temp<<3;
00133e  06e0              LSLS     r0,r4,#27
001340  0e02              LSRS     r2,r0,#24
;;;1991   	LCD_CmdWrite(0xD2);
001342  20d2              MOVS     r0,#0xd2
001344  f7fffffe          BL       LCD_CmdWrite
;;;1992   	LCD_DataWrite(temp);
001348  4610              MOV      r0,r2
00134a  f7fffffe          BL       LCD_DataWrite
;;;1993   	temp=color>>3;
00134e  08e0              LSRS     r0,r4,#3
;;;1994   	temp=temp & 0xfc;
001350  f00002fc          AND      r2,r0,#0xfc
;;;1995   	LCD_CmdWrite(0xD3);
001354  20d3              MOVS     r0,#0xd3
001356  f7fffffe          BL       LCD_CmdWrite
;;;1996   	LCD_DataWrite(temp);
00135a  4610              MOV      r0,r2
00135c  f7fffffe          BL       LCD_DataWrite
;;;1997   	temp=color>>8;
001360  0a20              LSRS     r0,r4,#8
;;;1998   	temp=temp & 0xf8;
001362  f00002f8          AND      r2,r0,#0xf8
;;;1999   	LCD_CmdWrite(0xD4);
001366  20d4              MOVS     r0,#0xd4
001368  f7fffffe          BL       LCD_CmdWrite
;;;2000   	LCD_DataWrite(temp);
00136c  4610              MOV      r0,r2
00136e  f7fffffe          BL       LCD_DataWrite
;;;2001   	
;;;2002   	LCD_CmdWrite(0x76);
001372  2076              MOVS     r0,#0x76
001374  f7fffffe          BL       LCD_CmdWrite
;;;2003   	LCD_DataWrite(0x80);//B10000000
001378  e8bd4070          POP      {r4-r6,lr}
00137c  2080              MOVS     r0,#0x80
00137e  f7ffbffe          B.W      LCD_DataWrite
;;;2004   	
;;;2005   }	
;;;2006   
                          ENDP

                  Start_Circle_or_Ellipse PROC
;;;2033   */
;;;2034   void Start_Circle_or_Ellipse(void)
001382  b500              PUSH     {lr}
;;;2035   {
;;;2036   	LCD_CmdWrite(0x76);
001384  2076              MOVS     r0,#0x76
001386  f7fffffe          BL       LCD_CmdWrite
;;;2037   	LCD_DataWrite(0x80);//B1000_XXXX
00138a  2080              MOVS     r0,#0x80
00138c  f7fffffe          BL       LCD_DataWrite
;;;2038   	Check_Busy_Draw();	
001390  f85deb04          POP      {lr}
001394  f7ffbffe          B.W      Check_Busy_Draw
;;;2039   }
;;;2040   void Start_Circle_or_Ellipse_Fill(void)
                          ENDP

                  Start_Circle_or_Ellipse_Fill PROC
001398  b500              PUSH     {lr}
;;;2041   {
;;;2042   	LCD_CmdWrite(0x76);
00139a  2076              MOVS     r0,#0x76
00139c  f7fffffe          BL       LCD_CmdWrite
;;;2043   	LCD_DataWrite(0xC0);//B1100_XXXX
0013a0  20c0              MOVS     r0,#0xc0
0013a2  f7fffffe          BL       LCD_DataWrite
;;;2044   	Check_Busy_Draw();	
0013a6  f85deb04          POP      {lr}
0013aa  f7ffbffe          B.W      Check_Busy_Draw
;;;2045   }
;;;2046   //
                          ENDP

                  Start_Left_Down_Curve PROC
;;;2047   void Start_Left_Down_Curve(void)
0013ae  b500              PUSH     {lr}
;;;2048   {
;;;2049   	LCD_CmdWrite(0x76);
0013b0  2076              MOVS     r0,#0x76
0013b2  f7fffffe          BL       LCD_CmdWrite
;;;2050   	LCD_DataWrite(0x90);//B1001_XX00
0013b6  2090              MOVS     r0,#0x90
0013b8  f7fffffe          BL       LCD_DataWrite
;;;2051   	Check_Busy_Draw();	
0013bc  f85deb04          POP      {lr}
0013c0  f7ffbffe          B.W      Check_Busy_Draw
;;;2052   }
;;;2053   void Start_Left_Up_Curve(void)
                          ENDP

                  Start_Left_Up_Curve PROC
0013c4  b500              PUSH     {lr}
;;;2054   {
;;;2055   	LCD_CmdWrite(0x76);
0013c6  2076              MOVS     r0,#0x76
0013c8  f7fffffe          BL       LCD_CmdWrite
;;;2056   	LCD_DataWrite(0x91);//B1001_XX01
0013cc  2091              MOVS     r0,#0x91
0013ce  f7fffffe          BL       LCD_DataWrite
;;;2057   	Check_Busy_Draw();	
0013d2  f85deb04          POP      {lr}
0013d6  f7ffbffe          B.W      Check_Busy_Draw
;;;2058   }
;;;2059   void Start_Right_Up_Curve(void)
                          ENDP

                  Start_Right_Up_Curve PROC
0013da  b500              PUSH     {lr}
;;;2060   {
;;;2061   	LCD_CmdWrite(0x76);
0013dc  2076              MOVS     r0,#0x76
0013de  f7fffffe          BL       LCD_CmdWrite
;;;2062   	LCD_DataWrite(0x92);//B1001_XX10
0013e2  2092              MOVS     r0,#0x92
0013e4  f7fffffe          BL       LCD_DataWrite
;;;2063   	Check_Busy_Draw();	
0013e8  f85deb04          POP      {lr}
0013ec  f7ffbffe          B.W      Check_Busy_Draw
;;;2064   }
;;;2065   void Start_Right_Down_Curve(void)
                          ENDP

                  Start_Right_Down_Curve PROC
0013f0  b500              PUSH     {lr}
;;;2066   {
;;;2067   	LCD_CmdWrite(0x76);
0013f2  2076              MOVS     r0,#0x76
0013f4  f7fffffe          BL       LCD_CmdWrite
;;;2068   	LCD_DataWrite(0x93);//B1001_XX11
0013f8  2093              MOVS     r0,#0x93
0013fa  f7fffffe          BL       LCD_DataWrite
;;;2069   	Check_Busy_Draw();	
0013fe  f85deb04          POP      {lr}
001402  f7ffbffe          B.W      Check_Busy_Draw
;;;2070   }
;;;2071   //
                          ENDP

                  Start_Left_Down_Curve_Fill PROC
;;;2072   void Start_Left_Down_Curve_Fill(void)
001406  b500              PUSH     {lr}
;;;2073   {
;;;2074   	LCD_CmdWrite(0x76);
001408  2076              MOVS     r0,#0x76
00140a  f7fffffe          BL       LCD_CmdWrite
;;;2075   	LCD_DataWrite(0xD0);//B1101_XX00
00140e  20d0              MOVS     r0,#0xd0
001410  f7fffffe          BL       LCD_DataWrite
;;;2076   	Check_Busy_Draw();
001414  f85deb04          POP      {lr}
001418  f7ffbffe          B.W      Check_Busy_Draw
;;;2077   }
;;;2078   void Start_Left_Up_Curve_Fill(void)
                          ENDP

                  Start_Left_Up_Curve_Fill PROC
00141c  b500              PUSH     {lr}
;;;2079   {
;;;2080   	LCD_CmdWrite(0x76);
00141e  2076              MOVS     r0,#0x76
001420  f7fffffe          BL       LCD_CmdWrite
;;;2081   	LCD_DataWrite(0xD1);//B1101_XX01
001424  20d1              MOVS     r0,#0xd1
001426  f7fffffe          BL       LCD_DataWrite
;;;2082   	Check_Busy_Draw();
00142a  f85deb04          POP      {lr}
00142e  f7ffbffe          B.W      Check_Busy_Draw
;;;2083   }
;;;2084   void Start_Right_Up_Curve_Fill(void)
                          ENDP

                  Start_Right_Up_Curve_Fill PROC
001432  b500              PUSH     {lr}
;;;2085   {
;;;2086   	LCD_CmdWrite(0x76);
001434  2076              MOVS     r0,#0x76
001436  f7fffffe          BL       LCD_CmdWrite
;;;2087   	LCD_DataWrite(0xD2);//B1101_XX10
00143a  20d2              MOVS     r0,#0xd2
00143c  f7fffffe          BL       LCD_DataWrite
;;;2088   	Check_Busy_Draw();
001440  f85deb04          POP      {lr}
001444  f7ffbffe          B.W      Check_Busy_Draw
;;;2089   }
;;;2090   void Start_Right_Down_Curve_Fill(void)
                          ENDP

                  Start_Right_Down_Curve_Fill PROC
001448  b500              PUSH     {lr}
;;;2091   {
;;;2092   	LCD_CmdWrite(0x76);
00144a  2076              MOVS     r0,#0x76
00144c  f7fffffe          BL       LCD_CmdWrite
;;;2093   	LCD_DataWrite(0xD3);//B1101_XX11
001450  20d3              MOVS     r0,#0xd3
001452  f7fffffe          BL       LCD_DataWrite
;;;2094   	Check_Busy_Draw();
001456  f85deb04          POP      {lr}
00145a  f7ffbffe          B.W      Check_Busy_Draw
;;;2095   }
;;;2096   //
                          ENDP

                  Start_Square PROC
;;;2097   void Start_Square(void)
00145e  b500              PUSH     {lr}
;;;2098   {
;;;2099   	LCD_CmdWrite(0x76);
001460  2076              MOVS     r0,#0x76
001462  f7fffffe          BL       LCD_CmdWrite
;;;2100   	LCD_DataWrite(0xA0);//B1010_XXXX
001466  20a0              MOVS     r0,#0xa0
001468  f7fffffe          BL       LCD_DataWrite
;;;2101   	Check_Busy_Draw();
00146c  f85deb04          POP      {lr}
001470  f7ffbffe          B.W      Check_Busy_Draw
;;;2102   }
;;;2103   void Start_Square_Fill(void)
                          ENDP

                  Start_Circle_Square PROC
;;;2108   }
;;;2109   void Start_Circle_Square(void)
001474  b500              PUSH     {lr}
;;;2110   {
;;;2111   	LCD_CmdWrite(0x76);
001476  2076              MOVS     r0,#0x76
001478  f7fffffe          BL       LCD_CmdWrite
;;;2112   	LCD_DataWrite(0xB0);//B1011_XXXX
00147c  20b0              MOVS     r0,#0xb0
00147e  f7fffffe          BL       LCD_DataWrite
;;;2113   	Check_Busy_Draw();	
001482  f85deb04          POP      {lr}
001486  f7ffbffe          B.W      Check_Busy_Draw
;;;2114   }
;;;2115   void Start_Circle_Square_Fill(void)
                          ENDP

                  Start_Circle_Square_Fill PROC
00148a  b500              PUSH     {lr}
;;;2116   {
;;;2117   	LCD_CmdWrite(0x76);
00148c  2076              MOVS     r0,#0x76
00148e  f7fffffe          BL       LCD_CmdWrite
;;;2118   	LCD_DataWrite(0xF0);//B1111_XXXX
001492  20f0              MOVS     r0,#0xf0
001494  f7fffffe          BL       LCD_DataWrite
;;;2119   	Check_Busy_Draw();	
001498  f85deb04          POP      {lr}
00149c  f7ffbffe          B.W      Check_Busy_Draw
;;;2120   }
;;;2121   //[77h]~[7Eh]=========================================================================
                          ENDP

                  Circle_Center_XY PROC
;;;2122   //¶ę¤¤¤ß
;;;2123   void Circle_Center_XY(unsigned short WX,unsigned short HY)
0014a0  b500              PUSH     {lr}
;;;2124   {
0014a2  4602              MOV      r2,r0
0014a4  460b              MOV      r3,r1
;;;2125   /*
;;;2126   [7Bh] Draw Circle/Ellipse/Circle Square Center X-coordination [7:0]
;;;2127   [7Ch] Draw Circle/Ellipse/Circle Square Center X-coordination [12:8]
;;;2128   [7Dh] Draw Circle/Ellipse/Circle Square Center Y-coordination [7:0]
;;;2129   [7Eh] Draw Circle/Ellipse/Circle Square Center Y-coordination [12:8]
;;;2130   */
;;;2131   	LCD_CmdWrite(0x7B);
0014a6  207b              MOVS     r0,#0x7b
0014a8  f7fffffe          BL       LCD_CmdWrite
;;;2132   	LCD_DataWrite(WX);
0014ac  b2d0              UXTB     r0,r2
0014ae  f7fffffe          BL       LCD_DataWrite
;;;2133   
;;;2134   	LCD_CmdWrite(0x7C);
0014b2  207c              MOVS     r0,#0x7c
0014b4  f7fffffe          BL       LCD_CmdWrite
;;;2135   	LCD_DataWrite(WX>>8);
0014b8  0a10              LSRS     r0,r2,#8
0014ba  f7fffffe          BL       LCD_DataWrite
;;;2136   
;;;2137   	LCD_CmdWrite(0x7D);
0014be  207d              MOVS     r0,#0x7d
0014c0  f7fffffe          BL       LCD_CmdWrite
;;;2138   	LCD_DataWrite(HY);
0014c4  b2d8              UXTB     r0,r3
0014c6  f7fffffe          BL       LCD_DataWrite
;;;2139   
;;;2140   	LCD_CmdWrite(0x7E);
0014ca  207e              MOVS     r0,#0x7e
0014cc  f7fffffe          BL       LCD_CmdWrite
;;;2141   	LCD_DataWrite(HY>>8);
0014d0  0a18              LSRS     r0,r3,#8
0014d2  f85deb04          POP      {lr}
0014d6  f7ffbffe          B.W      LCD_DataWrite
;;;2142   }
;;;2143   //ľň¶ę¤¤¤ß
                          ENDP

                  Ellipse_Center_XY PROC
;;;2144   void Ellipse_Center_XY(unsigned short WX,unsigned short HY)
0014da  b500              PUSH     {lr}
;;;2145   {
0014dc  4602              MOV      r2,r0
0014de  460b              MOV      r3,r1
;;;2146   /*
;;;2147   [7Bh] Draw Circle/Ellipse/Circle Square Center X-coordination [7:0]
;;;2148   [7Ch] Draw Circle/Ellipse/Circle Square Center X-coordination [12:8]
;;;2149   [7Dh] Draw Circle/Ellipse/Circle Square Center Y-coordination [7:0]
;;;2150   [7Eh] Draw Circle/Ellipse/Circle Square Center Y-coordination [12:8]
;;;2151   */
;;;2152   	LCD_CmdWrite(0x7B);
0014e0  207b              MOVS     r0,#0x7b
0014e2  f7fffffe          BL       LCD_CmdWrite
;;;2153   	LCD_DataWrite(WX);
0014e6  b2d0              UXTB     r0,r2
0014e8  f7fffffe          BL       LCD_DataWrite
;;;2154   
;;;2155   	LCD_CmdWrite(0x7C);
0014ec  207c              MOVS     r0,#0x7c
0014ee  f7fffffe          BL       LCD_CmdWrite
;;;2156   	LCD_DataWrite(WX>>8);
0014f2  0a10              LSRS     r0,r2,#8
0014f4  f7fffffe          BL       LCD_DataWrite
;;;2157   
;;;2158   	LCD_CmdWrite(0x7D);
0014f8  207d              MOVS     r0,#0x7d
0014fa  f7fffffe          BL       LCD_CmdWrite
;;;2159   	LCD_DataWrite(HY);
0014fe  b2d8              UXTB     r0,r3
001500  f7fffffe          BL       LCD_DataWrite
;;;2160   
;;;2161   	LCD_CmdWrite(0x7E);
001504  207e              MOVS     r0,#0x7e
001506  f7fffffe          BL       LCD_CmdWrite
;;;2162   	LCD_DataWrite(HY>>8);
00150a  0a18              LSRS     r0,r3,#8
00150c  f85deb04          POP      {lr}
001510  f7ffbffe          B.W      LCD_DataWrite
;;;2163   }
;;;2164   //¶ęĄb®|
                          ENDP

                  Circle_Radius_R PROC
;;;2165   void Circle_Radius_R(unsigned short WX)
001514  b500              PUSH     {lr}
;;;2166   {
001516  4602              MOV      r2,r0
;;;2167   /*
;;;2168   [77h] Draw Circle/Ellipse/Circle Square Major radius [7:0]
;;;2169   [78h] Draw Circle/Ellipse/Circle Square Major radius [12:8]
;;;2170   [79h] Draw Circle/Ellipse/Circle Square Minor radius [7:0]
;;;2171   [7Ah] Draw Circle/Ellipse/Circle Square Minor radius [12:8]
;;;2172   */
;;;2173   	LCD_CmdWrite(0x77);
001518  2077              MOVS     r0,#0x77
00151a  f7fffffe          BL       LCD_CmdWrite
;;;2174   	LCD_DataWrite(WX);
00151e  b2d0              UXTB     r0,r2
001520  f7fffffe          BL       LCD_DataWrite
;;;2175   
;;;2176   	LCD_CmdWrite(0x78);
001524  2078              MOVS     r0,#0x78
001526  f7fffffe          BL       LCD_CmdWrite
;;;2177   	LCD_DataWrite(WX>>8);
00152a  0a13              LSRS     r3,r2,#8
00152c  4618              MOV      r0,r3
00152e  f7fffffe          BL       LCD_DataWrite
;;;2178   
;;;2179   	LCD_CmdWrite(0x79);
001532  2079              MOVS     r0,#0x79
001534  f7fffffe          BL       LCD_CmdWrite
;;;2180   	LCD_DataWrite(WX);
001538  b2d0              UXTB     r0,r2
00153a  f7fffffe          BL       LCD_DataWrite
;;;2181   
;;;2182   	LCD_CmdWrite(0x7A);
00153e  207a              MOVS     r0,#0x7a
001540  f7fffffe          BL       LCD_CmdWrite
;;;2183   	LCD_DataWrite(WX>>8);
001544  4618              MOV      r0,r3
001546  f85deb04          POP      {lr}
00154a  f7ffbffe          B.W      LCD_DataWrite
;;;2184   }
;;;2185   
                          ENDP

                  Ellipse_Radius_RxRy PROC
;;;2186   //ľň¶ęĄb®|
;;;2187   void Ellipse_Radius_RxRy(unsigned short WX,unsigned short HY)
00154e  b500              PUSH     {lr}
;;;2188   {
001550  4602              MOV      r2,r0
001552  460b              MOV      r3,r1
;;;2189   /*
;;;2190   [77h] Draw Circle/Ellipse/Circle Square Major radius [7:0]
;;;2191   [78h] Draw Circle/Ellipse/Circle Square Major radius [12:8]
;;;2192   [79h] Draw Circle/Ellipse/Circle Square Minor radius [7:0]
;;;2193   [7Ah] Draw Circle/Ellipse/Circle Square Minor radius [12:8]
;;;2194   */
;;;2195   	LCD_CmdWrite(0x77);
001554  2077              MOVS     r0,#0x77
001556  f7fffffe          BL       LCD_CmdWrite
;;;2196   	LCD_DataWrite(WX);
00155a  b2d0              UXTB     r0,r2
00155c  f7fffffe          BL       LCD_DataWrite
;;;2197   
;;;2198   	LCD_CmdWrite(0x78);
001560  2078              MOVS     r0,#0x78
001562  f7fffffe          BL       LCD_CmdWrite
;;;2199   	LCD_DataWrite(WX>>8);
001566  0a10              LSRS     r0,r2,#8
001568  f7fffffe          BL       LCD_DataWrite
;;;2200   
;;;2201   	LCD_CmdWrite(0x79);
00156c  2079              MOVS     r0,#0x79
00156e  f7fffffe          BL       LCD_CmdWrite
;;;2202   	LCD_DataWrite(HY);
001572  b2d8              UXTB     r0,r3
001574  f7fffffe          BL       LCD_DataWrite
;;;2203   
;;;2204   	LCD_CmdWrite(0x7A);
001578  207a              MOVS     r0,#0x7a
00157a  f7fffffe          BL       LCD_CmdWrite
;;;2205   	LCD_DataWrite(HY>>8);
00157e  0a18              LSRS     r0,r3,#8
001580  f85deb04          POP      {lr}
001584  f7ffbffe          B.W      LCD_DataWrite
;;;2206   }
;;;2207   
                          ENDP

                  Circle_Square_Radius_RxRy PROC
;;;2208   //č§ÎÂŕ¨b®|
;;;2209   void Circle_Square_Radius_RxRy(unsigned short WX,unsigned short HY)
001588  b500              PUSH     {lr}
;;;2210   {
00158a  4602              MOV      r2,r0
00158c  460b              MOV      r3,r1
;;;2211   /*
;;;2212   [77h] Draw Circle/Ellipse/Circle Square Major radius [7:0]
;;;2213   [78h] Draw Circle/Ellipse/Circle Square Major radius [12:8]
;;;2214   [79h] Draw Circle/Ellipse/Circle Square Minor radius [7:0]
;;;2215   [7Ah] Draw Circle/Ellipse/Circle Square Minor radius [12:8]
;;;2216   */
;;;2217   	LCD_CmdWrite(0x77);
00158e  2077              MOVS     r0,#0x77
001590  f7fffffe          BL       LCD_CmdWrite
;;;2218   	LCD_DataWrite(WX);
001594  b2d0              UXTB     r0,r2
001596  f7fffffe          BL       LCD_DataWrite
;;;2219   
;;;2220   	LCD_CmdWrite(0x78);
00159a  2078              MOVS     r0,#0x78
00159c  f7fffffe          BL       LCD_CmdWrite
;;;2221   	LCD_DataWrite(WX>>8);
0015a0  0a10              LSRS     r0,r2,#8
0015a2  f7fffffe          BL       LCD_DataWrite
;;;2222   
;;;2223   	LCD_CmdWrite(0x79);
0015a6  2079              MOVS     r0,#0x79
0015a8  f7fffffe          BL       LCD_CmdWrite
;;;2224   	LCD_DataWrite(HY);
0015ac  b2d8              UXTB     r0,r3
0015ae  f7fffffe          BL       LCD_DataWrite
;;;2225   
;;;2226   	LCD_CmdWrite(0x7A);
0015b2  207a              MOVS     r0,#0x7a
0015b4  f7fffffe          BL       LCD_CmdWrite
;;;2227   	LCD_DataWrite(HY>>8);
0015b8  0a18              LSRS     r0,r3,#8
0015ba  f85deb04          POP      {lr}
0015be  f7ffbffe          B.W      LCD_DataWrite
;;;2228   }
;;;2229   
                          ENDP

                  Select_PWM1_is_ErrorFlag PROC
;;;2362   */
;;;2363   void Select_PWM1_is_ErrorFlag(void)
0015c2  b500              PUSH     {lr}
;;;2364   {
;;;2365   	uint8_t temp;
;;;2366   	
;;;2367   	LCD_CmdWrite(0x85);
0015c4  2085              MOVS     r0,#0x85
0015c6  f7fffffe          BL       LCD_CmdWrite
;;;2368   	temp = LCD_DataRead();
0015ca  f7fffffe          BL       LCD_DataRead
;;;2369   	temp &= cClrb3;
0015ce  f00000f7          AND      r0,r0,#0xf7
;;;2370   	LCD_DataWrite(temp);
0015d2  f85deb04          POP      {lr}
0015d6  f7ffbffe          B.W      LCD_DataWrite
;;;2371   }
;;;2372   void Select_PWM1(void)
                          ENDP

                  BTE_Enable PROC
;;;2516   //[90h]=========================================================================
;;;2517   void BTE_Enable(void)
0015da  b500              PUSH     {lr}
;;;2518   {	
;;;2519   /*
;;;2520   BTE Function Enable
;;;2521   0 : BTE Function disable.
;;;2522   1 : BTE Function enable.
;;;2523   */
;;;2524       unsigned char temp;
;;;2525       LCD_CmdWrite(0x90);
0015dc  2090              MOVS     r0,#0x90
0015de  f7fffffe          BL       LCD_CmdWrite
;;;2526       temp = LCD_DataRead();
0015e2  f7fffffe          BL       LCD_DataRead
0015e6  b2c0              UXTB     r0,r0
;;;2527       temp |= cSetb4 ;
0015e8  f0400010          ORR      r0,r0,#0x10
;;;2528   	LCD_DataWrite(temp);  
0015ec  f85deb04          POP      {lr}
0015f0  f7ffbffe          B.W      LCD_DataWrite
;;;2529   }
;;;2530   
                          ENDP

                  BTE_Disable PROC
;;;2531   //[90h]=========================================================================
;;;2532   void BTE_Disable(void)
0015f4  b500              PUSH     {lr}
;;;2533   {	
;;;2534   /*
;;;2535   BTE Function Enable
;;;2536   0 : BTE Function disable.
;;;2537   1 : BTE Function enable.
;;;2538   */
;;;2539       unsigned char temp;
;;;2540       LCD_CmdWrite(0x90);
0015f6  2090              MOVS     r0,#0x90
0015f8  f7fffffe          BL       LCD_CmdWrite
;;;2541       temp = LCD_DataRead();
0015fc  f7fffffe          BL       LCD_DataRead
;;;2542       temp &= cClrb4 ;
001600  f00000ef          AND      r0,r0,#0xef
;;;2543   	LCD_DataWrite(temp);  
001604  f85deb04          POP      {lr}
001608  f7ffbffe          B.W      LCD_DataWrite
;;;2544   }
;;;2545   
                          ENDP

                  Check_BTE_Busy PROC
;;;2546   //[90h]=========================================================================
;;;2547   void Check_BTE_Busy(void)
00160c  b500              PUSH     {lr}
                  |L1.5646|
;;;2548   {	
;;;2549   /*
;;;2550   BTE Function Status
;;;2551   0 : BTE Function is idle.
;;;2552   1 : BTE Function is busy.
;;;2553   */
;;;2554   	unsigned char temp; 	
;;;2555   	do
;;;2556   	{
;;;2557   		temp=LCD_StatusRead();
00160e  f7fffffe          BL       LCD_StatusRead
;;;2558   	}while(temp&0x08);
001612  0700              LSLS     r0,r0,#28
001614  d4fb              BMI      |L1.5646|
;;;2559   
;;;2560   }
001616  bd00              POP      {pc}
;;;2561   //[90h]=========================================================================
                          ENDP

                  Pattern_Format_8X8 PROC
;;;2562   void Pattern_Format_8X8(void)
001618  b500              PUSH     {lr}
;;;2563   {	
;;;2564   /*
;;;2565   Pattern Format
;;;2566   0 : 8X8
;;;2567   1 : 16X16
;;;2568   */
;;;2569       unsigned char temp;
;;;2570       LCD_CmdWrite(0x90);
00161a  2090              MOVS     r0,#0x90
00161c  f7fffffe          BL       LCD_CmdWrite
;;;2571       temp = LCD_DataRead();
001620  f7fffffe          BL       LCD_DataRead
;;;2572       temp &= cClrb0 ;
001624  f00000fe          AND      r0,r0,#0xfe
;;;2573   	LCD_DataWrite(temp);
001628  f85deb04          POP      {lr}
00162c  f7ffbffe          B.W      LCD_DataWrite
;;;2574   }	
;;;2575   //[90h]=========================================================================
                          ENDP

                  Pattern_Format_16X16 PROC
;;;2576   void Pattern_Format_16X16(void)
001630  b500              PUSH     {lr}
;;;2577   {	
;;;2578   /*
;;;2579   Pattern Format
;;;2580   0 : 8X8
;;;2581   1 : 16X16
;;;2582   */
;;;2583       unsigned char temp;
;;;2584       LCD_CmdWrite(0x90);
001632  2090              MOVS     r0,#0x90
001634  f7fffffe          BL       LCD_CmdWrite
;;;2585       temp = LCD_DataRead();
001638  f7fffffe          BL       LCD_DataRead
00163c  b2c0              UXTB     r0,r0
;;;2586       temp |= cSetb0 ;
00163e  f0400001          ORR      r0,r0,#1
;;;2587   	  LCD_DataWrite(temp);
001642  f85deb04          POP      {lr}
001646  f7ffbffe          B.W      LCD_DataWrite
;;;2588   }	
;;;2589   
                          ENDP

                  BTE_Operation_Code PROC
;;;2590   //[91h]=========================================================================
;;;2591   void BTE_Operation_Code(unsigned char setx)
00164a  b500              PUSH     {lr}
;;;2592   {	
00164c  4602              MOV      r2,r0
;;;2593   /*
;;;2594   BTE Operation Code[Bit3:0]
;;;2595   	
;;;2596   0000 : MPU Write BTE with ROP.
;;;2597   0001 : MPU Read BTE w/o ROP.
;;;2598   0010 : Memory copy (move) BTE in positive direction with ROP.
;;;2599   0011 : Memory copy (move) BTE in negative direction with ROP.
;;;2600   0100 : MPU Transparent Write BTE. (w/o ROP.)
;;;2601   0101 : Transparent Memory copy (move) BTE in positive direction (w/o ROP.)
;;;2602   0110 : Pattern Fill with ROP.
;;;2603   0111 : Pattern Fill with key-chroma
;;;2604   1000 : Color Expansion
;;;2605   1001 : Color Expansion with transparency
;;;2606   1010 : Move BTE in positive direction with Alpha blending
;;;2607   1011 : MPU Write BTE with Alpha blending
;;;2608   1100 : Solid Fill
;;;2609   1101 : Reserved
;;;2610   1110 : Reserved
;;;2611   1111 : Reserved
;;;2612   */
;;;2613       unsigned char temp;
;;;2614       LCD_CmdWrite(0x91);
00164e  2091              MOVS     r0,#0x91
001650  f7fffffe          BL       LCD_CmdWrite
;;;2615       temp = LCD_DataRead();
001654  f7fffffe          BL       LCD_DataRead
;;;2616       temp &= 0xf0 ;
001658  f00000f0          AND      r0,r0,#0xf0
;;;2617   		temp |= setx ;
00165c  4310              ORRS     r0,r0,r2
;;;2618   	  LCD_DataWrite(temp);
00165e  f85deb04          POP      {lr}
001662  f7ffbffe          B.W      LCD_DataWrite
;;;2619   
;;;2620   }
;;;2621   void BTE_ROP_Code(unsigned char setx)
                          ENDP

                  BTE_ROP_Code PROC
001666  b500              PUSH     {lr}
;;;2622   {	
001668  4602              MOV      r2,r0
;;;2623   /*
;;;2624   BTE ROP Code[Bit7:4]
;;;2625   	
;;;2626   0000 : 0(Blackness)
;;;2627   0001 : ~S0.~S1 or ~ ( S0+S1 )
;;;2628   0010 : ~S0.S1
;;;2629   0011 : ~S0
;;;2630   0100 : S0.~S1
;;;2631   0101 : ~S1
;;;2632   0110 : S0^S1
;;;2633   0111 : ~S0+~S1 or ~ ( S0.S1 )
;;;2634   1000 : S0.S1
;;;2635   1001 : ~ ( S0^S1 )
;;;2636   1010 : S1
;;;2637   1011 : ~S0+S1
;;;2638   1100 : S0
;;;2639   1101 : S0+~S1
;;;2640   1110 : S0+S1
;;;2641   1111 : 1 ( Whiteness )
;;;2642   */
;;;2643       unsigned char temp;
;;;2644       LCD_CmdWrite(0x91);
00166a  2091              MOVS     r0,#0x91
00166c  f7fffffe          BL       LCD_CmdWrite
;;;2645       temp = LCD_DataRead();
001670  f7fffffe          BL       LCD_DataRead
;;;2646       temp &= 0x0f ;
001674  f000000f          AND      r0,r0,#0xf
;;;2647   		temp |= (setx<<4);
001678  ea401002          ORR      r0,r0,r2,LSL #4
00167c  b2c0              UXTB     r0,r0
;;;2648   	  LCD_DataWrite(temp);
00167e  f85deb04          POP      {lr}
001682  f7ffbffe          B.W      LCD_DataWrite
;;;2649   }
;;;2650   //[92h]=========================================================================
                          ENDP

                  BTE_S0_Color_16bpp PROC
;;;2651   void BTE_S0_Color_16bpp(void)
001686  b500              PUSH     {lr}
;;;2652   {	
;;;2653   /*
;;;2654   S0 Color Depth
;;;2655   00 : 256 Color
;;;2656   01 : 64k Color
;;;2657   1x : 16M Color
;;;2658   */	
;;;2659       unsigned char temp;
;;;2660       LCD_CmdWrite(0x92);
001688  2092              MOVS     r0,#0x92
00168a  f7fffffe          BL       LCD_CmdWrite
;;;2661       temp = LCD_DataRead();
00168e  f7fffffe          BL       LCD_DataRead
;;;2662       temp &= cClrb6 ;
001692  f00000bf          AND      r0,r0,#0xbf
;;;2663   		temp |= cSetb5 ;
001696  f0400020          ORR      r0,r0,#0x20
;;;2664   	  LCD_DataWrite(temp);
00169a  f85deb04          POP      {lr}
00169e  f7ffbffe          B.W      LCD_DataWrite
;;;2665   
;;;2666   }	
;;;2667   //[92h]=========================================================================
                          ENDP

                  BTE_S0_Color_24bpp PROC
;;;2668   void BTE_S0_Color_24bpp(void)
0016a2  b500              PUSH     {lr}
;;;2669   {	
;;;2670   /*
;;;2671   S0 Color Depth
;;;2672   00 : 256 Color
;;;2673   01 : 64k Color
;;;2674   1x : 16M Color
;;;2675   */	
;;;2676       unsigned char temp;
;;;2677       LCD_CmdWrite(0x92);
0016a4  2092              MOVS     r0,#0x92
0016a6  f7fffffe          BL       LCD_CmdWrite
;;;2678       temp = LCD_DataRead();
0016aa  f7fffffe          BL       LCD_DataRead
0016ae  b2c0              UXTB     r0,r0
;;;2679       temp |= cSetb6 ;
0016b0  f0400040          ORR      r0,r0,#0x40
;;;2680   		//temp |= cSetb5 ;
;;;2681   	  LCD_DataWrite(temp);
0016b4  f85deb04          POP      {lr}
0016b8  f7ffbffe          B.W      LCD_DataWrite
;;;2682   }
;;;2683   //[92h]=========================================================================
                          ENDP

                  BTE_S1_Color_8bpp PROC
;;;2684   void BTE_S1_Color_8bpp(void)
0016bc  b500              PUSH     {lr}
;;;2685   {	
;;;2686   /*
;;;2687   S1 Color Depth
;;;2688   000 : 256 Color
;;;2689   001 : 64k Color
;;;2690   010 : 16M Color
;;;2691   011 : Constant Color
;;;2692   100 : 8 bit pixel alpha blending
;;;2693   101 : 16 bit pixel alpha blending
;;;2694   */	
;;;2695       unsigned char temp;
;;;2696       LCD_CmdWrite(0x92);
0016be  2092              MOVS     r0,#0x92
0016c0  f7fffffe          BL       LCD_CmdWrite
;;;2697       temp = LCD_DataRead();
0016c4  f7fffffe          BL       LCD_DataRead
;;;2698       temp &= cClrb4 ;
0016c8  f00000ef          AND      r0,r0,#0xef
;;;2699   		temp &= cClrb3 ;
0016cc  f00000f7          AND      r0,r0,#0xf7
;;;2700   	  temp &= cClrb2 ;
0016d0  f00000fb          AND      r0,r0,#0xfb
;;;2701   	  LCD_DataWrite(temp);
0016d4  f85deb04          POP      {lr}
0016d8  f7ffbffe          B.W      LCD_DataWrite
;;;2702   }	
;;;2703   //[92h]=========================================================================
                          ENDP

                  BTE_S1_Color_16bpp PROC
;;;2704   void BTE_S1_Color_16bpp(void)
0016dc  b500              PUSH     {lr}
;;;2705   {	
;;;2706   /*
;;;2707   S1 Color Depth
;;;2708   000 : 256 Color
;;;2709   001 : 64k Color
;;;2710   010 : 16M Color
;;;2711   011 : Constant Color
;;;2712   100 : 8 bit pixel alpha blending
;;;2713   101 : 16 bit pixel alpha blending
;;;2714   */	
;;;2715       unsigned char temp;
;;;2716       LCD_CmdWrite(0x92);
0016de  2092              MOVS     r0,#0x92
0016e0  f7fffffe          BL       LCD_CmdWrite
;;;2717       temp = LCD_DataRead();
0016e4  f7fffffe          BL       LCD_DataRead
;;;2718       temp &= cClrb4 ;
0016e8  f00000ef          AND      r0,r0,#0xef
;;;2719   		temp &= cClrb3 ;
0016ec  f00000f7          AND      r0,r0,#0xf7
;;;2720   	  temp |= cSetb2 ;
0016f0  f0400004          ORR      r0,r0,#4
;;;2721   	  LCD_DataWrite(temp);
0016f4  f85deb04          POP      {lr}
0016f8  f7ffbffe          B.W      LCD_DataWrite
;;;2722   
;;;2723   }
;;;2724   //[92h]=========================================================================
                          ENDP

                  BTE_S1_Color_24bpp PROC
;;;2725   void BTE_S1_Color_24bpp(void)
0016fc  b500              PUSH     {lr}
;;;2726   {	
;;;2727   /*
;;;2728   S1 Color Depth
;;;2729   000 : 256 Color
;;;2730   001 : 64k Color
;;;2731   010 : 16M Color
;;;2732   011 : Constant Color
;;;2733   100 : 8 bit pixel alpha blending
;;;2734   101 : 16 bit pixel alpha blending
;;;2735   */	
;;;2736       unsigned char temp;
;;;2737       LCD_CmdWrite(0x92);
0016fe  2092              MOVS     r0,#0x92
001700  f7fffffe          BL       LCD_CmdWrite
;;;2738       temp = LCD_DataRead();
001704  f7fffffe          BL       LCD_DataRead
;;;2739       temp &= cClrb4 ;
001708  f00000ef          AND      r0,r0,#0xef
;;;2740   		temp |= cSetb3 ;
00170c  f0400008          ORR      r0,r0,#8
;;;2741   	  temp &= cClrb2 ;
001710  f00000fb          AND      r0,r0,#0xfb
;;;2742   	  LCD_DataWrite(temp);
001714  f85deb04          POP      {lr}
001718  f7ffbffe          B.W      LCD_DataWrite
;;;2743   }
;;;2744   
                          ENDP

                  BTE_S1_Color_Constant PROC
;;;2745   //[92h]=========================================================================
;;;2746   void BTE_S1_Color_Constant(void)
00171c  b500              PUSH     {lr}
;;;2747   {	
;;;2748   /*
;;;2749   S1 Color Depth
;;;2750   000 : 256 Color
;;;2751   001 : 64k Color
;;;2752   010 : 16M Color
;;;2753   011 : Constant Color
;;;2754   100 : 8 bit pixel alpha blending
;;;2755   101 : 16 bit pixel alpha blending
;;;2756   */	
;;;2757       unsigned char temp;
;;;2758       LCD_CmdWrite(0x92);
00171e  2092              MOVS     r0,#0x92
001720  f7fffffe          BL       LCD_CmdWrite
;;;2759       temp = LCD_DataRead();
001724  f7fffffe          BL       LCD_DataRead
;;;2760       temp &= cClrb4 ;
001728  f00000ef          AND      r0,r0,#0xef
;;;2761   		temp |= cSetb3 ;
00172c  f0400008          ORR      r0,r0,#8
;;;2762   	  temp |= cSetb2 ;
001730  f0400004          ORR      r0,r0,#4
;;;2763   	  LCD_DataWrite(temp);
001734  f85deb04          POP      {lr}
001738  f7ffbffe          B.W      LCD_DataWrite
;;;2764   }
;;;2765   
                          ENDP

                  BTE_S1_Color_8bit_Alpha PROC
;;;2768   //[92h]=========================================================================
;;;2769   void BTE_S1_Color_8bit_Alpha(void)
00173c  b500              PUSH     {lr}
;;;2770   {	
;;;2771   /*
;;;2772   S1 Color Depth
;;;2773   000 : 256 Color
;;;2774   001 : 64k Color
;;;2775   010 : 16M Color
;;;2776   011 : Constant Color
;;;2777   100 : 8 bit pixel alpha blending
;;;2778   101 : 16 bit pixel alpha blending
;;;2779   */	
;;;2780       unsigned char temp;
;;;2781       LCD_CmdWrite(0x92);
00173e  2092              MOVS     r0,#0x92
001740  f7fffffe          BL       LCD_CmdWrite
;;;2782       temp = LCD_DataRead();
001744  f7fffffe          BL       LCD_DataRead
;;;2783       temp |= cSetb4 ;
001748  f0400010          ORR      r0,r0,#0x10
;;;2784   		temp &= cClrb3 ;
00174c  f00000f7          AND      r0,r0,#0xf7
;;;2785   	  temp &= cClrb2 ;
001750  f00000fb          AND      r0,r0,#0xfb
;;;2786   	  LCD_DataWrite(temp);
001754  f85deb04          POP      {lr}
001758  f7ffbffe          B.W      LCD_DataWrite
;;;2787   }
;;;2788   
                          ENDP

                  BTE_S1_Color_16bit_Alpha PROC
;;;2789   //[92h]=========================================================================
;;;2790   void BTE_S1_Color_16bit_Alpha(void)
00175c  b500              PUSH     {lr}
;;;2791   {	
;;;2792   /*
;;;2793   S1 Color Depth
;;;2794   000 : 256 Color
;;;2795   001 : 64k Color
;;;2796   010 : 16M Color
;;;2797   011 : Constant Color
;;;2798   100 : 8 bit pixel alpha blending
;;;2799   101 : 16 bit pixel alpha blending
;;;2800   */	
;;;2801       unsigned char temp;
;;;2802       LCD_CmdWrite(0x92);
00175e  2092              MOVS     r0,#0x92
001760  f7fffffe          BL       LCD_CmdWrite
;;;2803       temp = LCD_DataRead();
001764  f7fffffe          BL       LCD_DataRead
;;;2804       temp |= cSetb4 ;
001768  f0400010          ORR      r0,r0,#0x10
;;;2805   		temp &= cClrb3 ;
00176c  f00000f7          AND      r0,r0,#0xf7
;;;2806   	  temp |= cSetb2 ;
001770  f0400004          ORR      r0,r0,#4
;;;2807   	  LCD_DataWrite(temp);
001774  f85deb04          POP      {lr}
001778  f7ffbffe          B.W      LCD_DataWrite
;;;2808   }
;;;2809   
                          ENDP

                  BTE_Destination_Color_8bpp PROC
;;;2810   //[92h]=========================================================================
;;;2811   void BTE_Destination_Color_8bpp(void)
00177c  b500              PUSH     {lr}
;;;2812   {	
;;;2813   /*
;;;2814   Destination Color Depth
;;;2815   00 : 256 Color
;;;2816   01 : 64k Color
;;;2817   1x : 16M Color
;;;2818   */	
;;;2819       unsigned char temp;
;;;2820       LCD_CmdWrite(0x92);
00177e  2092              MOVS     r0,#0x92
001780  f7fffffe          BL       LCD_CmdWrite
;;;2821       temp = LCD_DataRead();
001784  f7fffffe          BL       LCD_DataRead
;;;2822       temp &= cClrb1 ;
001788  f00000fd          AND      r0,r0,#0xfd
;;;2823   		temp &= cClrb0 ;
00178c  f00000fe          AND      r0,r0,#0xfe
;;;2824   	  LCD_DataWrite(temp);
001790  f85deb04          POP      {lr}
001794  f7ffbffe          B.W      LCD_DataWrite
;;;2825   }	
;;;2826   //[92h]=========================================================================
                          ENDP

                  BTE_Destination_Color_16bpp PROC
;;;2827   void BTE_Destination_Color_16bpp(void)
001798  b500              PUSH     {lr}
;;;2828   {	
;;;2829   /*
;;;2830   Destination Color Depth
;;;2831   00 : 256 Color
;;;2832   01 : 64k Color
;;;2833   1x : 16M Color
;;;2834   */	
;;;2835       unsigned char temp;
;;;2836       LCD_CmdWrite(0x92);
00179a  2092              MOVS     r0,#0x92
00179c  f7fffffe          BL       LCD_CmdWrite
;;;2837       temp = LCD_DataRead();
0017a0  f7fffffe          BL       LCD_DataRead
;;;2838       temp &= cClrb1 ;
0017a4  f00000fd          AND      r0,r0,#0xfd
;;;2839   		temp |= cSetb0 ;
0017a8  f0400001          ORR      r0,r0,#1
;;;2840   	  LCD_DataWrite(temp);
0017ac  f85deb04          POP      {lr}
0017b0  f7ffbffe          B.W      LCD_DataWrite
;;;2841   
;;;2842   }	
;;;2843   //[92h]=========================================================================
                          ENDP

                  BTE_Destination_Color_24bpp PROC
;;;2844   void BTE_Destination_Color_24bpp(void)
0017b4  b500              PUSH     {lr}
;;;2845   {	
;;;2846   /*
;;;2847   Destination Color Depth
;;;2848   00 : 256 Color
;;;2849   10 : 64k Color
;;;2850   1x : 16M Color
;;;2851   */	
;;;2852       unsigned char temp;
;;;2853       LCD_CmdWrite(0x92);
0017b6  2092              MOVS     r0,#0x92
0017b8  f7fffffe          BL       LCD_CmdWrite
;;;2854       temp = LCD_DataRead();
0017bc  f7fffffe          BL       LCD_DataRead
0017c0  b2c0              UXTB     r0,r0
;;;2855       temp |= cSetb1 ;
0017c2  f0400002          ORR      r0,r0,#2
;;;2856   		//temp |= cSetb0 ;
;;;2857   	  LCD_DataWrite(temp);
0017c6  f85deb04          POP      {lr}
0017ca  f7ffbffe          B.W      LCD_DataWrite
;;;2858   }
;;;2859   
                          ENDP

                  Start_SFI_DMA PROC
;;;2860   //[B6h]=========================================================================
;;;2861   void Start_SFI_DMA(void)
0017ce  b500              PUSH     {lr}
;;;2862   {
;;;2863   	uint8_t temp;
;;;2864   	LCD_CmdWrite(0xB6);
0017d0  20b6              MOVS     r0,#0xb6
0017d2  f7fffffe          BL       LCD_CmdWrite
;;;2865   	temp = LCD_DataRead();
0017d6  f7fffffe          BL       LCD_DataRead
0017da  b2c0              UXTB     r0,r0
;;;2866       temp |= cSetb0;
0017dc  f0400001          ORR      r0,r0,#1
;;;2867   	LCD_DataWrite(temp);
0017e0  f85deb04          POP      {lr}
0017e4  f7ffbffe          B.W      LCD_DataWrite
;;;2868   }
;;;2869   
                          ENDP

                  Check_Busy_SFI_DMA PROC
;;;2870   void Check_Busy_SFI_DMA(void)
0017e8  b500              PUSH     {lr}
;;;2871   {
;;;2872   	LCD_CmdWrite(0xB6);
0017ea  20b6              MOVS     r0,#0xb6
0017ec  f7fffffe          BL       LCD_CmdWrite
                  |L1.6128|
;;;2873   	do
;;;2874   	{		
;;;2875   	}while((LCD_DataRead()&0x01)==0x01);
0017f0  f7fffffe          BL       LCD_DataRead
0017f4  07c0              LSLS     r0,r0,#31
0017f6  d1fb              BNE      |L1.6128|
;;;2876   }
0017f8  bd00              POP      {pc}
;;;2877   
                          ENDP

                  Select_SFI_0 PROC
;;;2879   //[B7h]=========================================================================
;;;2880   void Select_SFI_0(void)
0017fa  b500              PUSH     {lr}
;;;2881   {
;;;2882   /*[bit7]
;;;2883   Serial Flash/ROM I/F # Select
;;;2884   0: Serial Flash/ROM 0 I/F is selected.
;;;2885   1: Serial Flash/ROM 1 I/F is selected.
;;;2886   */
;;;2887   	uint8_t temp;
;;;2888   	LCD_CmdWrite(0xB7);
0017fc  20b7              MOVS     r0,#0xb7
0017fe  f7fffffe          BL       LCD_CmdWrite
;;;2889   	temp = LCD_DataRead();
001802  f7fffffe          BL       LCD_DataRead
;;;2890       temp &= cClrb7;
001806  f000007f          AND      r0,r0,#0x7f
;;;2891   	LCD_DataWrite(temp);
00180a  f85deb04          POP      {lr}
00180e  f7ffbffe          B.W      LCD_DataWrite
;;;2892   }
;;;2893   void Select_SFI_1(void)
                          ENDP

                  Select_SFI_1 PROC
001812  b500              PUSH     {lr}
;;;2894   {
;;;2895   /*[bit7]
;;;2896   Serial Flash/ROM I/F # Select
;;;2897   0: Serial Flash/ROM 0 I/F is selected.
;;;2898   1: Serial Flash/ROM 1 I/F is selected.
;;;2899   */
;;;2900   	uint8_t temp;
;;;2901   	LCD_CmdWrite(0xB7);
001814  20b7              MOVS     r0,#0xb7
001816  f7fffffe          BL       LCD_CmdWrite
;;;2902   	temp = LCD_DataRead();
00181a  f7fffffe          BL       LCD_DataRead
00181e  b2c0              UXTB     r0,r0
;;;2903       temp |= cSetb7;
001820  f0400080          ORR      r0,r0,#0x80
;;;2904   	LCD_DataWrite(temp);
001824  f85deb04          POP      {lr}
001828  f7ffbffe          B.W      LCD_DataWrite
;;;2905   }
;;;2906   
                          ENDP

                  Select_SFI_DMA_Mode PROC
;;;2907   void Select_SFI_DMA_Mode(void)
00182c  b500              PUSH     {lr}
;;;2908   {
;;;2909   /*[bit6]
;;;2910   Serial Flash /ROM Access Mode
;;;2911   0: Font mode ˇV for external cgrom
;;;2912   1: DMA mode ˇV for cgram , pattern , bootstart image or osd
;;;2913   */
;;;2914   	uint8_t temp;
;;;2915   	LCD_CmdWrite(0xB7);
00182e  20b7              MOVS     r0,#0xb7
001830  f7fffffe          BL       LCD_CmdWrite
;;;2916   	temp = LCD_DataRead();
001834  f7fffffe          BL       LCD_DataRead
001838  b2c0              UXTB     r0,r0
;;;2917       temp |= cSetb6;
00183a  f0400040          ORR      r0,r0,#0x40
;;;2918   	LCD_DataWrite(temp);
00183e  f85deb04          POP      {lr}
001842  f7ffbffe          B.W      LCD_DataWrite
;;;2919   }
;;;2920   
                          ENDP

                  Select_SFI_Dual_Mode0 PROC
;;;2921   void Select_SFI_Dual_Mode0(void)
001846  b500              PUSH     {lr}
;;;2922   {
;;;2923   	uint8_t temp;
;;;2924   	LCD_CmdWrite(0xB7);
001848  20b7              MOVS     r0,#0xb7
00184a  f7fffffe          BL       LCD_CmdWrite
;;;2925   	temp = LCD_DataRead();
00184e  f7fffffe          BL       LCD_DataRead
;;;2926   	temp &= 0xFC;
001852  f00000fc          AND      r0,r0,#0xfc
;;;2927       temp |= cSetb1;
001856  f0400002          ORR      r0,r0,#2
;;;2928   	LCD_DataWrite(temp);
00185a  f85deb04          POP      {lr}
00185e  f7ffbffe          B.W      LCD_DataWrite
;;;2929   }
;;;2930   
                          ENDP

                  SPI_Clock_Period PROC
;;;2931   //REG[BB] SPI Clock period (SPIDIV) 
;;;2932   void SPI_Clock_Period(uint8_t temp)
001862  b500              PUSH     {lr}
;;;2933   {
001864  4602              MOV      r2,r0
;;;2934      LCD_CmdWrite(0xBB);
001866  20bb              MOVS     r0,#0xbb
001868  f7fffffe          BL       LCD_CmdWrite
;;;2935      LCD_DataWrite(temp);
00186c  4610              MOV      r0,r2
00186e  f85deb04          POP      {lr}
001872  f7ffbffe          B.W      LCD_DataWrite
;;;2936   } 
;;;2937   
                          ENDP

                  SFI_DMA_Source_Start_Address PROC
;;;2938   //[BCh][BDh][BEh][BFh]=========================================================================
;;;2939   void SFI_DMA_Source_Start_Address(unsigned long Addr)
001876  b500              PUSH     {lr}
;;;2940   {
001878  4602              MOV      r2,r0
;;;2941   /*
;;;2942   DMA Source START ADDRESS
;;;2943   This bits index serial flash address [7:0][15:8][23:16][31:24]
;;;2944   */
;;;2945   	LCD_CmdWrite(0xBC);
00187a  20bc              MOVS     r0,#0xbc
00187c  f7fffffe          BL       LCD_CmdWrite
;;;2946   	LCD_DataWrite(Addr);
001880  b2d0              UXTB     r0,r2
001882  f7fffffe          BL       LCD_DataWrite
;;;2947   	LCD_CmdWrite(0xBD);
001886  20bd              MOVS     r0,#0xbd
001888  f7fffffe          BL       LCD_CmdWrite
;;;2948   	LCD_DataWrite(Addr>>8);
00188c  f3c22007          UBFX     r0,r2,#8,#8
001890  f7fffffe          BL       LCD_DataWrite
;;;2949   	LCD_CmdWrite(0xBE);
001894  20be              MOVS     r0,#0xbe
001896  f7fffffe          BL       LCD_CmdWrite
;;;2950   	LCD_DataWrite(Addr>>16);
00189a  f3c24007          UBFX     r0,r2,#16,#8
00189e  f7fffffe          BL       LCD_DataWrite
;;;2951   	LCD_CmdWrite(0xBF);
0018a2  20bf              MOVS     r0,#0xbf
0018a4  f7fffffe          BL       LCD_CmdWrite
;;;2952   	LCD_DataWrite(Addr>>24);
0018a8  0e10              LSRS     r0,r2,#24
0018aa  f85deb04          POP      {lr}
0018ae  f7ffbffe          B.W      LCD_DataWrite
;;;2953   }
;;;2954   //[C0h][C1h][C2h][C3h]=========================================================================
                          ENDP

                  SFI_DMA_Source_Width PROC
;;;2956   //[CAh][CBh]=========================================================================
;;;2957   void SFI_DMA_Source_Width(uint16_t WX)
0018b2  b500              PUSH     {lr}
;;;2958   {
0018b4  4602              MOV      r2,r0
;;;2959   /*
;;;2960   DMA Source Picture Width [7:0][12:8]
;;;2961   Unit: pixel
;;;2962   */
;;;2963   	LCD_CmdWrite(0xCA);
0018b6  20ca              MOVS     r0,#0xca
0018b8  f7fffffe          BL       LCD_CmdWrite
;;;2964   	LCD_DataWrite(WX);
0018bc  b2d0              UXTB     r0,r2
0018be  f7fffffe          BL       LCD_DataWrite
;;;2965   	LCD_CmdWrite(0xCB);
0018c2  20cb              MOVS     r0,#0xcb
0018c4  f7fffffe          BL       LCD_CmdWrite
;;;2966   	LCD_DataWrite(WX>>8);
0018c8  0a10              LSRS     r0,r2,#8
0018ca  f85deb04          POP      {lr}
0018ce  f7ffbffe          B.W      LCD_DataWrite
;;;2967   } 
;;;2968   void Foreground_color_65k(uint16_t temp)
                          ENDP

                  BTE_S0_Memory_Start_Address PROC
;;;2979   //[93h][94h][95h][96h]=========================================================================
;;;2980   void BTE_S0_Memory_Start_Address(unsigned long Addr)	
0018d2  b500              PUSH     {lr}
;;;2981   {
0018d4  4603              MOV      r3,r0
;;;2982   /*
;;;2983   [93h] BTE S0 Memory Start Address [7:0]
;;;2984   [94h] BTE S0 Memory Start Address [15:8]
;;;2985   [95h] BTE S0 Memory Start Address [23:16]
;;;2986   [96h] BTE S0 Memory Start Address [31:24]
;;;2987   Bit [1:0] tie to ˇ§0ˇ¨ internally.
;;;2988   */
;;;2989   	LCD_RegisterWrite(0x93,Addr);
0018d6  b2d9              UXTB     r1,r3
0018d8  2093              MOVS     r0,#0x93
0018da  f7fffffe          BL       LCD_RegisterWrite
;;;2990   	LCD_RegisterWrite(0x94,Addr>>8);
0018de  f3c32107          UBFX     r1,r3,#8,#8
0018e2  2094              MOVS     r0,#0x94
0018e4  f7fffffe          BL       LCD_RegisterWrite
;;;2991   	LCD_RegisterWrite(0x95,Addr>>16);
0018e8  f3c34107          UBFX     r1,r3,#16,#8
0018ec  2095              MOVS     r0,#0x95
0018ee  f7fffffe          BL       LCD_RegisterWrite
;;;2992   	LCD_RegisterWrite(0x96,Addr>>24);
0018f2  0e19              LSRS     r1,r3,#24
0018f4  2096              MOVS     r0,#0x96
0018f6  f85deb04          POP      {lr}
0018fa  f7ffbffe          B.W      LCD_RegisterWrite
;;;2993   }
;;;2994   
                          ENDP

                  BTE_S0_Image_Width PROC
;;;2996   //[97h][98h]=========================================================================
;;;2997   void BTE_S0_Image_Width(unsigned short WX)	
0018fe  b500              PUSH     {lr}
;;;2998   {
001900  4603              MOV      r3,r0
;;;2999   /*
;;;3000   [97h] BTE S0 Image Width [7:0]
;;;3001   [98h] BTE S0 Image Width [12:8]
;;;3002   Unit: Pixel.
;;;3003   Bit [1:0] tie to ˇ§0ˇ¨ internally.
;;;3004   */
;;;3005   	LCD_RegisterWrite(0x97,WX);
001902  b2d9              UXTB     r1,r3
001904  2097              MOVS     r0,#0x97
001906  f7fffffe          BL       LCD_RegisterWrite
;;;3006   	LCD_RegisterWrite(0x98,WX>>8);
00190a  0a19              LSRS     r1,r3,#8
00190c  2098              MOVS     r0,#0x98
00190e  f85deb04          POP      {lr}
001912  f7ffbffe          B.W      LCD_RegisterWrite
;;;3007   }
;;;3008   
                          ENDP

                  BTE_S0_Window_Start_XY PROC
;;;3010   //[99h][9Ah][9Bh][9Ch]=========================================================================
;;;3011   void BTE_S0_Window_Start_XY(unsigned short WX,unsigned short HY)	
001916  b510              PUSH     {r4,lr}
;;;3012   {
001918  4603              MOV      r3,r0
00191a  460c              MOV      r4,r1
;;;3013   /*
;;;3014   [99h] BTE S0 Window Upper-Left corner X-coordination [7:0]
;;;3015   [9Ah] BTE S0 Window Upper-Left corner X-coordination [12:8]
;;;3016   [9Bh] BTE S0 Window Upper-Left corner Y-coordination [7:0]
;;;3017   [9Ch] BTE S0 Window Upper-Left corner Y-coordination [12:8]
;;;3018   */
;;;3019   	LCD_RegisterWrite(0x99,WX);
00191c  b2d9              UXTB     r1,r3
00191e  2099              MOVS     r0,#0x99
001920  f7fffffe          BL       LCD_RegisterWrite
;;;3020   	LCD_RegisterWrite(0x9A,WX>>8);
001924  0a19              LSRS     r1,r3,#8
001926  209a              MOVS     r0,#0x9a
001928  f7fffffe          BL       LCD_RegisterWrite
;;;3021   
;;;3022   	LCD_RegisterWrite(0x9B,HY);
00192c  b2e1              UXTB     r1,r4
00192e  209b              MOVS     r0,#0x9b
001930  f7fffffe          BL       LCD_RegisterWrite
;;;3023   	LCD_RegisterWrite(0x9C,HY>>8);
001934  0a21              LSRS     r1,r4,#8
001936  e8bd4010          POP      {r4,lr}
00193a  209c              MOVS     r0,#0x9c
00193c  f7ffbffe          B.W      LCD_RegisterWrite
;;;3024   }
;;;3025   
                          ENDP

                  BTE_S1_Memory_Start_Address PROC
;;;3029   //[9Dh][9Eh][9Fh][A0h]=========================================================================
;;;3030   void BTE_S1_Memory_Start_Address(unsigned long Addr)	
001940  b500              PUSH     {lr}
;;;3031   {
001942  4603              MOV      r3,r0
;;;3032   /*
;;;3033   [9Dh] BTE S1 Memory Start Address [7:0]
;;;3034   [9Eh] BTE S1 Memory Start Address [15:8]
;;;3035   [9Fh] BTE S1 Memory Start Address [23:16]
;;;3036   [A0h] BTE S1 Memory Start Address [31:24]
;;;3037   Bit [1:0] tie to ˇ§0ˇ¨ internally.
;;;3038   */
;;;3039   	LCD_RegisterWrite(0x9D,Addr);
001944  b2d9              UXTB     r1,r3
001946  209d              MOVS     r0,#0x9d
001948  f7fffffe          BL       LCD_RegisterWrite
;;;3040   	LCD_RegisterWrite(0x9E,Addr>>8);
00194c  f3c32107          UBFX     r1,r3,#8,#8
001950  209e              MOVS     r0,#0x9e
001952  f7fffffe          BL       LCD_RegisterWrite
;;;3041   	LCD_RegisterWrite(0x9F,Addr>>16);
001956  f3c34107          UBFX     r1,r3,#16,#8
00195a  209f              MOVS     r0,#0x9f
00195c  f7fffffe          BL       LCD_RegisterWrite
;;;3042   	LCD_RegisterWrite(0xA0,Addr>>24);
001960  0e19              LSRS     r1,r3,#24
001962  20a0              MOVS     r0,#0xa0
001964  f85deb04          POP      {lr}
001968  f7ffbffe          B.W      LCD_RegisterWrite
;;;3043   }
;;;3044   
                          ENDP

                  S1_Constant_color_256 PROC
;;;3046   //Input data format:R3G3B2
;;;3047   void S1_Constant_color_256(unsigned char temp)
00196c  b500              PUSH     {lr}
;;;3048   {
00196e  4602              MOV      r2,r0
;;;3049       LCD_CmdWrite(0x9D);
001970  209d              MOVS     r0,#0x9d
001972  f7fffffe          BL       LCD_CmdWrite
;;;3050       LCD_DataWrite(temp);
001976  4610              MOV      r0,r2
001978  f7fffffe          BL       LCD_DataWrite
;;;3051   
;;;3052       LCD_CmdWrite(0x9E);
00197c  209e              MOVS     r0,#0x9e
00197e  f7fffffe          BL       LCD_CmdWrite
;;;3053       LCD_DataWrite(temp<<3);
001982  06d0              LSLS     r0,r2,#27
001984  0e00              LSRS     r0,r0,#24
001986  f7fffffe          BL       LCD_DataWrite
;;;3054   
;;;3055       LCD_CmdWrite(0x9F);
00198a  209f              MOVS     r0,#0x9f
00198c  f7fffffe          BL       LCD_CmdWrite
;;;3056       LCD_DataWrite(temp<<6);
001990  0790              LSLS     r0,r2,#30
001992  0e00              LSRS     r0,r0,#24
001994  f85deb04          POP      {lr}
001998  f7ffbffe          B.W      LCD_DataWrite
;;;3057   }
;;;3058   
                          ENDP

                  S1_Constant_color_65k PROC
;;;3059   //Input data format:R5G6B6
;;;3060   void S1_Constant_color_65k(unsigned short temp)
00199c  b500              PUSH     {lr}
;;;3061   {
00199e  4602              MOV      r2,r0
;;;3062       LCD_CmdWrite(0x9D);
0019a0  209d              MOVS     r0,#0x9d
0019a2  f7fffffe          BL       LCD_CmdWrite
;;;3063       LCD_DataWrite(temp>>8);
0019a6  0a10              LSRS     r0,r2,#8
0019a8  f7fffffe          BL       LCD_DataWrite
;;;3064   
;;;3065       LCD_CmdWrite(0x9E);
0019ac  209e              MOVS     r0,#0x9e
0019ae  f7fffffe          BL       LCD_CmdWrite
;;;3066       LCD_DataWrite(temp>>3);
0019b2  f3c200c7          UBFX     r0,r2,#3,#8
0019b6  f7fffffe          BL       LCD_DataWrite
;;;3067   
;;;3068       LCD_CmdWrite(0x9F);
0019ba  209f              MOVS     r0,#0x9f
0019bc  f7fffffe          BL       LCD_CmdWrite
;;;3069       LCD_DataWrite(temp<<3);
0019c0  06d0              LSLS     r0,r2,#27
0019c2  0e00              LSRS     r0,r0,#24
0019c4  f85deb04          POP      {lr}
0019c8  f7ffbffe          B.W      LCD_DataWrite
;;;3070   }
;;;3071   
                          ENDP

                  S1_Constant_color_16M PROC
;;;3072   //Input data format:R8G8B8
;;;3073   void S1_Constant_color_16M(unsigned long temp)
0019cc  b500              PUSH     {lr}
;;;3074   {
0019ce  4602              MOV      r2,r0
;;;3075       LCD_CmdWrite(0x9D);
0019d0  209d              MOVS     r0,#0x9d
0019d2  f7fffffe          BL       LCD_CmdWrite
;;;3076       LCD_DataWrite(temp>>16);
0019d6  f3c24007          UBFX     r0,r2,#16,#8
0019da  f7fffffe          BL       LCD_DataWrite
;;;3077   
;;;3078       LCD_CmdWrite(0x9E);
0019de  209e              MOVS     r0,#0x9e
0019e0  f7fffffe          BL       LCD_CmdWrite
;;;3079       LCD_DataWrite(temp>>8);
0019e4  f3c22007          UBFX     r0,r2,#8,#8
0019e8  f7fffffe          BL       LCD_DataWrite
;;;3080   
;;;3081       LCD_CmdWrite(0x9F);
0019ec  209f              MOVS     r0,#0x9f
0019ee  f7fffffe          BL       LCD_CmdWrite
;;;3082       LCD_DataWrite(temp);
0019f2  b2d0              UXTB     r0,r2
0019f4  f85deb04          POP      {lr}
0019f8  f7ffbffe          B.W      LCD_DataWrite
;;;3083   }
;;;3084   
                          ENDP

                  BTE_S1_Image_Width PROC
;;;3088   //[A1h][A2h]=========================================================================
;;;3089   void BTE_S1_Image_Width(unsigned short WX)	
0019fc  b500              PUSH     {lr}
;;;3090   {
0019fe  4603              MOV      r3,r0
;;;3091   /*
;;;3092   [A1h] BTE S1 Image Width [7:0]
;;;3093   [A2h] BTE S1 Image Width [12:8]
;;;3094   Unit: Pixel.
;;;3095   Bit [1:0] tie to ˇ§0ˇ¨ internally.
;;;3096   */
;;;3097   	LCD_RegisterWrite(0xA1,WX);
001a00  b2d9              UXTB     r1,r3
001a02  20a1              MOVS     r0,#0xa1
001a04  f7fffffe          BL       LCD_RegisterWrite
;;;3098   	LCD_RegisterWrite(0xA2,WX>>8);
001a08  0a19              LSRS     r1,r3,#8
001a0a  20a2              MOVS     r0,#0xa2
001a0c  f85deb04          POP      {lr}
001a10  f7ffbffe          B.W      LCD_RegisterWrite
;;;3099   }
;;;3100   
                          ENDP

                  BTE_S1_Window_Start_XY PROC
;;;3102   //[A3h][A4h][A5h][A6h]=========================================================================
;;;3103   void BTE_S1_Window_Start_XY(unsigned short WX,unsigned short HY)	
001a14  b510              PUSH     {r4,lr}
;;;3104   {
001a16  4603              MOV      r3,r0
001a18  460c              MOV      r4,r1
;;;3105   /*
;;;3106   [A3h] BTE S1 Window Upper-Left corner X-coordination [7:0]
;;;3107   [A4h] BTE S1 Window Upper-Left corner X-coordination [12:8]
;;;3108   [A5h] BTE S1 Window Upper-Left corner Y-coordination [7:0]
;;;3109   [A6h] BTE S1 Window Upper-Left corner Y-coordination [12:8]
;;;3110   */
;;;3111   	LCD_RegisterWrite(0xA3,WX);
001a1a  b2d9              UXTB     r1,r3
001a1c  20a3              MOVS     r0,#0xa3
001a1e  f7fffffe          BL       LCD_RegisterWrite
;;;3112   	LCD_RegisterWrite(0xA4,WX>>8);
001a22  0a19              LSRS     r1,r3,#8
001a24  20a4              MOVS     r0,#0xa4
001a26  f7fffffe          BL       LCD_RegisterWrite
;;;3113   
;;;3114   	LCD_RegisterWrite(0xA5,HY);
001a2a  b2e1              UXTB     r1,r4
001a2c  20a5              MOVS     r0,#0xa5
001a2e  f7fffffe          BL       LCD_RegisterWrite
;;;3115   	LCD_RegisterWrite(0xA6,HY>>8);
001a32  0a21              LSRS     r1,r4,#8
001a34  e8bd4010          POP      {r4,lr}
001a38  20a6              MOVS     r0,#0xa6
001a3a  f7ffbffe          B.W      LCD_RegisterWrite
;;;3116   }
;;;3117   
                          ENDP

                  BTE_Destination_Memory_Start_Address PROC
;;;3121   //[A7h][A8h][A9h][AAh]=========================================================================
;;;3122   void BTE_Destination_Memory_Start_Address(unsigned long Addr)	
001a3e  b500              PUSH     {lr}
;;;3123   {
001a40  4603              MOV      r3,r0
;;;3124   /*
;;;3125   [A7h] BTE Destination Memory Start Address [7:0]
;;;3126   [A8h] BTE Destination Memory Start Address [15:8]
;;;3127   [A9h] BTE Destination Memory Start Address [23:16]
;;;3128   [AAh] BTE Destination Memory Start Address [31:24]
;;;3129   Bit [1:0] tie to ˇ§0ˇ¨ internally.
;;;3130   */
;;;3131   	LCD_RegisterWrite(0xA7,Addr);
001a42  b2d9              UXTB     r1,r3
001a44  20a7              MOVS     r0,#0xa7
001a46  f7fffffe          BL       LCD_RegisterWrite
;;;3132   	LCD_RegisterWrite(0xA8,Addr>>8);
001a4a  f3c32107          UBFX     r1,r3,#8,#8
001a4e  20a8              MOVS     r0,#0xa8
001a50  f7fffffe          BL       LCD_RegisterWrite
;;;3133   	LCD_RegisterWrite(0xA9,Addr>>16);
001a54  f3c34107          UBFX     r1,r3,#16,#8
001a58  20a9              MOVS     r0,#0xa9
001a5a  f7fffffe          BL       LCD_RegisterWrite
;;;3134   	LCD_RegisterWrite(0xAA,Addr>>24);
001a5e  0e19              LSRS     r1,r3,#24
001a60  20aa              MOVS     r0,#0xaa
001a62  f85deb04          POP      {lr}
001a66  f7ffbffe          B.W      LCD_RegisterWrite
;;;3135   }
;;;3136   
                          ENDP

                  BTE_Destination_Image_Width PROC
;;;3138   //[ABh][ACh]=========================================================================
;;;3139   void BTE_Destination_Image_Width(unsigned short WX)	
001a6a  b500              PUSH     {lr}
;;;3140   {
001a6c  4603              MOV      r3,r0
;;;3141   /*
;;;3142   [ABh] BTE Destination Image Width [7:0]
;;;3143   [ACh] BTE Destination Image Width [12:8]
;;;3144   Unit: Pixel.
;;;3145   Bit [1:0] tie to ˇ§0ˇ¨ internally.
;;;3146   */
;;;3147   	LCD_RegisterWrite(0xAB,WX);
001a6e  b2d9              UXTB     r1,r3
001a70  20ab              MOVS     r0,#0xab
001a72  f7fffffe          BL       LCD_RegisterWrite
;;;3148   	LCD_RegisterWrite(0xAC,WX>>8);
001a76  0a19              LSRS     r1,r3,#8
001a78  20ac              MOVS     r0,#0xac
001a7a  f85deb04          POP      {lr}
001a7e  f7ffbffe          B.W      LCD_RegisterWrite
;;;3149   }
;;;3150   
                          ENDP

                  BTE_Destination_Window_Start_XY PROC
;;;3152   //[ADh][AEh][AFh][B0h]=========================================================================
;;;3153   void BTE_Destination_Window_Start_XY(unsigned short WX,unsigned short HY)	
001a82  b510              PUSH     {r4,lr}
;;;3154   {
001a84  4603              MOV      r3,r0
001a86  460c              MOV      r4,r1
;;;3155   /*
;;;3156   [ADh] BTE Destination Window Upper-Left corner X-coordination [7:0]
;;;3157   [AEh] BTE Destination Window Upper-Left corner X-coordination [12:8]
;;;3158   [AFh] BTE Destination Window Upper-Left corner Y-coordination [7:0]
;;;3159   [B0h] BTE Destination Window Upper-Left corner Y-coordination [12:8]
;;;3160   */
;;;3161   	LCD_RegisterWrite(0xAD,WX);
001a88  b2d9              UXTB     r1,r3
001a8a  20ad              MOVS     r0,#0xad
001a8c  f7fffffe          BL       LCD_RegisterWrite
;;;3162   	LCD_RegisterWrite(0xAE,WX>>8);
001a90  0a19              LSRS     r1,r3,#8
001a92  20ae              MOVS     r0,#0xae
001a94  f7fffffe          BL       LCD_RegisterWrite
;;;3163   
;;;3164   	LCD_RegisterWrite(0xAF,HY);
001a98  b2e1              UXTB     r1,r4
001a9a  20af              MOVS     r0,#0xaf
001a9c  f7fffffe          BL       LCD_RegisterWrite
;;;3165   	LCD_RegisterWrite(0xB0,HY>>8);
001aa0  0a21              LSRS     r1,r4,#8
001aa2  e8bd4010          POP      {r4,lr}
001aa6  20b0              MOVS     r0,#0xb0
001aa8  f7ffbffe          B.W      LCD_RegisterWrite
;;;3166   }
;;;3167   
                          ENDP

                  BTE_Window_Size PROC
;;;3170   
;;;3171   void BTE_Window_Size(unsigned short WX, unsigned short WY)
001aac  b510              PUSH     {r4,lr}
;;;3172   
;;;3173   {
001aae  4603              MOV      r3,r0
001ab0  460c              MOV      r4,r1
;;;3174   /*
;;;3175   [B1h] BTE Window Width [7:0]
;;;3176   [B2h] BTE Window Width [12:8]
;;;3177   
;;;3178   [B3h] BTE Window Height [7:0]
;;;3179   [B4h] BTE Window Height [12:8]
;;;3180   */
;;;3181           LCD_RegisterWrite(0xB1,WX);
001ab2  b2d9              UXTB     r1,r3
001ab4  20b1              MOVS     r0,#0xb1
001ab6  f7fffffe          BL       LCD_RegisterWrite
;;;3182           LCD_RegisterWrite(0xB2,WX>>8);
001aba  0a19              LSRS     r1,r3,#8
001abc  20b2              MOVS     r0,#0xb2
001abe  f7fffffe          BL       LCD_RegisterWrite
;;;3183   	
;;;3184   	    LCD_RegisterWrite(0xB3,WY);
001ac2  b2e1              UXTB     r1,r4
001ac4  20b3              MOVS     r0,#0xb3
001ac6  f7fffffe          BL       LCD_RegisterWrite
;;;3185           LCD_RegisterWrite(0xB4,WY>>8);
001aca  0a21              LSRS     r1,r4,#8
001acc  e8bd4010          POP      {r4,lr}
001ad0  20b4              MOVS     r0,#0xb4
001ad2  f7ffbffe          B.W      LCD_RegisterWrite
;;;3186   }
;;;3187   
                          ENDP

                  BTE_Alpha_Blending_Effect PROC
;;;3188   //[B5h]=========================================================================
;;;3189   void BTE_Alpha_Blending_Effect(unsigned char temp)
001ad6  b500              PUSH     {lr}
;;;3190   {	
001ad8  4602              MOV      r2,r0
;;;3191   /*
;;;3192   Window Alpha Blending effect for S0 & S1
;;;3193   The value of alpha in the color code ranges from 0.0 to 1.0,
;;;3194   where 0.0 represents a fully transparent color, and 1.0
;;;3195   represents a fully opaque color.
;;;3196   00h: 0
;;;3197   01h: 1/32
;;;3198   02h: 2/32
;;;3199   :
;;;3200   1Eh: 30/32
;;;3201   1Fh: 31/32
;;;3202   2Xh: 1
;;;3203   Output Effect = (S0 image x (1 - alpha setting value)) + (S1 image x alpha setting value)
;;;3204   */
;;;3205       LCD_CmdWrite(0xB5);
001ada  20b5              MOVS     r0,#0xb5
001adc  f7fffffe          BL       LCD_CmdWrite
;;;3206   	LCD_DataWrite(temp);  
001ae0  4610              MOV      r0,r2
001ae2  f85deb04          POP      {lr}
001ae6  f7ffbffe          B.W      LCD_DataWrite
;;;3207   }
;;;3208   
                          ENDP

                  Select_SFI_Font_Mode PROC
;;;3209   void Select_SFI_Font_Mode(void)
001aea  b500              PUSH     {lr}
;;;3210   {
;;;3211   /*[bit6]
;;;3212   Serial Flash /ROM Access Mode
;;;3213   0: Font mode ˇV for external cgrom
;;;3214   1: DMA mode ˇV for cgram , pattern , bootstart image or osd
;;;3215   */
;;;3216   	unsigned char temp;
;;;3217   	LCD_CmdWrite(0xB7);
001aec  20b7              MOVS     r0,#0xb7
001aee  f7fffffe          BL       LCD_CmdWrite
;;;3218   	temp = LCD_DataRead();
001af2  f7fffffe          BL       LCD_DataRead
;;;3219       temp &= cClrb6;
001af6  f00000bf          AND      r0,r0,#0xbf
;;;3220   	LCD_DataWrite(temp);
001afa  f85deb04          POP      {lr}
001afe  f7ffbffe          B.W      LCD_DataWrite
;;;3221   }
;;;3222   
                          ENDP

                  Select_SFI_24bit_Address PROC
;;;3223   void Select_SFI_24bit_Address(void)
001b02  b500              PUSH     {lr}
;;;3224   {
;;;3225   /*[bit5]
;;;3226   Serial Flash/ROM Address Mode
;;;3227   0: 24 bits address mode
;;;3228   1: 32 bits address mode
;;;3229   */
;;;3230   	unsigned char temp;
;;;3231   	LCD_CmdWrite(0xB7);
001b04  20b7              MOVS     r0,#0xb7
001b06  f7fffffe          BL       LCD_CmdWrite
;;;3232   	temp = LCD_DataRead();
001b0a  f7fffffe          BL       LCD_DataRead
;;;3233       temp &= cClrb5;
001b0e  f00000df          AND      r0,r0,#0xdf
;;;3234   	LCD_DataWrite(temp);
001b12  f85deb04          POP      {lr}
001b16  f7ffbffe          B.W      LCD_DataWrite
;;;3235   }
;;;3236   void Select_SFI_32bit_Address(void)
                          ENDP

                  Select_SFI_32bit_Address PROC
001b1a  b500              PUSH     {lr}
;;;3237   {
;;;3238   /*[bit5]
;;;3239   Serial Flash/ROM Address Mode
;;;3240   0: 24 bits address mode
;;;3241   1: 32 bits address mode
;;;3242   */
;;;3243   	unsigned char temp;
;;;3244   	LCD_CmdWrite(0xB7);
001b1c  20b7              MOVS     r0,#0xb7
001b1e  f7fffffe          BL       LCD_CmdWrite
;;;3245   	temp = LCD_DataRead();
001b22  f7fffffe          BL       LCD_DataRead
001b26  b2c0              UXTB     r0,r0
;;;3246       temp |= cSetb5;
001b28  f0400020          ORR      r0,r0,#0x20
;;;3247   	LCD_DataWrite(temp);
001b2c  f85deb04          POP      {lr}
001b30  f7ffbffe          B.W      LCD_DataWrite
;;;3248   }
;;;3249   void Select_SFI_Waveform_Mode_0(void)
                          ENDP

                  Select_SFI_Waveform_Mode_0 PROC
001b34  b500              PUSH     {lr}
;;;3250   {
;;;3251   /*[bit4]
;;;3252   Serial Flash/ROM Waveform Mode
;;;3253   Mode 0.
;;;3254   Mode 3.
;;;3255   */
;;;3256   	unsigned char temp;
;;;3257   	LCD_CmdWrite(0xB7);
001b36  20b7              MOVS     r0,#0xb7
001b38  f7fffffe          BL       LCD_CmdWrite
;;;3258   	temp = LCD_DataRead();
001b3c  f7fffffe          BL       LCD_DataRead
;;;3259       temp &= cClrb4;
001b40  f00000ef          AND      r0,r0,#0xef
;;;3260   	LCD_DataWrite(temp);
001b44  f85deb04          POP      {lr}
001b48  f7ffbffe          B.W      LCD_DataWrite
;;;3261   }
;;;3262   void Select_SFI_Waveform_Mode_3(void)
                          ENDP

                  Select_SFI_Waveform_Mode_3 PROC
001b4c  b500              PUSH     {lr}
;;;3263   {
;;;3264   /*[bit4]
;;;3265   Serial Flash/ROM Waveform Mode
;;;3266   Mode 0.
;;;3267   Mode 3.
;;;3268   */
;;;3269   	unsigned char temp;
;;;3270   	LCD_CmdWrite(0xB7);
001b4e  20b7              MOVS     r0,#0xb7
001b50  f7fffffe          BL       LCD_CmdWrite
;;;3271   	temp = LCD_DataRead();
001b54  f7fffffe          BL       LCD_DataRead
001b58  b2c0              UXTB     r0,r0
;;;3272       temp |= cSetb4;
001b5a  f0400010          ORR      r0,r0,#0x10
;;;3273   	LCD_DataWrite(temp);
001b5e  f85deb04          POP      {lr}
001b62  f7ffbffe          B.W      LCD_DataWrite
;;;3274   }
;;;3275   void Select_SFI_0_DummyRead(void)
                          ENDP

                  Select_SFI_0_DummyRead PROC
001b66  b500              PUSH     {lr}
;;;3276   {
;;;3277   /*[bit3][bit2]
;;;3278   Serial Flash /ROM Read Cycle 0 RW
;;;3279   00b: no dummy cycle mode
;;;3280   01b: 1 dummy cycle mode
;;;3281   10b: 2 dummy cycle mode
;;;3282   11b: 4 dummy cycle mode
;;;3283   */
;;;3284   	unsigned char temp;
;;;3285   	LCD_CmdWrite(0xB7);
001b68  20b7              MOVS     r0,#0xb7
001b6a  f7fffffe          BL       LCD_CmdWrite
;;;3286   	temp = LCD_DataRead();
001b6e  f7fffffe          BL       LCD_DataRead
;;;3287   	temp &= 0xF3;
001b72  f00000f3          AND      r0,r0,#0xf3
;;;3288   	LCD_DataWrite(temp);
001b76  f85deb04          POP      {lr}
001b7a  f7ffbffe          B.W      LCD_DataWrite
;;;3289   }
;;;3290   void Select_SFI_8_DummyRead(void)
                          ENDP

                  Select_SFI_8_DummyRead PROC
001b7e  b500              PUSH     {lr}
;;;3291   {
;;;3292   	unsigned char temp;
;;;3293   	LCD_CmdWrite(0xB7);
001b80  20b7              MOVS     r0,#0xb7
001b82  f7fffffe          BL       LCD_CmdWrite
;;;3294   	temp = LCD_DataRead();
001b86  f7fffffe          BL       LCD_DataRead
;;;3295   	temp &= 0xF3;
001b8a  f00000f3          AND      r0,r0,#0xf3
;;;3296       temp |= cSetb2;
001b8e  f0400004          ORR      r0,r0,#4
;;;3297   	LCD_DataWrite(temp);
001b92  f85deb04          POP      {lr}
001b96  f7ffbffe          B.W      LCD_DataWrite
;;;3298   }
;;;3299   void Select_SFI_16_DummyRead(void)
                          ENDP

                  Select_SFI_16_DummyRead PROC
001b9a  b500              PUSH     {lr}
;;;3300   {
;;;3301   
;;;3302   	unsigned char temp;
;;;3303   	LCD_CmdWrite(0xB7);
001b9c  20b7              MOVS     r0,#0xb7
001b9e  f7fffffe          BL       LCD_CmdWrite
;;;3304   	temp = LCD_DataRead();
001ba2  f7fffffe          BL       LCD_DataRead
;;;3305   	temp &= 0xF3;
001ba6  f00000f3          AND      r0,r0,#0xf3
;;;3306       temp |= cSetb3;
001baa  f0400008          ORR      r0,r0,#8
;;;3307   	LCD_DataWrite(temp);
001bae  f85deb04          POP      {lr}
001bb2  f7ffbffe          B.W      LCD_DataWrite
;;;3308   }
;;;3309   void Select_SFI_24_DummyRead(void)
                          ENDP

                  Select_SFI_24_DummyRead PROC
001bb6  b500              PUSH     {lr}
;;;3310   {
;;;3311   	unsigned char temp;
;;;3312   	LCD_CmdWrite(0xB7);
001bb8  20b7              MOVS     r0,#0xb7
001bba  f7fffffe          BL       LCD_CmdWrite
;;;3313   	temp = LCD_DataRead();
001bbe  f7fffffe          BL       LCD_DataRead
001bc2  b2c0              UXTB     r0,r0
;;;3314       temp |= 0x0c;
001bc4  f040000c          ORR      r0,r0,#0xc
;;;3315   	LCD_DataWrite(temp);
001bc8  f85deb04          POP      {lr}
001bcc  f7ffbffe          B.W      LCD_DataWrite
;;;3316   }
;;;3317   void Select_SFI_Single_Mode(void)
                          ENDP

                  Select_SFI_Single_Mode PROC
001bd0  b500              PUSH     {lr}
;;;3318   {
;;;3319   /*[bit1][bit0]
;;;3320   Serial Flash /ROM I/F Data Latch Mode Select
;;;3321   0Xb: Single Mode
;;;3322   10b: Dual Mode 0.
;;;3323   11b: Dual Mode 1.
;;;3324   */
;;;3325   	unsigned char temp;
;;;3326   	LCD_CmdWrite(0xB7);
001bd2  20b7              MOVS     r0,#0xb7
001bd4  f7fffffe          BL       LCD_CmdWrite
;;;3327   	temp = LCD_DataRead();
001bd8  f7fffffe          BL       LCD_DataRead
;;;3328   	temp &= 0xFC;
001bdc  f00000fc          AND      r0,r0,#0xfc
;;;3329   	LCD_DataWrite(temp);
001be0  f85deb04          POP      {lr}
001be4  f7ffbffe          B.W      LCD_DataWrite
;;;3330   }
;;;3331   
                          ENDP

                  Select_SFI_Dual_Mode1 PROC
;;;3332   void Select_SFI_Dual_Mode1(void)
001be8  b500              PUSH     {lr}
;;;3333   {
;;;3334   	unsigned char temp;
;;;3335   	LCD_CmdWrite(0xB7);
001bea  20b7              MOVS     r0,#0xb7
001bec  f7fffffe          BL       LCD_CmdWrite
;;;3336   	temp = LCD_DataRead();
001bf0  f7fffffe          BL       LCD_DataRead
001bf4  b2c0              UXTB     r0,r0
;;;3337       temp |= 0x03;
001bf6  f0400003          ORR      r0,r0,#3
;;;3338   	LCD_DataWrite(temp);
001bfa  f85deb04          POP      {lr}
001bfe  f7ffbffe          B.W      LCD_DataWrite
;;;3339   }
;;;3340   
                          ENDP

                  Rx_FIFO_Empty_Flag PROC
;;;3500   
;;;3501   unsigned char Rx_FIFO_Empty_Flag(void)
001c02  b500              PUSH     {lr}
;;;3502   {
;;;3503   	LCD_CmdWrite(0xBA);
001c04  20ba              MOVS     r0,#0xba
001c06  f7fffffe          BL       LCD_CmdWrite
;;;3504   	if((LCD_DataRead()&0x20)==0x20)
001c0a  f7fffffe          BL       LCD_DataRead
001c0e  0680              LSLS     r0,r0,#26
001c10  d501              BPL      |L1.7190|
;;;3505   	return 1;
001c12  2001              MOVS     r0,#1
;;;3506   	else
;;;3507   	return 0;
;;;3508   } 
001c14  bd00              POP      {pc}
                  |L1.7190|
001c16  2000              MOVS     r0,#0                 ;3507
001c18  bd00              POP      {pc}
;;;3509   
                          ENDP

                  SPI_Master_FIFO_Data_Get PROC
;;;3351   
;;;3352   unsigned char SPI_Master_FIFO_Data_Get(void)
001c1a  b500              PUSH     {lr}
                  |L1.7196|
;;;3353   {
;;;3354      unsigned char temp;
;;;3355   
;;;3356   	while(Rx_FIFO_Empty_Flag()==1);
001c1c  f7fffffe          BL       Rx_FIFO_Empty_Flag
001c20  2801              CMP      r0,#1
001c22  d0fb              BEQ      |L1.7196|
;;;3357   	LCD_CmdWrite(0xB8);
001c24  20b8              MOVS     r0,#0xb8
001c26  f7fffffe          BL       LCD_CmdWrite
;;;3358   	temp=LCD_DataRead();
001c2a  f7fffffe          BL       LCD_DataRead
001c2e  b2c0              UXTB     r0,r0
;;;3359   	//while(Rx_FIFO_full_flag());
;;;3360      return temp;
;;;3361   }
001c30  bd00              POP      {pc}
;;;3362   
                          ENDP

                  Tx_FIFO_Empty_Flag PROC
;;;3482   //REG[BAh] SPI master Status Register (SPIMSR) 
;;;3483   unsigned char Tx_FIFO_Empty_Flag(void)
001c32  b500              PUSH     {lr}
;;;3484   {
;;;3485   	LCD_CmdWrite(0xBA);
001c34  20ba              MOVS     r0,#0xba
001c36  f7fffffe          BL       LCD_CmdWrite
;;;3486   	if((LCD_DataRead()&0x80)==0x80)
001c3a  f7fffffe          BL       LCD_DataRead
001c3e  0600              LSLS     r0,r0,#24
001c40  d501              BPL      |L1.7238|
;;;3487   	return 1;
001c42  2001              MOVS     r0,#1
;;;3488   	else
;;;3489   	return 0;
;;;3490   }
001c44  bd00              POP      {pc}
                  |L1.7238|
001c46  2000              MOVS     r0,#0                 ;3489
001c48  bd00              POP      {pc}
;;;3491   
                          ENDP

                  SPI_Master_FIFO_Data_Put PROC
;;;3341   //REG[B8h] SPI master Tx /Rx FIFO Data Register (SPIDR) 
;;;3342   unsigned char SPI_Master_FIFO_Data_Put(unsigned char Data)
001c4a  b500              PUSH     {lr}
;;;3343   {
001c4c  4602              MOV      r2,r0
;;;3344       unsigned char temp;
;;;3345   	LCD_CmdWrite(0xB8);
001c4e  20b8              MOVS     r0,#0xb8
001c50  f7fffffe          BL       LCD_CmdWrite
;;;3346   	LCD_DataWrite(Data);
001c54  4610              MOV      r0,r2
001c56  f7fffffe          BL       LCD_DataWrite
                  |L1.7258|
;;;3347   	while(Tx_FIFO_Empty_Flag()==0);	
001c5a  f7fffffe          BL       Tx_FIFO_Empty_Flag
001c5e  2800              CMP      r0,#0
001c60  d0fb              BEQ      |L1.7258|
;;;3348   	temp = SPI_Master_FIFO_Data_Get();
001c62  f85deb04          POP      {lr}
001c66  e7fe              B        SPI_Master_FIFO_Data_Get
;;;3349   	return temp;
;;;3350   }
;;;3351   
                          ENDP

                  Mask_SPI_Master_Interrupt_Flag PROC
;;;3363   //REG[B9h] SPI master Control Register (SPIMCR2) 
;;;3364   void Mask_SPI_Master_Interrupt_Flag(void)
001c68  b500              PUSH     {lr}
;;;3365   {
;;;3366     unsigned char temp;
;;;3367     LCD_CmdWrite(0xB9);
001c6a  20b9              MOVS     r0,#0xb9
001c6c  f7fffffe          BL       LCD_CmdWrite
;;;3368     temp = LCD_DataRead();
001c70  f7fffffe          BL       LCD_DataRead
001c74  b2c0              UXTB     r0,r0
;;;3369     temp |= cSetb6;
001c76  f0400040          ORR      r0,r0,#0x40
;;;3370     LCD_DataWrite(temp);
001c7a  f85deb04          POP      {lr}
001c7e  f7ffbffe          B.W      LCD_DataWrite
;;;3371   
;;;3372   } 
;;;3373   
                          ENDP

                  Select_nSS_drive_on_xnsfcs0 PROC
;;;3374   void Select_nSS_drive_on_xnsfcs0(void)
001c82  b500              PUSH     {lr}
;;;3375   {
;;;3376   	unsigned char temp;
;;;3377   	LCD_CmdWrite(0xB9);
001c84  20b9              MOVS     r0,#0xb9
001c86  f7fffffe          BL       LCD_CmdWrite
;;;3378   	temp = LCD_DataRead();
001c8a  f7fffffe          BL       LCD_DataRead
;;;3379   	temp &= cClrb5;
001c8e  f00000df          AND      r0,r0,#0xdf
;;;3380   	LCD_DataWrite(temp);
001c92  f85deb04          POP      {lr}
001c96  f7ffbffe          B.W      LCD_DataWrite
;;;3381   
;;;3382   }
;;;3383   
                          ENDP

                  Select_nSS_drive_on_xnsfcs1 PROC
;;;3384   void Select_nSS_drive_on_xnsfcs1(void)
001c9a  b500              PUSH     {lr}
;;;3385   {
;;;3386   	unsigned char temp;
;;;3387   	LCD_CmdWrite(0xB9);
001c9c  20b9              MOVS     r0,#0xb9
001c9e  f7fffffe          BL       LCD_CmdWrite
;;;3388   	temp = LCD_DataRead();
001ca2  f7fffffe          BL       LCD_DataRead
001ca6  b2c0              UXTB     r0,r0
;;;3389   	temp |= cSetb5;
001ca8  f0400020          ORR      r0,r0,#0x20
;;;3390   	LCD_DataWrite(temp);
001cac  f85deb04          POP      {lr}
001cb0  f7ffbffe          B.W      LCD_DataWrite
;;;3391   }
;;;3392   
                          ENDP

                  nSS_Inactive PROC
;;;3393   //0: inactive (nSS port will goes high) 
;;;3394   void nSS_Inactive(void)
001cb4  b500              PUSH     {lr}
;;;3395   {
;;;3396   	unsigned char temp;
;;;3397   	LCD_CmdWrite(0xB9);
001cb6  20b9              MOVS     r0,#0xb9
001cb8  f7fffffe          BL       LCD_CmdWrite
;;;3398   	temp = LCD_DataRead();
001cbc  f7fffffe          BL       LCD_DataRead
;;;3399   	temp &= cClrb4;
001cc0  f00000ef          AND      r0,r0,#0xef
;;;3400   	LCD_DataWrite(temp);
001cc4  f85deb04          POP      {lr}
001cc8  f7ffbffe          B.W      LCD_DataWrite
;;;3401   }
;;;3402   //1: active (nSS port will goes low) 
                          ENDP

                  nSS_Active PROC
;;;3403   void nSS_Active(void)
001ccc  b500              PUSH     {lr}
;;;3404   {
;;;3405   	unsigned char temp;
;;;3406   	LCD_CmdWrite(0xB9);
001cce  20b9              MOVS     r0,#0xb9
001cd0  f7fffffe          BL       LCD_CmdWrite
;;;3407   	temp = LCD_DataRead();
001cd4  f7fffffe          BL       LCD_DataRead
001cd8  b2c0              UXTB     r0,r0
;;;3408   	temp |= cSetb4;
001cda  f0400010          ORR      r0,r0,#0x10
;;;3409   	LCD_DataWrite(temp);
001cde  f85deb04          POP      {lr}
001ce2  f7ffbffe          B.W      LCD_DataWrite
;;;3410   }
;;;3411   
                          ENDP

                  OVFIRQEN_Enable PROC
;;;3412   //Interrupt enable for FIFO overflow error [OVFIRQEN] 
;;;3413   void OVFIRQEN_Enable(void)
001ce6  b500              PUSH     {lr}
;;;3414   {
;;;3415   	unsigned char temp;
;;;3416   	LCD_CmdWrite(0xB9);
001ce8  20b9              MOVS     r0,#0xb9
001cea  f7fffffe          BL       LCD_CmdWrite
;;;3417   	temp = LCD_DataRead();
001cee  f7fffffe          BL       LCD_DataRead
001cf2  b2c0              UXTB     r0,r0
;;;3418   	temp |= cSetb3;
001cf4  f0400008          ORR      r0,r0,#8
;;;3419   	LCD_DataWrite(temp);
001cf8  f85deb04          POP      {lr}
001cfc  f7ffbffe          B.W      LCD_DataWrite
;;;3420   }
;;;3421   //Interrupt enable for while Tx FIFO empty & SPI engine/FSM idle
                          ENDP

                  EMTIRQEN_Enable PROC
;;;3422   void EMTIRQEN_Enable(void)
001d00  b500              PUSH     {lr}
;;;3423   {
;;;3424   	unsigned char temp;
;;;3425   	LCD_CmdWrite(0xB9);
001d02  20b9              MOVS     r0,#0xb9
001d04  f7fffffe          BL       LCD_CmdWrite
;;;3426   	temp = LCD_DataRead();
001d08  f7fffffe          BL       LCD_DataRead
001d0c  b2c0              UXTB     r0,r0
;;;3427   	temp |= cSetb2;
001d0e  f0400004          ORR      r0,r0,#4
;;;3428   	LCD_DataWrite(temp);
001d12  f85deb04          POP      {lr}
001d16  f7ffbffe          B.W      LCD_DataWrite
;;;3429   }
;;;3430   
                          ENDP

                  Reset_CPOL PROC
;;;3443   
;;;3444   void Reset_CPOL(void)
001d1a  b500              PUSH     {lr}
;;;3445   {
;;;3446   	unsigned char temp;
;;;3447   	LCD_CmdWrite(0xB9);
001d1c  20b9              MOVS     r0,#0xb9
001d1e  f7fffffe          BL       LCD_CmdWrite
;;;3448   	temp = LCD_DataRead();
001d22  f7fffffe          BL       LCD_DataRead
;;;3449   	temp &= cClrb1;
001d26  f00000fd          AND      r0,r0,#0xfd
;;;3450   	LCD_DataWrite(temp);
001d2a  f85deb04          POP      {lr}
001d2e  f7ffbffe          B.W      LCD_DataWrite
;;;3451   }
;;;3452   
                          ENDP

                  Set_CPOL PROC
;;;3453   void Set_CPOL(void)
001d32  b500              PUSH     {lr}
;;;3454   {
;;;3455   	unsigned char temp;
;;;3456   	LCD_CmdWrite(0xB9);
001d34  20b9              MOVS     r0,#0xb9
001d36  f7fffffe          BL       LCD_CmdWrite
;;;3457   	temp = LCD_DataRead();
001d3a  f7fffffe          BL       LCD_DataRead
001d3e  b2c0              UXTB     r0,r0
;;;3458   	temp |= cSetb1;
001d40  f0400002          ORR      r0,r0,#2
;;;3459   	LCD_DataWrite(temp);
001d44  f85deb04          POP      {lr}
001d48  f7ffbffe          B.W      LCD_DataWrite
;;;3460   }
;;;3461   
                          ENDP

                  Reset_CPHA PROC
;;;3462   
;;;3463   void Reset_CPHA(void)
001d4c  b500              PUSH     {lr}
;;;3464   {
;;;3465   	unsigned char temp;
;;;3466   	LCD_CmdWrite(0xB9);
001d4e  20b9              MOVS     r0,#0xb9
001d50  f7fffffe          BL       LCD_CmdWrite
;;;3467   	temp = LCD_DataRead();
001d54  f7fffffe          BL       LCD_DataRead
;;;3468   	temp &= cClrb0;
001d58  f00000fe          AND      r0,r0,#0xfe
;;;3469   	LCD_DataWrite(temp);
001d5c  f85deb04          POP      {lr}
001d60  f7ffbffe          B.W      LCD_DataWrite
;;;3470   }
;;;3471   
                          ENDP

                  Set_CPHA PROC
;;;3472   void Set_CPHA(void)
001d64  b500              PUSH     {lr}
;;;3473   {
;;;3474   	unsigned char temp;
;;;3475   	LCD_CmdWrite(0xB9);
001d66  20b9              MOVS     r0,#0xb9
001d68  f7fffffe          BL       LCD_CmdWrite
;;;3476   	temp = LCD_DataRead();
001d6c  f7fffffe          BL       LCD_DataRead
001d70  b2c0              UXTB     r0,r0
;;;3477   	temp |= cSetb0;
001d72  f0400001          ORR      r0,r0,#1
;;;3478   	LCD_DataWrite(temp);
001d76  f85deb04          POP      {lr}
001d7a  f7ffbffe          B.W      LCD_DataWrite
;;;3479   }
;;;3480   
                          ENDP

                  Tx_FIFO_Full_Flag PROC
;;;3491   
;;;3492   unsigned char Tx_FIFO_Full_Flag(void)
001d7e  b500              PUSH     {lr}
;;;3493   {
;;;3494   	LCD_CmdWrite(0xBA);
001d80  20ba              MOVS     r0,#0xba
001d82  f7fffffe          BL       LCD_CmdWrite
;;;3495   	if((LCD_DataRead()&0x40)==0x40)
001d86  f7fffffe          BL       LCD_DataRead
001d8a  0640              LSLS     r0,r0,#25
001d8c  d501              BPL      |L1.7570|
;;;3496   	return 1;
001d8e  2001              MOVS     r0,#1
;;;3497   	else
;;;3498   	return 0;
;;;3499   } 
001d90  bd00              POP      {pc}
                  |L1.7570|
001d92  2000              MOVS     r0,#0                 ;3498
001d94  bd00              POP      {pc}
;;;3500   
                          ENDP

                  Rx_FIFO_full_flag PROC
;;;3509   
;;;3510   unsigned char Rx_FIFO_full_flag(void)
001d96  b500              PUSH     {lr}
;;;3511   {
;;;3512      LCD_CmdWrite(0xBA);
001d98  20ba              MOVS     r0,#0xba
001d9a  f7fffffe          BL       LCD_CmdWrite
;;;3513      if((LCD_DataRead()&0x10)==0x10)
001d9e  f7fffffe          BL       LCD_DataRead
001da2  06c0              LSLS     r0,r0,#27
001da4  d501              BPL      |L1.7594|
;;;3514      return 1;
001da6  2001              MOVS     r0,#1
;;;3515      else
;;;3516      return 0;
;;;3517   } 
001da8  bd00              POP      {pc}
                  |L1.7594|
001daa  2000              MOVS     r0,#0                 ;3516
001dac  bd00              POP      {pc}
;;;3518   
                          ENDP

                  OVFI_Flag PROC
;;;3519   unsigned char OVFI_Flag(void)
001dae  b500              PUSH     {lr}
;;;3520   {
;;;3521      LCD_CmdWrite(0xBA);
001db0  20ba              MOVS     r0,#0xba
001db2  f7fffffe          BL       LCD_CmdWrite
;;;3522      if((LCD_DataRead()&0x08)==0x08)
001db6  f7fffffe          BL       LCD_DataRead
001dba  0700              LSLS     r0,r0,#28
001dbc  d501              BPL      |L1.7618|
;;;3523      return 1;
001dbe  2001              MOVS     r0,#1
;;;3524      else
;;;3525      return 0;
;;;3526   }
001dc0  bd00              POP      {pc}
                  |L1.7618|
001dc2  2000              MOVS     r0,#0                 ;3525
001dc4  bd00              POP      {pc}
;;;3527   
                          ENDP

                  Clear_OVFI_Flag PROC
;;;3528   void Clear_OVFI_Flag(void)
001dc6  b500              PUSH     {lr}
;;;3529   {
;;;3530      unsigned char temp;
;;;3531      LCD_CmdWrite(0xBA);
001dc8  20ba              MOVS     r0,#0xba
001dca  f7fffffe          BL       LCD_CmdWrite
;;;3532      temp = LCD_DataRead();
001dce  f7fffffe          BL       LCD_DataRead
001dd2  b2c0              UXTB     r0,r0
;;;3533      temp |= cSetb3;
001dd4  f0400008          ORR      r0,r0,#8
;;;3534      LCD_DataWrite(temp);
001dd8  f85deb04          POP      {lr}
001ddc  f7ffbffe          B.W      LCD_DataWrite
;;;3535   }
;;;3536   
                          ENDP

                  EMTI_Flag PROC
;;;3537   unsigned char EMTI_Flag(void)
001de0  b500              PUSH     {lr}
;;;3538   {
;;;3539      LCD_CmdWrite(0xBA);
001de2  20ba              MOVS     r0,#0xba
001de4  f7fffffe          BL       LCD_CmdWrite
;;;3540      if((LCD_DataRead()&0x04)==0x04)
001de8  f7fffffe          BL       LCD_DataRead
001dec  0740              LSLS     r0,r0,#29
001dee  d501              BPL      |L1.7668|
;;;3541      return 1;
001df0  2001              MOVS     r0,#1
;;;3542      else
;;;3543      return 0;
;;;3544   }
001df2  bd00              POP      {pc}
                  |L1.7668|
001df4  2000              MOVS     r0,#0                 ;3543
001df6  bd00              POP      {pc}
;;;3545   
                          ENDP

                  Clear_EMTI_Flag PROC
;;;3546   void Clear_EMTI_Flag(void)
001df8  b500              PUSH     {lr}
;;;3547   {
;;;3548      unsigned char temp;
;;;3549      LCD_CmdWrite(0xBA);
001dfa  20ba              MOVS     r0,#0xba
001dfc  f7fffffe          BL       LCD_CmdWrite
;;;3550      temp = LCD_DataRead();
001e00  f7fffffe          BL       LCD_DataRead
001e04  b2c0              UXTB     r0,r0
;;;3551      temp |= cSetb2;
001e06  f0400004          ORR      r0,r0,#4
;;;3552      LCD_DataWrite(temp);
001e0a  f85deb04          POP      {lr}
001e0e  f7ffbffe          B.W      LCD_DataWrite
;;;3553   }
;;;3554   
                          ENDP

                  SFI_DMA_Destination_Start_Address PROC
;;;3555   //[C0h][C1h][C2h][C3h]=========================================================================
;;;3556   void SFI_DMA_Destination_Start_Address(unsigned long Addr)
001e12  b500              PUSH     {lr}
;;;3557   {
001e14  4602              MOV      r2,r0
;;;3558   /*
;;;3559   DMA Destination START ADDRESS 
;;;3560   [1:0]Fix at 0
;;;3561   This bits index SDRAM address [7:0][15:8][23:16][31:24]
;;;3562   */
;;;3563   	LCD_CmdWrite(0xC0);
001e16  20c0              MOVS     r0,#0xc0
001e18  f7fffffe          BL       LCD_CmdWrite
;;;3564   	LCD_DataWrite(Addr);
001e1c  b2d0              UXTB     r0,r2
001e1e  f7fffffe          BL       LCD_DataWrite
;;;3565   	LCD_CmdWrite(0xC1);
001e22  20c1              MOVS     r0,#0xc1
001e24  f7fffffe          BL       LCD_CmdWrite
;;;3566   	LCD_DataWrite(Addr>>8);
001e28  f3c22007          UBFX     r0,r2,#8,#8
001e2c  f7fffffe          BL       LCD_DataWrite
;;;3567   	LCD_CmdWrite(0xC2);
001e30  20c2              MOVS     r0,#0xc2
001e32  f7fffffe          BL       LCD_CmdWrite
;;;3568   	LCD_DataWrite(Addr>>16);
001e36  f3c24007          UBFX     r0,r2,#16,#8
001e3a  f7fffffe          BL       LCD_DataWrite
;;;3569   	LCD_CmdWrite(0xC3);
001e3e  20c3              MOVS     r0,#0xc3
001e40  f7fffffe          BL       LCD_CmdWrite
;;;3570   	LCD_DataWrite(Addr>>24);
001e44  0e10              LSRS     r0,r2,#24
001e46  f85deb04          POP      {lr}
001e4a  f7ffbffe          B.W      LCD_DataWrite
;;;3571   }
;;;3572   //[C0h][C1h][C2h][C3h]=========================================================================
                          ENDP

                  SFI_DMA_Destination_Upper_Left_Corner PROC
;;;3573   void SFI_DMA_Destination_Upper_Left_Corner(unsigned short WX,unsigned short HY)
001e4e  b500              PUSH     {lr}
;;;3574   {
001e50  4602              MOV      r2,r0
001e52  460b              MOV      r3,r1
;;;3575   /*
;;;3576   C0h
;;;3577   This register defines DMA Destination Window Upper-Left corner 
;;;3578   X-coordination [7:0] on Canvas area. 
;;;3579   When REG DMACR bit 1 = 1 (Block Mode) 
;;;3580   This register defines Destination address [7:2] in SDRAM. 
;;;3581   C1h
;;;3582   When REG DMACR bit 1 = 0 (Linear Mode) 
;;;3583   This register defines DMA Destination Window Upper-Left corner 
;;;3584   X-coordination [12:8] on Canvas area. 
;;;3585   When REG DMACR bit 1 = 1 (Block Mode) 
;;;3586   This register defines Destination address [15:8] in SDRAM.
;;;3587   C2h
;;;3588   When REG DMACR bit 1 = 0 (Linear Mode) 
;;;3589   This register defines DMA Destination Window Upper-Left corner
;;;3590   Y-coordination [7:0] on Canvas area. 
;;;3591   When REG DMACR bit 1 = 1 (Block Mode) 
;;;3592   This register defines Destination address [23:16] in SDRAM. 
;;;3593   C3h
;;;3594   When REG DMACR bit 1 = 0 (Linear Mode) 
;;;3595   This register defines DMA Destination Window Upper-Left corner 
;;;3596   Y-coordination [12:8] on Canvas area. 
;;;3597   When REG DMACR bit 1 = 1 (Block Mode) 
;;;3598   This register defines Destination address [31:24] in SDRAM. 
;;;3599   */
;;;3600    
;;;3601   	LCD_CmdWrite(0xC0);
001e54  20c0              MOVS     r0,#0xc0
001e56  f7fffffe          BL       LCD_CmdWrite
;;;3602   	LCD_DataWrite(WX);
001e5a  b2d0              UXTB     r0,r2
001e5c  f7fffffe          BL       LCD_DataWrite
;;;3603   	LCD_CmdWrite(0xC1);
001e60  20c1              MOVS     r0,#0xc1
001e62  f7fffffe          BL       LCD_CmdWrite
;;;3604   	LCD_DataWrite(WX>>8);
001e66  0a10              LSRS     r0,r2,#8
001e68  f7fffffe          BL       LCD_DataWrite
;;;3605    
;;;3606   	LCD_CmdWrite(0xC2);
001e6c  20c2              MOVS     r0,#0xc2
001e6e  f7fffffe          BL       LCD_CmdWrite
;;;3607   	LCD_DataWrite(HY);
001e72  b2d8              UXTB     r0,r3
001e74  f7fffffe          BL       LCD_DataWrite
;;;3608   	LCD_CmdWrite(0xC3);
001e78  20c3              MOVS     r0,#0xc3
001e7a  f7fffffe          BL       LCD_CmdWrite
;;;3609   	LCD_DataWrite(HY>>8);
001e7e  0a18              LSRS     r0,r3,#8
001e80  f85deb04          POP      {lr}
001e84  f7ffbffe          B.W      LCD_DataWrite
;;;3610   }
;;;3611   
                          ENDP

                  SFI_DMA_Transfer_Number PROC
;;;3612   //[C6h][C7h][C8h][C9h]=========================================================================
;;;3613   void SFI_DMA_Transfer_Number(unsigned long Addr)
001e88  b500              PUSH     {lr}
;;;3614   {
001e8a  4602              MOV      r2,r0
;;;3615   /*
;;;3616   Unit : Pixel
;;;3617   When REG DMACR bit 1 = 0 (Linear Mode)
;;;3618   DMA Transfer Number [7:0][15:8][23:16][31:24]
;;;3619   
;;;3620   When REG DMACR bit 1 = 1 (Block Mode)
;;;3621   DMA Block Width [7:0][15:8]
;;;3622   DMA Block HIGH[7:0][15:8]
;;;3623   */
;;;3624   	LCD_CmdWrite(0xC6);
001e8c  20c6              MOVS     r0,#0xc6
001e8e  f7fffffe          BL       LCD_CmdWrite
;;;3625   	LCD_DataWrite(Addr);
001e92  b2d0              UXTB     r0,r2
001e94  f7fffffe          BL       LCD_DataWrite
;;;3626   	LCD_CmdWrite(0xC7);
001e98  20c7              MOVS     r0,#0xc7
001e9a  f7fffffe          BL       LCD_CmdWrite
;;;3627   	LCD_DataWrite(Addr>>8);
001e9e  f3c22007          UBFX     r0,r2,#8,#8
001ea2  f7fffffe          BL       LCD_DataWrite
;;;3628   	LCD_CmdWrite(0xC8);
001ea6  20c8              MOVS     r0,#0xc8
001ea8  f7fffffe          BL       LCD_CmdWrite
;;;3629   	LCD_DataWrite(Addr>>16);
001eac  f3c24007          UBFX     r0,r2,#16,#8
001eb0  f7fffffe          BL       LCD_DataWrite
;;;3630   	LCD_CmdWrite(0xC9);
001eb4  20c9              MOVS     r0,#0xc9
001eb6  f7fffffe          BL       LCD_CmdWrite
;;;3631   	LCD_DataWrite(Addr>>24);
001eba  0e10              LSRS     r0,r2,#24
001ebc  f85deb04          POP      {lr}
001ec0  f7ffbffe          B.W      LCD_DataWrite
;;;3632   }
;;;3633   void SFI_DMA_Transfer_Width_Height(unsigned short WX,unsigned short HY)
                          ENDP

                  SFI_DMA_Transfer_Width_Height PROC
001ec4  b500              PUSH     {lr}
;;;3634   {
001ec6  4602              MOV      r2,r0
001ec8  460b              MOV      r3,r1
;;;3635   /*
;;;3636   When REG DMACR bit 1 = 0 (Linear Mode)
;;;3637   DMA Transfer Number [7:0][15:8][23:16][31:24]
;;;3638   
;;;3639   When REG DMACR bit 1 = 1 (Block Mode)
;;;3640   DMA Block Width [7:0][15:8]
;;;3641   DMA Block HIGH[7:0][15:8]
;;;3642   */
;;;3643   	LCD_CmdWrite(0xC6);
001eca  20c6              MOVS     r0,#0xc6
001ecc  f7fffffe          BL       LCD_CmdWrite
;;;3644   	LCD_DataWrite(WX);
001ed0  b2d0              UXTB     r0,r2
001ed2  f7fffffe          BL       LCD_DataWrite
;;;3645   	LCD_CmdWrite(0xC7);
001ed6  20c7              MOVS     r0,#0xc7
001ed8  f7fffffe          BL       LCD_CmdWrite
;;;3646   	LCD_DataWrite(WX>>8);
001edc  0a10              LSRS     r0,r2,#8
001ede  f7fffffe          BL       LCD_DataWrite
;;;3647   
;;;3648   	LCD_CmdWrite(0xC8);
001ee2  20c8              MOVS     r0,#0xc8
001ee4  f7fffffe          BL       LCD_CmdWrite
;;;3649   	LCD_DataWrite(HY);
001ee8  b2d8              UXTB     r0,r3
001eea  f7fffffe          BL       LCD_DataWrite
;;;3650   	LCD_CmdWrite(0xC9);
001eee  20c9              MOVS     r0,#0xc9
001ef0  f7fffffe          BL       LCD_CmdWrite
;;;3651   	LCD_DataWrite(HY>>8);
001ef4  0a18              LSRS     r0,r3,#8
001ef6  f85deb04          POP      {lr}
001efa  f7ffbffe          B.W      LCD_DataWrite
;;;3652   }
;;;3653   
                          ENDP

                  Font_Select_UserDefine_Mode PROC
;;;3655   
;;;3656   void Font_Select_UserDefine_Mode(void)
001efe  b500              PUSH     {lr}
;;;3657   {
;;;3658   /*[bit7-6]
;;;3659   User-defined Font /CGROM Font Selection Bit in Text Mode
;;;3660   00 : Internal CGROM
;;;3661   01 : Genitop serial flash
;;;3662   10 : User-defined Font
;;;3663   */
;;;3664   	unsigned char temp;
;;;3665   	LCD_CmdWrite(0xCC);
001f00  20cc              MOVS     r0,#0xcc
001f02  f7fffffe          BL       LCD_CmdWrite
;;;3666   	temp = LCD_DataRead();
001f06  f7fffffe          BL       LCD_DataRead
;;;3667       temp |= cSetb7;
001f0a  f0400080          ORR      r0,r0,#0x80
;;;3668   	temp &= cClrb6;
001f0e  f00000bf          AND      r0,r0,#0xbf
;;;3669   	LCD_DataWrite(temp);
001f12  f85deb04          POP      {lr}
001f16  f7ffbffe          B.W      LCD_DataWrite
;;;3670   }
;;;3671   void CGROM_Select_Internal_CGROM(void)
                          ENDP

                  CGROM_Select_Internal_CGROM PROC
001f1a  b500              PUSH     {lr}
;;;3672   {
;;;3673   /*[bit7-6]
;;;3674   User-defined Font /CGROM Font Selection Bit in Text Mode
;;;3675   00 : Internal CGROM
;;;3676   01 : Genitop serial flash
;;;3677   10 : User-defined Font
;;;3678   */
;;;3679   	unsigned char temp;
;;;3680   	LCD_CmdWrite(0xCC);
001f1c  20cc              MOVS     r0,#0xcc
001f1e  f7fffffe          BL       LCD_CmdWrite
;;;3681   	temp = LCD_DataRead();
001f22  f7fffffe          BL       LCD_DataRead
;;;3682   	temp &= cClrb7;
001f26  f000007f          AND      r0,r0,#0x7f
;;;3683       temp &= cClrb6;
001f2a  f00000bf          AND      r0,r0,#0xbf
;;;3684   	LCD_DataWrite(temp);
001f2e  f85deb04          POP      {lr}
001f32  f7ffbffe          B.W      LCD_DataWrite
;;;3685   }
;;;3686   void CGROM_Select_Genitop_FontROM(void)
                          ENDP

                  CGROM_Select_Genitop_FontROM PROC
001f36  b500              PUSH     {lr}
;;;3687   {
;;;3688   /*[bit7-6]
;;;3689   User-defined Font /CGROM Font Selection Bit in Text Mode
;;;3690   00 : Internal CGROM
;;;3691   01 : Genitop serial flash
;;;3692   10 : User-defined Font
;;;3693   */
;;;3694   	unsigned char temp;
;;;3695   	LCD_CmdWrite(0xCC);
001f38  20cc              MOVS     r0,#0xcc
001f3a  f7fffffe          BL       LCD_CmdWrite
;;;3696   	temp = LCD_DataRead();
001f3e  f7fffffe          BL       LCD_DataRead
;;;3697   	temp &= cClrb7;
001f42  f000007f          AND      r0,r0,#0x7f
;;;3698       temp |= cSetb6;
001f46  f0400040          ORR      r0,r0,#0x40
;;;3699   	LCD_DataWrite(temp);
001f4a  f85deb04          POP      {lr}
001f4e  f7ffbffe          B.W      LCD_DataWrite
;;;3700   }
;;;3701   void Font_Select_8x16_16x16(void)
                          ENDP

                  Font_Select_8x16_16x16 PROC
001f52  b500              PUSH     {lr}
;;;3702   {
;;;3703   /*[bit5-4]
;;;3704   Font Height Setting
;;;3705   00b : 8x16 / 16x16.
;;;3706   01b : 12x24 / 24x24.
;;;3707   10b : 16x32 / 32x32.
;;;3708   *** User-defined Font width is decided by font code. Genitop
;;;3709   serial flashˇ¦s font width is decided by font code or GT Font ROM
;;;3710   control register.
;;;3711   */
;;;3712   	unsigned char temp;
;;;3713   	LCD_CmdWrite(0xCC);
001f54  20cc              MOVS     r0,#0xcc
001f56  f7fffffe          BL       LCD_CmdWrite
;;;3714   	temp = LCD_DataRead();
001f5a  f7fffffe          BL       LCD_DataRead
;;;3715       temp &= cClrb5;
001f5e  f00000df          AND      r0,r0,#0xdf
;;;3716       temp &= cClrb4;
001f62  f00000ef          AND      r0,r0,#0xef
;;;3717   	LCD_DataWrite(temp);
001f66  f85deb04          POP      {lr}
001f6a  f7ffbffe          B.W      LCD_DataWrite
;;;3718   }
;;;3719   void Font_Select_12x24_24x24(void)
                          ENDP

                  Font_Select_12x24_24x24 PROC
001f6e  b500              PUSH     {lr}
;;;3720   {
;;;3721   /*[bit5-4]
;;;3722   Font Height Setting
;;;3723   00b : 8x16 / 16x16.
;;;3724   01b : 12x24 / 24x24.
;;;3725   10b : 16x32 / 32x32.
;;;3726   *** User-defined Font width is decided by font code. Genitop
;;;3727   serial flashˇ¦s font width is decided by font code or GT Font ROM
;;;3728   control register.
;;;3729   */
;;;3730   	unsigned char temp;
;;;3731   	LCD_CmdWrite(0xCC);
001f70  20cc              MOVS     r0,#0xcc
001f72  f7fffffe          BL       LCD_CmdWrite
;;;3732   	temp = LCD_DataRead();
001f76  f7fffffe          BL       LCD_DataRead
;;;3733       temp &= cClrb5;
001f7a  f00000df          AND      r0,r0,#0xdf
;;;3734       temp |= cSetb4;
001f7e  f0400010          ORR      r0,r0,#0x10
;;;3735   	LCD_DataWrite(temp);
001f82  f85deb04          POP      {lr}
001f86  f7ffbffe          B.W      LCD_DataWrite
;;;3736   }
;;;3737   void Font_Select_16x32_32x32(void)
                          ENDP

                  Font_Select_16x32_32x32 PROC
001f8a  b500              PUSH     {lr}
;;;3738   {
;;;3739   /*[bit5-4]
;;;3740   Font Height Setting
;;;3741   00b : 8x16 / 16x16.
;;;3742   01b : 12x24 / 24x24.
;;;3743   10b : 16x32 / 32x32.
;;;3744   *** User-defined Font width is decided by font code. Genitop
;;;3745   serial flashˇ¦s font width is decided by font code or GT Font ROM
;;;3746   control register.
;;;3747   */
;;;3748   	unsigned char temp;
;;;3749   	LCD_CmdWrite(0xCC);
001f8c  20cc              MOVS     r0,#0xcc
001f8e  f7fffffe          BL       LCD_CmdWrite
;;;3750   	temp = LCD_DataRead();
001f92  f7fffffe          BL       LCD_DataRead
;;;3751       temp |= cSetb5;
001f96  f0400020          ORR      r0,r0,#0x20
;;;3752       temp &= cClrb4;
001f9a  f00000ef          AND      r0,r0,#0xef
;;;3753   	LCD_DataWrite(temp);
001f9e  f85deb04          POP      {lr}
001fa2  f7ffbffe          B.W      LCD_DataWrite
;;;3754   }
;;;3755   void Internal_CGROM_Select_ISOIEC8859_1(void)
                          ENDP

                  Internal_CGROM_Select_ISOIEC8859_1 PROC
001fa6  b500              PUSH     {lr}
;;;3756   {
;;;3757   /*
;;;3758   Font Selection for internal CGROM
;;;3759   When FNCR0 B7 = 0 and B5 = 0, Internal CGROM supports the
;;;3760   8x16 character sets with the standard coding of ISO/IEC 8859-1~4, 
;;;3761   which supports English and most of European country languages.
;;;3762   00b : ISO/IEC 8859-1.
;;;3763   01b : ISO/IEC 8859-2.
;;;3764   10b : ISO/IEC 8859-3.
;;;3765   11b : ISO/IEC 8859-4.
;;;3766   */
;;;3767   	unsigned char temp;
;;;3768   	LCD_CmdWrite(0xCC);
001fa8  20cc              MOVS     r0,#0xcc
001faa  f7fffffe          BL       LCD_CmdWrite
;;;3769   	temp = LCD_DataRead();
001fae  f7fffffe          BL       LCD_DataRead
;;;3770       temp &= cClrb1;
001fb2  f00000fd          AND      r0,r0,#0xfd
;;;3771       temp &= cClrb0;
001fb6  f00000fe          AND      r0,r0,#0xfe
;;;3772   	LCD_DataWrite(temp);
001fba  f85deb04          POP      {lr}
001fbe  f7ffbffe          B.W      LCD_DataWrite
;;;3773   }
;;;3774   void Internal_CGROM_Select_ISOIEC8859_2(void)
                          ENDP

                  Internal_CGROM_Select_ISOIEC8859_2 PROC
001fc2  b500              PUSH     {lr}
;;;3775   {
;;;3776   /*
;;;3777   Font Selection for internal CGROM
;;;3778   When FNCR0 B7 = 0 and B5 = 0, Internal CGROM supports the
;;;3779   8x16 character sets with the standard coding of ISO/IEC 8859-1~4, 
;;;3780   which supports English and most of European country languages.
;;;3781   00b : ISO/IEC 8859-1.
;;;3782   01b : ISO/IEC 8859-2.
;;;3783   10b : ISO/IEC 8859-3.
;;;3784   11b : ISO/IEC 8859-4.
;;;3785   */
;;;3786   	unsigned char temp;
;;;3787   	LCD_CmdWrite(0xCC);
001fc4  20cc              MOVS     r0,#0xcc
001fc6  f7fffffe          BL       LCD_CmdWrite
;;;3788   	temp = LCD_DataRead();
001fca  f7fffffe          BL       LCD_DataRead
;;;3789       temp &= cClrb1;
001fce  f00000fd          AND      r0,r0,#0xfd
;;;3790       temp |= cSetb0;
001fd2  f0400001          ORR      r0,r0,#1
;;;3791   	LCD_DataWrite(temp);
001fd6  f85deb04          POP      {lr}
001fda  f7ffbffe          B.W      LCD_DataWrite
;;;3792   }
;;;3793   void Internal_CGROM_Select_ISOIEC8859_3(void)
                          ENDP

                  Internal_CGROM_Select_ISOIEC8859_3 PROC
001fde  b500              PUSH     {lr}
;;;3794   {
;;;3795   /*
;;;3796   Font Selection for internal CGROM
;;;3797   When FNCR0 B7 = 0 and B5 = 0, Internal CGROM supports the
;;;3798   8x16 character sets with the standard coding of ISO/IEC 8859-1~4, 
;;;3799   which supports English and most of European country languages.
;;;3800   00b : ISO/IEC 8859-1.
;;;3801   01b : ISO/IEC 8859-2.
;;;3802   10b : ISO/IEC 8859-3.
;;;3803   11b : ISO/IEC 8859-4.
;;;3804   */
;;;3805   	unsigned char temp;
;;;3806   	LCD_CmdWrite(0xCC);
001fe0  20cc              MOVS     r0,#0xcc
001fe2  f7fffffe          BL       LCD_CmdWrite
;;;3807   	temp = LCD_DataRead();
001fe6  f7fffffe          BL       LCD_DataRead
;;;3808       temp |= cSetb1;
001fea  f0400002          ORR      r0,r0,#2
;;;3809       temp &= cClrb0;
001fee  f00000fe          AND      r0,r0,#0xfe
;;;3810   	LCD_DataWrite(temp);
001ff2  f85deb04          POP      {lr}
001ff6  f7ffbffe          B.W      LCD_DataWrite
;;;3811   }
;;;3812   void Internal_CGROM_Select_ISOIEC8859_4(void)
                          ENDP

                  Internal_CGROM_Select_ISOIEC8859_4 PROC
001ffa  b500              PUSH     {lr}
;;;3813   {
;;;3814   /*
;;;3815   Font Selection for internal CGROM
;;;3816   When FNCR0 B7 = 0 and B5 = 0, Internal CGROM supports the
;;;3817   8x16 character sets with the standard coding of ISO/IEC 8859-1~4, 
;;;3818   which supports English and most of European country languages.
;;;3819   00b : ISO/IEC 8859-1.
;;;3820   01b : ISO/IEC 8859-2.
;;;3821   10b : ISO/IEC 8859-3.
;;;3822   11b : ISO/IEC 8859-4.
;;;3823   */
;;;3824   	unsigned char temp;
;;;3825   	LCD_CmdWrite(0xCC);
001ffc  20cc              MOVS     r0,#0xcc
001ffe  f7fffffe          BL       LCD_CmdWrite
;;;3826   	temp = LCD_DataRead();
002002  f7fffffe          BL       LCD_DataRead
002006  b2c0              UXTB     r0,r0
;;;3827       temp |= cSetb1;
002008  f0400002          ORR      r0,r0,#2
;;;3828       temp |= cSetb0;
00200c  f0400001          ORR      r0,r0,#1
;;;3829   	LCD_DataWrite(temp);
002010  f85deb04          POP      {lr}
002014  f7ffbffe          B.W      LCD_DataWrite
;;;3830   }
;;;3831   //[CDh]=========================================================================
                          ENDP

                  Enable_Font_Alignment PROC
;;;3832   void Enable_Font_Alignment(void)
002018  b500              PUSH     {lr}
;;;3833   {
;;;3834   /*
;;;3835   Full Alignment Selection Bit
;;;3836   0 : Full alignment disable.
;;;3837   1 : Full alignment enable.
;;;3838   */
;;;3839   	unsigned char temp;
;;;3840   	LCD_CmdWrite(0xCD);
00201a  20cd              MOVS     r0,#0xcd
00201c  f7fffffe          BL       LCD_CmdWrite
;;;3841   	temp = LCD_DataRead();
002020  f7fffffe          BL       LCD_DataRead
002024  b2c0              UXTB     r0,r0
;;;3842       temp |= cSetb7;
002026  f0400080          ORR      r0,r0,#0x80
;;;3843   	LCD_DataWrite(temp);
00202a  f85deb04          POP      {lr}
00202e  f7ffbffe          B.W      LCD_DataWrite
;;;3844   }
;;;3845   void Disable_Font_Alignment(void)
                          ENDP

                  Disable_Font_Alignment PROC
002032  b500              PUSH     {lr}
;;;3846   {
;;;3847   /*
;;;3848   Full Alignment Selection Bit
;;;3849   0 : Full alignment disable.
;;;3850   1 : Full alignment enable.
;;;3851   */
;;;3852   	unsigned char temp;
;;;3853   	LCD_CmdWrite(0xCD);
002034  20cd              MOVS     r0,#0xcd
002036  f7fffffe          BL       LCD_CmdWrite
;;;3854   	temp = LCD_DataRead();
00203a  f7fffffe          BL       LCD_DataRead
;;;3855       temp &= cClrb7;
00203e  f000007f          AND      r0,r0,#0x7f
;;;3856   	LCD_DataWrite(temp);
002042  f85deb04          POP      {lr}
002046  f7ffbffe          B.W      LCD_DataWrite
;;;3857   }
;;;3858   void Font_Background_select_Transparency(void)
                          ENDP

                  Font_Background_select_Transparency PROC
00204a  b500              PUSH     {lr}
;;;3859   {
;;;3860   /*
;;;3861   Font Transparency
;;;3862   0 : Font with background color.
;;;3863   1 : Font with background transparency.
;;;3864   */
;;;3865   	unsigned char temp;
;;;3866   	LCD_CmdWrite(0xCD);
00204c  20cd              MOVS     r0,#0xcd
00204e  f7fffffe          BL       LCD_CmdWrite
;;;3867   	temp = LCD_DataRead();
002052  f7fffffe          BL       LCD_DataRead
002056  b2c0              UXTB     r0,r0
;;;3868       temp |= cSetb6;
002058  f0400040          ORR      r0,r0,#0x40
;;;3869   	LCD_DataWrite(temp);
00205c  f85deb04          POP      {lr}
002060  f7ffbffe          B.W      LCD_DataWrite
;;;3870   }
;;;3871   void Font_Background_select_Color(void)
                          ENDP

                  Font_Background_select_Color PROC
002064  b500              PUSH     {lr}
;;;3872   {
;;;3873   /*
;;;3874   Font Transparency
;;;3875   0 : Font with background color.
;;;3876   1 : Font with background transparency.
;;;3877   */
;;;3878   	unsigned char temp;
;;;3879   	LCD_CmdWrite(0xCD);
002066  20cd              MOVS     r0,#0xcd
002068  f7fffffe          BL       LCD_CmdWrite
;;;3880   	temp = LCD_DataRead();
00206c  f7fffffe          BL       LCD_DataRead
;;;3881       temp &= cClrb6;
002070  f00000bf          AND      r0,r0,#0xbf
;;;3882   	LCD_DataWrite(temp);
002074  f85deb04          POP      {lr}
002078  f7ffbffe          B.W      LCD_DataWrite
;;;3883   }
;;;3884   void Font_0_degree(void)
                          ENDP

                  Font_0_degree PROC
00207c  b500              PUSH     {lr}
;;;3885   {
;;;3886   /*
;;;3887   Font Rotation
;;;3888   0 : Normal
;;;3889   Text direction from left to right then from top to bottom
;;;3890   1 : Counterclockwise 90 degree & horizontal flip
;;;3891   Text direction from top to bottom then from left to right
;;;3892   (it should accommodate with set VDIR as 1)
;;;3893   This attribute can be changed only when previous font write
;;;3894   finished (core_busy = 0)
;;;3895   */
;;;3896   	unsigned char temp;
;;;3897   	LCD_CmdWrite(0xCD);
00207e  20cd              MOVS     r0,#0xcd
002080  f7fffffe          BL       LCD_CmdWrite
;;;3898   	temp = LCD_DataRead();
002084  f7fffffe          BL       LCD_DataRead
;;;3899       temp &= cClrb4;
002088  f00000ef          AND      r0,r0,#0xef
;;;3900   	LCD_DataWrite(temp);
00208c  f85deb04          POP      {lr}
002090  f7ffbffe          B.W      LCD_DataWrite
;;;3901   }
;;;3902   void Font_90_degree(void)
                          ENDP

                  Font_90_degree PROC
002094  b500              PUSH     {lr}
;;;3903   {
;;;3904   /*
;;;3905   Font Rotation
;;;3906   0 : Normal
;;;3907   Text direction from left to right then from top to bottom
;;;3908   1 : Counterclockwise 90 degree & horizontal flip
;;;3909   Text direction from top to bottom then from left to right
;;;3910   (it should accommodate with set VDIR as 1)
;;;3911   This attribute can be changed only when previous font write
;;;3912   finished (core_busy = 0)
;;;3913   */
;;;3914   	unsigned char temp;
;;;3915   	LCD_CmdWrite(0xCD);
002096  20cd              MOVS     r0,#0xcd
002098  f7fffffe          BL       LCD_CmdWrite
;;;3916   	temp = LCD_DataRead();
00209c  f7fffffe          BL       LCD_DataRead
0020a0  b2c0              UXTB     r0,r0
;;;3917       temp |= cSetb4;
0020a2  f0400010          ORR      r0,r0,#0x10
;;;3918   	LCD_DataWrite(temp);
0020a6  f85deb04          POP      {lr}
0020aa  f7ffbffe          B.W      LCD_DataWrite
;;;3919   }
;;;3920   void Font_Width_X1(void)
                          ENDP

                  Font_Width_X1 PROC
0020ae  b500              PUSH     {lr}
;;;3921   {
;;;3922   /*
;;;3923   Horizontal Font Enlargement
;;;3924   00b : X1.
;;;3925   01b : X2.
;;;3926   10b : X3.
;;;3927   11b : X4.
;;;3928   */
;;;3929   	unsigned char temp;
;;;3930   	LCD_CmdWrite(0xCD);
0020b0  20cd              MOVS     r0,#0xcd
0020b2  f7fffffe          BL       LCD_CmdWrite
;;;3931   	temp = LCD_DataRead();
0020b6  f7fffffe          BL       LCD_DataRead
;;;3932       temp &= cClrb3;
0020ba  f00000f7          AND      r0,r0,#0xf7
;;;3933       temp &= cClrb2;
0020be  f00000fb          AND      r0,r0,#0xfb
;;;3934   	LCD_DataWrite(temp);
0020c2  f85deb04          POP      {lr}
0020c6  f7ffbffe          B.W      LCD_DataWrite
;;;3935   }
;;;3936   void Font_Width_X2(void)
                          ENDP

                  Font_Width_X2 PROC
0020ca  b500              PUSH     {lr}
;;;3937   {
;;;3938   /*
;;;3939   Horizontal Font Enlargement
;;;3940   00b : X1.
;;;3941   01b : X2.
;;;3942   10b : X3.
;;;3943   11b : X4.
;;;3944   */
;;;3945   	unsigned char temp;
;;;3946   	LCD_CmdWrite(0xCD);
0020cc  20cd              MOVS     r0,#0xcd
0020ce  f7fffffe          BL       LCD_CmdWrite
;;;3947   	temp = LCD_DataRead();
0020d2  f7fffffe          BL       LCD_DataRead
;;;3948       temp &= cClrb3;
0020d6  f00000f7          AND      r0,r0,#0xf7
;;;3949       temp |= cSetb2;
0020da  f0400004          ORR      r0,r0,#4
;;;3950   	LCD_DataWrite(temp);
0020de  f85deb04          POP      {lr}
0020e2  f7ffbffe          B.W      LCD_DataWrite
;;;3951   }
;;;3952   void Font_Width_X3(void)
                          ENDP

                  Font_Width_X3 PROC
0020e6  b500              PUSH     {lr}
;;;3953   {
;;;3954   /*
;;;3955   Horizontal Font Enlargement
;;;3956   00b : X1.
;;;3957   01b : X2.
;;;3958   10b : X3.
;;;3959   11b : X4.
;;;3960   */
;;;3961   	unsigned char temp;
;;;3962   	LCD_CmdWrite(0xCD);
0020e8  20cd              MOVS     r0,#0xcd
0020ea  f7fffffe          BL       LCD_CmdWrite
;;;3963   	temp = LCD_DataRead();
0020ee  f7fffffe          BL       LCD_DataRead
;;;3964       temp |= cSetb3;
0020f2  f0400008          ORR      r0,r0,#8
;;;3965       temp &= cClrb2;
0020f6  f00000fb          AND      r0,r0,#0xfb
;;;3966   	LCD_DataWrite(temp);
0020fa  f85deb04          POP      {lr}
0020fe  f7ffbffe          B.W      LCD_DataWrite
;;;3967   }
;;;3968   void Font_Width_X4(void)
                          ENDP

                  Font_Width_X4 PROC
002102  b500              PUSH     {lr}
;;;3969   {
;;;3970   /*
;;;3971   Horizontal Font Enlargement
;;;3972   00b : X1.
;;;3973   01b : X2.
;;;3974   10b : X3.
;;;3975   11b : X4.
;;;3976   */
;;;3977   	unsigned char temp;
;;;3978   	LCD_CmdWrite(0xCD);
002104  20cd              MOVS     r0,#0xcd
002106  f7fffffe          BL       LCD_CmdWrite
;;;3979   	temp = LCD_DataRead();
00210a  f7fffffe          BL       LCD_DataRead
00210e  b2c0              UXTB     r0,r0
;;;3980       temp |= cSetb3;
002110  f0400008          ORR      r0,r0,#8
;;;3981       temp |= cSetb2;
002114  f0400004          ORR      r0,r0,#4
;;;3982   	LCD_DataWrite(temp);
002118  f85deb04          POP      {lr}
00211c  f7ffbffe          B.W      LCD_DataWrite
;;;3983   }
;;;3984   void Font_Height_X1(void)
                          ENDP

                  Font_Height_X1 PROC
002120  b500              PUSH     {lr}
;;;3985   {
;;;3986   /*
;;;3987   Vertical Font Enlargement
;;;3988   00b : X1.
;;;3989   01b : X2.
;;;3990   10b : X3.
;;;3991   11b : X4.
;;;3992   */
;;;3993   	unsigned char temp;
;;;3994   	LCD_CmdWrite(0xCD);
002122  20cd              MOVS     r0,#0xcd
002124  f7fffffe          BL       LCD_CmdWrite
;;;3995   	temp = LCD_DataRead();
002128  f7fffffe          BL       LCD_DataRead
;;;3996       temp &= cClrb1;
00212c  f00000fd          AND      r0,r0,#0xfd
;;;3997       temp &= cClrb0;
002130  f00000fe          AND      r0,r0,#0xfe
;;;3998   	LCD_DataWrite(temp);
002134  f85deb04          POP      {lr}
002138  f7ffbffe          B.W      LCD_DataWrite
;;;3999   }
;;;4000   void Font_Height_X2(void)
                          ENDP

                  Font_Height_X2 PROC
00213c  b500              PUSH     {lr}
;;;4001   {
;;;4002   /*
;;;4003   Vertical Font Enlargement
;;;4004   00b : X1.
;;;4005   01b : X2.
;;;4006   10b : X3.
;;;4007   11b : X4.
;;;4008   */
;;;4009   	unsigned char temp;
;;;4010   	LCD_CmdWrite(0xCD);
00213e  20cd              MOVS     r0,#0xcd
002140  f7fffffe          BL       LCD_CmdWrite
;;;4011   	temp = LCD_DataRead();
002144  f7fffffe          BL       LCD_DataRead
;;;4012       temp &= cClrb1;
002148  f00000fd          AND      r0,r0,#0xfd
;;;4013       temp |= cSetb0;
00214c  f0400001          ORR      r0,r0,#1
;;;4014   	LCD_DataWrite(temp);
002150  f85deb04          POP      {lr}
002154  f7ffbffe          B.W      LCD_DataWrite
;;;4015   }
;;;4016   void Font_Height_X3(void)
                          ENDP

                  Font_Height_X3 PROC
002158  b500              PUSH     {lr}
;;;4017   {
;;;4018   /*
;;;4019   Vertical Font Enlargement
;;;4020   00b : X1.
;;;4021   01b : X2.
;;;4022   10b : X3.
;;;4023   11b : X4.
;;;4024   */
;;;4025   	unsigned char temp;
;;;4026   	LCD_CmdWrite(0xCD);
00215a  20cd              MOVS     r0,#0xcd
00215c  f7fffffe          BL       LCD_CmdWrite
;;;4027   	temp = LCD_DataRead();
002160  f7fffffe          BL       LCD_DataRead
;;;4028       temp |= cSetb1;
002164  f0400002          ORR      r0,r0,#2
;;;4029       temp &= cClrb0;
002168  f00000fe          AND      r0,r0,#0xfe
;;;4030   	LCD_DataWrite(temp);
00216c  f85deb04          POP      {lr}
002170  f7ffbffe          B.W      LCD_DataWrite
;;;4031   }
;;;4032   void Font_Height_X4(void)
                          ENDP

                  Font_Height_X4 PROC
002174  b500              PUSH     {lr}
;;;4033   {
;;;4034   /*
;;;4035   Vertical Font Enlargement
;;;4036   00b : X1.
;;;4037   01b : X2.
;;;4038   10b : X3.
;;;4039   11b : X4.
;;;4040   */
;;;4041   	unsigned char temp;
;;;4042   	LCD_CmdWrite(0xCD);
002176  20cd              MOVS     r0,#0xcd
002178  f7fffffe          BL       LCD_CmdWrite
;;;4043   	temp = LCD_DataRead();
00217c  f7fffffe          BL       LCD_DataRead
002180  b2c0              UXTB     r0,r0
;;;4044       temp |= cSetb1;
002182  f0400002          ORR      r0,r0,#2
;;;4045       temp |= cSetb0;
002186  f0400001          ORR      r0,r0,#1
;;;4046   	LCD_DataWrite(temp);
00218a  f85deb04          POP      {lr}
00218e  f7ffbffe          B.W      LCD_DataWrite
;;;4047   }
;;;4048   
                          ENDP

                  GTFont_Select_GT21L16TW_GT21H16T1W PROC
;;;4049   //[CEh]=========================================================================
;;;4050   void GTFont_Select_GT21L16TW_GT21H16T1W(void)
002192  b500              PUSH     {lr}
;;;4051   {
;;;4052   /*
;;;4053   GT Serial Font ROM Select
;;;4054   000b: GT21L16TW / GT21H16T1W
;;;4055   001b: GT23L16U2W
;;;4056   010b: GT23L24T3Y / GT23H24T3Y
;;;4057   011b: GT23L24M1Z
;;;4058   100b: GT23L32S4W / GT23H32S4W
;;;4059   101b: GT20L24F6Y
;;;4060   110b: GT21L24S1W
;;;4061   111b: GT22L16A1Y
;;;4062   */
;;;4063   	unsigned char temp;
;;;4064   	LCD_CmdWrite(0xCE);
002194  20ce              MOVS     r0,#0xce
002196  f7fffffe          BL       LCD_CmdWrite
;;;4065   	temp = LCD_DataRead();
00219a  f7fffffe          BL       LCD_DataRead
;;;4066       temp &= cClrb7;
00219e  f000007f          AND      r0,r0,#0x7f
;;;4067       temp &= cClrb6;
0021a2  f00000bf          AND      r0,r0,#0xbf
;;;4068       temp &= cClrb5;
0021a6  f00000df          AND      r0,r0,#0xdf
;;;4069   	LCD_DataWrite(temp);
0021aa  f85deb04          POP      {lr}
0021ae  f7ffbffe          B.W      LCD_DataWrite
;;;4070   }
;;;4071   void GTFont_Select_GT23L16U2W(void)
                          ENDP

                  GTFont_Select_GT23L16U2W PROC
0021b2  b500              PUSH     {lr}
;;;4072   {
;;;4073   /*
;;;4074   GT Serial Font ROM Select
;;;4075   000b: GT21L16TW / GT21H16T1W
;;;4076   001b: GT23L16U2W
;;;4077   010b: GT23L24T3Y / GT23H24T3Y
;;;4078   011b: GT23L24M1Z
;;;4079   100b: GT23L32S4W / GT23H32S4W
;;;4080   101b: GT20L24F6Y
;;;4081   110b: GT21L24S1W
;;;4082   111b: GT22L16A1Y
;;;4083   */
;;;4084   	unsigned char temp;
;;;4085   	LCD_CmdWrite(0xCE);
0021b4  20ce              MOVS     r0,#0xce
0021b6  f7fffffe          BL       LCD_CmdWrite
;;;4086   	temp = LCD_DataRead();
0021ba  f7fffffe          BL       LCD_DataRead
;;;4087       temp &= cClrb7;
0021be  f000007f          AND      r0,r0,#0x7f
;;;4088       temp &= cClrb6;
0021c2  f00000bf          AND      r0,r0,#0xbf
;;;4089       temp |= cSetb5;
0021c6  f0400020          ORR      r0,r0,#0x20
;;;4090   	LCD_DataWrite(temp);
0021ca  f85deb04          POP      {lr}
0021ce  f7ffbffe          B.W      LCD_DataWrite
;;;4091   }
;;;4092   void GTFont_Select_GT23L24T3Y_GT23H24T3Y(void)
                          ENDP

                  GTFont_Select_GT23L24T3Y_GT23H24T3Y PROC
0021d2  b500              PUSH     {lr}
;;;4093   {
;;;4094   /*
;;;4095   GT Serial Font ROM Select
;;;4096   000b: GT21L16TW / GT21H16T1W
;;;4097   001b: GT23L16U2W
;;;4098   010b: GT23L24T3Y / GT23H24T3Y
;;;4099   011b: GT23L24M1Z
;;;4100   100b: GT23L32S4W / GT23H32S4W
;;;4101   101b: GT20L24F6Y
;;;4102   110b: GT21L24S1W
;;;4103   111b: GT22L16A1Y
;;;4104   */
;;;4105   	unsigned char temp;
;;;4106   	LCD_CmdWrite(0xCE);
0021d4  20ce              MOVS     r0,#0xce
0021d6  f7fffffe          BL       LCD_CmdWrite
;;;4107   	temp = LCD_DataRead();
0021da  f7fffffe          BL       LCD_DataRead
;;;4108       temp &= cClrb7;
0021de  f000007f          AND      r0,r0,#0x7f
;;;4109       temp |= cSetb6;
0021e2  f0400040          ORR      r0,r0,#0x40
;;;4110       temp &= cClrb5;
0021e6  f00000df          AND      r0,r0,#0xdf
;;;4111   	LCD_DataWrite(temp);
0021ea  f85deb04          POP      {lr}
0021ee  f7ffbffe          B.W      LCD_DataWrite
;;;4112   }
;;;4113   void GTFont_Select_GT23L24M1Z(void)
                          ENDP

                  GTFont_Select_GT23L24M1Z PROC
0021f2  b500              PUSH     {lr}
;;;4114   {
;;;4115   /*
;;;4116   GT Serial Font ROM Select
;;;4117   000b: GT21L16TW / GT21H16T1W
;;;4118   001b: GT23L16U2W
;;;4119   010b: GT23L24T3Y / GT23H24T3Y
;;;4120   011b: GT23L24M1Z
;;;4121   100b: GT23L32S4W / GT23H32S4W
;;;4122   101b: GT20L24F6Y
;;;4123   110b: GT21L24S1W
;;;4124   111b: GT22L16A1Y
;;;4125   */
;;;4126   	unsigned char temp;
;;;4127   	LCD_CmdWrite(0xCE);
0021f4  20ce              MOVS     r0,#0xce
0021f6  f7fffffe          BL       LCD_CmdWrite
;;;4128   	temp = LCD_DataRead();
0021fa  f7fffffe          BL       LCD_DataRead
;;;4129       temp &= cClrb7;
0021fe  f000007f          AND      r0,r0,#0x7f
;;;4130       temp |= cSetb6;
002202  f0400040          ORR      r0,r0,#0x40
;;;4131       temp |= cSetb5;
002206  f0400020          ORR      r0,r0,#0x20
;;;4132   	LCD_DataWrite(temp);
00220a  f85deb04          POP      {lr}
00220e  f7ffbffe          B.W      LCD_DataWrite
;;;4133   }
;;;4134   void GTFont_Select_GT23L32S4W_GT23H32S4W(void)
                          ENDP

                  GTFont_Select_GT23L32S4W_GT23H32S4W PROC
002212  b500              PUSH     {lr}
;;;4135   {
;;;4136   /*
;;;4137   GT Serial Font ROM Select
;;;4138   000b: GT21L16TW / GT21H16T1W
;;;4139   001b: GT23L16U2W
;;;4140   010b: GT23L24T3Y / GT23H24T3Y
;;;4141   011b: GT23L24M1Z
;;;4142   100b: GT23L32S4W / GT23H32S4W
;;;4143   101b: GT20L24F6Y
;;;4144   110b: GT21L24S1W
;;;4145   111b: GT22L16A1Y
;;;4146   */
;;;4147   	unsigned char temp;
;;;4148   	LCD_CmdWrite(0xCE);
002214  20ce              MOVS     r0,#0xce
002216  f7fffffe          BL       LCD_CmdWrite
;;;4149   	temp = LCD_DataRead();
00221a  f7fffffe          BL       LCD_DataRead
;;;4150       temp |= cSetb7;
00221e  f0400080          ORR      r0,r0,#0x80
;;;4151       temp &= cClrb6;
002222  f00000bf          AND      r0,r0,#0xbf
;;;4152       temp &= cClrb5;
002226  f00000df          AND      r0,r0,#0xdf
;;;4153   	LCD_DataWrite(temp);
00222a  f85deb04          POP      {lr}
00222e  f7ffbffe          B.W      LCD_DataWrite
;;;4154   }
;;;4155   void GTFont_Select_GT20L24F6Y(void)
                          ENDP

                  GTFont_Select_GT20L24F6Y PROC
002232  b500              PUSH     {lr}
;;;4156   {
;;;4157   /*
;;;4158   GT Serial Font ROM Select
;;;4159   000b: GT21L16TW / GT21H16T1W
;;;4160   001b: GT23L16U2W
;;;4161   010b: GT23L24T3Y / GT23H24T3Y
;;;4162   011b: GT23L24M1Z
;;;4163   100b: GT23L32S4W / GT23H32S4W
;;;4164   101b: GT20L24F6Y
;;;4165   110b: GT21L24S1W
;;;4166   111b: GT22L16A1Y
;;;4167   */
;;;4168   	unsigned char temp;
;;;4169   	LCD_CmdWrite(0xCE);
002234  20ce              MOVS     r0,#0xce
002236  f7fffffe          BL       LCD_CmdWrite
;;;4170   	temp = LCD_DataRead();
00223a  f7fffffe          BL       LCD_DataRead
;;;4171       temp |= cSetb7;
00223e  f0400080          ORR      r0,r0,#0x80
;;;4172       temp &= cClrb6;
002242  f00000bf          AND      r0,r0,#0xbf
;;;4173       temp |= cSetb5;
002246  f0400020          ORR      r0,r0,#0x20
;;;4174   	LCD_DataWrite(temp);
00224a  f85deb04          POP      {lr}
00224e  f7ffbffe          B.W      LCD_DataWrite
;;;4175   }
;;;4176   void GTFont_Select_GT21L24S1W(void)
                          ENDP

                  GTFont_Select_GT21L24S1W PROC
002252  b500              PUSH     {lr}
;;;4177   {
;;;4178   /*
;;;4179   GT Serial Font ROM Select
;;;4180   000b: GT21L16TW / GT21H16T1W
;;;4181   001b: GT23L16U2W
;;;4182   010b: GT23L24T3Y / GT23H24T3Y
;;;4183   011b: GT23L24M1Z
;;;4184   100b: GT23L32S4W / GT23H32S4W
;;;4185   101b: GT20L24F6Y
;;;4186   110b: GT21L24S1W
;;;4187   111b: GT22L16A1Y
;;;4188   */
;;;4189   	unsigned char temp;
;;;4190   	LCD_CmdWrite(0xCE);
002254  20ce              MOVS     r0,#0xce
002256  f7fffffe          BL       LCD_CmdWrite
;;;4191   	temp = LCD_DataRead();
00225a  f7fffffe          BL       LCD_DataRead
;;;4192       temp |= cSetb7;
00225e  f0400080          ORR      r0,r0,#0x80
;;;4193       temp |= cSetb6;
002262  f0400040          ORR      r0,r0,#0x40
;;;4194       temp &= cClrb5;
002266  f00000df          AND      r0,r0,#0xdf
;;;4195   	LCD_DataWrite(temp);
00226a  f85deb04          POP      {lr}
00226e  f7ffbffe          B.W      LCD_DataWrite
;;;4196   }
;;;4197   void GTFont_Select_GT22L16A1Y(void)
                          ENDP

                  GTFont_Select_GT22L16A1Y PROC
002272  b500              PUSH     {lr}
;;;4198   {
;;;4199   /*
;;;4200   GT Serial Font ROM Select
;;;4201   000b: GT21L16TW / GT21H16T1W
;;;4202   001b: GT23L16U2W
;;;4203   010b: GT23L24T3Y / GT23H24T3Y
;;;4204   011b: GT23L24M1Z
;;;4205   100b: GT23L32S4W / GT23H32S4W
;;;4206   101b: GT20L24F6Y
;;;4207   110b: GT21L24S1W
;;;4208   111b: GT22L16A1Y
;;;4209   */
;;;4210   	unsigned char temp;
;;;4211   	LCD_CmdWrite(0xCE);
002274  20ce              MOVS     r0,#0xce
002276  f7fffffe          BL       LCD_CmdWrite
;;;4212   	temp = LCD_DataRead();
00227a  f7fffffe          BL       LCD_DataRead
00227e  b2c0              UXTB     r0,r0
;;;4213       temp |= cSetb7;
002280  f0400080          ORR      r0,r0,#0x80
;;;4214       temp |= cSetb6;
002284  f0400040          ORR      r0,r0,#0x40
;;;4215       temp |= cSetb5;
002288  f0400020          ORR      r0,r0,#0x20
;;;4216   	LCD_DataWrite(temp);
00228c  f85deb04          POP      {lr}
002290  f7ffbffe          B.W      LCD_DataWrite
;;;4217   }
;;;4218   
                          ENDP

                  Set_GTFont_Decoder PROC
;;;4219   //[CFh]=========================================================================
;;;4220   void Set_GTFont_Decoder(unsigned char temp)
002294  b500              PUSH     {lr}
;;;4221   {
002296  4602              MOV      r2,r0
;;;4222   /*
;;;4223   [bit7-3]
;;;4224   FONT ROM Coding Setting
;;;4225   For specific GT serial Font ROM, the coding method must be set for decoding.
;;;4226   00000b: GB2312
;;;4227   00001b: GB12345/GB18030
;;;4228   00010b: BIG5
;;;4229   00011b: UNICODE
;;;4230   00100b: ASCII
;;;4231   00101b: UNI-Japanese
;;;4232   00110b: JIS0208
;;;4233   00111b: Latin/Greek/ Cyrillic / Arabic/Thai/Hebrew
;;;4234   01000b: Korea
;;;4235   10001b: ISO-8859-1
;;;4236   10010b: ISO-8859-2
;;;4237   10011b: ISO-8859-3
;;;4238   10100b: ISO-8859-4
;;;4239   10101b: ISO-8859-5
;;;4240   10110b: ISO-8859-6
;;;4241   10111b: ISO-8859-7
;;;4242   11000b: ISO-8859-8
;;;4243   11001b: ISO-8859-9
;;;4244   11010b: ISO-8859-10
;;;4245   11011b: ISO-8859-11
;;;4246   11100b: ISO-8859-12
;;;4247   11101b: ISO-8859-13
;;;4248   11110b: ISO-8859-14
;;;4249   11111b: ISO-8859-15
;;;4250   
;;;4251   [bit1-0]
;;;4252   ASCII / Latin/Greek/ Cyrillic / Arabic
;;;4253   		(ASCII)		(Latin/Greek/Cyrillic)	(Arabic)
;;;4254   00b		Normal			Normal 					NA
;;;4255   01b		Arial 		Variable Width 			Presentation Forms-A
;;;4256   10b		Roman 			NA 					Presentation Forms-B
;;;4257   11b		Bold			NA 						NA
;;;4258   */
;;;4259   	LCD_CmdWrite(0xCF);
002298  20cf              MOVS     r0,#0xcf
00229a  f7fffffe          BL       LCD_CmdWrite
;;;4260   	LCD_DataWrite(temp);
00229e  4610              MOV      r0,r2
0022a0  f85deb04          POP      {lr}
0022a4  f7ffbffe          B.W      LCD_DataWrite
;;;4261   }
;;;4262   //[D0h]=========================================================================
                          ENDP

                  Font_Line_Distance PROC
;;;4263   void Font_Line_Distance(unsigned char temp)
0022a8  b500              PUSH     {lr}
;;;4264   {
0022aa  4602              MOV      r2,r0
;;;4265   /*[bit4-0]
;;;4266   Font Line Distance Setting
;;;4267   Setting the font character line distance when setting memory font
;;;4268   write cursor auto move. (Unit: pixel)
;;;4269   */
;;;4270   	LCD_CmdWrite(0xD0);
0022ac  20d0              MOVS     r0,#0xd0
0022ae  f7fffffe          BL       LCD_CmdWrite
;;;4271   	LCD_DataWrite(temp);
0022b2  4610              MOV      r0,r2
0022b4  f85deb04          POP      {lr}
0022b8  f7ffbffe          B.W      LCD_DataWrite
;;;4272   }
;;;4273   //[D1h]=========================================================================
                          ENDP

                  Set_Font_to_Font_Width PROC
;;;4274   void Set_Font_to_Font_Width(unsigned char temp)
0022bc  b500              PUSH     {lr}
;;;4275   {
0022be  4602              MOV      r2,r0
;;;4276   /*[bit5-0]
;;;4277   Font to Font Width Setting (Unit: pixel)
;;;4278   */
;;;4279   	LCD_CmdWrite(0xD1);
0022c0  20d1              MOVS     r0,#0xd1
0022c2  f7fffffe          BL       LCD_CmdWrite
;;;4280   	LCD_DataWrite(temp);
0022c6  4610              MOV      r0,r2
0022c8  f85deb04          POP      {lr}
0022cc  f7ffbffe          B.W      LCD_DataWrite
;;;4281   }
;;;4282   //[D2h]~[D4h]=========================================================================
                          ENDP

                  Foreground_RGB PROC
;;;4283   void Foreground_RGB(unsigned char RED,unsigned char GREEN,unsigned char BLUE)
0022d0  b510              PUSH     {r4,lr}
;;;4284   {
0022d2  4604              MOV      r4,r0
0022d4  460b              MOV      r3,r1
;;;4285   /*
;;;4286   [D2h] Foreground Color - Red, for draw, text or color expansion
;;;4287   [D3h] Foreground Color - Green, for draw, text or color expansion
;;;4288   [D4h] Foreground Color - Blue, for draw, text or color expansion
;;;4289   */  
;;;4290       LCD_CmdWrite(0xD2);
0022d6  20d2              MOVS     r0,#0xd2
0022d8  f7fffffe          BL       LCD_CmdWrite
;;;4291   	LCD_DataWrite(RED);
0022dc  4620              MOV      r0,r4
0022de  f7fffffe          BL       LCD_DataWrite
;;;4292    
;;;4293       LCD_CmdWrite(0xD3);
0022e2  20d3              MOVS     r0,#0xd3
0022e4  f7fffffe          BL       LCD_CmdWrite
;;;4294   	LCD_DataWrite(GREEN);
0022e8  4618              MOV      r0,r3
0022ea  f7fffffe          BL       LCD_DataWrite
;;;4295     
;;;4296       LCD_CmdWrite(0xD4);
0022ee  20d4              MOVS     r0,#0xd4
0022f0  f7fffffe          BL       LCD_CmdWrite
;;;4297   	LCD_DataWrite(BLUE);
0022f4  e8bd4010          POP      {r4,lr}
0022f8  4610              MOV      r0,r2
0022fa  f7ffbffe          B.W      LCD_DataWrite
;;;4298   }
;;;4299   
                          ENDP

                  Foreground_color_256 PROC
;;;4300   //Input data format:R3G3B2  
;;;4301   void Foreground_color_256(unsigned char temp) 
0022fe  b500              PUSH     {lr}
;;;4302   {
002300  4602              MOV      r2,r0
;;;4303       LCD_CmdWrite(0xD2);
002302  20d2              MOVS     r0,#0xd2
002304  f7fffffe          BL       LCD_CmdWrite
;;;4304   	LCD_DataWrite(temp);
002308  4610              MOV      r0,r2
00230a  f7fffffe          BL       LCD_DataWrite
;;;4305    
;;;4306       LCD_CmdWrite(0xD3);
00230e  20d3              MOVS     r0,#0xd3
002310  f7fffffe          BL       LCD_CmdWrite
;;;4307   	LCD_DataWrite(temp<<3);
002314  06d0              LSLS     r0,r2,#27
002316  0e00              LSRS     r0,r0,#24
002318  f7fffffe          BL       LCD_DataWrite
;;;4308     
;;;4309       LCD_CmdWrite(0xD4);
00231c  20d4              MOVS     r0,#0xd4
00231e  f7fffffe          BL       LCD_CmdWrite
;;;4310   	LCD_DataWrite(temp<<6);
002322  0790              LSLS     r0,r2,#30
002324  0e00              LSRS     r0,r0,#24
002326  f85deb04          POP      {lr}
00232a  f7ffbffe          B.W      LCD_DataWrite
;;;4311   }
;;;4312    
                          ENDP

                  Foreground_color_16M PROC
;;;4313   //Input data format:R8G8B8 
;;;4314   void Foreground_color_16M(unsigned long temp)
00232e  b500              PUSH     {lr}
;;;4315   {
002330  4602              MOV      r2,r0
;;;4316       LCD_CmdWrite(0xD2);
002332  20d2              MOVS     r0,#0xd2
002334  f7fffffe          BL       LCD_CmdWrite
;;;4317    	LCD_DataWrite(temp>>16);
002338  f3c24007          UBFX     r0,r2,#16,#8
00233c  f7fffffe          BL       LCD_DataWrite
;;;4318    
;;;4319       LCD_CmdWrite(0xD3);
002340  20d3              MOVS     r0,#0xd3
002342  f7fffffe          BL       LCD_CmdWrite
;;;4320    	LCD_DataWrite(temp>>8);
002346  f3c22007          UBFX     r0,r2,#8,#8
00234a  f7fffffe          BL       LCD_DataWrite
;;;4321     
;;;4322       LCD_CmdWrite(0xD4);
00234e  20d4              MOVS     r0,#0xd4
002350  f7fffffe          BL       LCD_CmdWrite
;;;4323    	LCD_DataWrite(temp);
002354  b2d0              UXTB     r0,r2
002356  f85deb04          POP      {lr}
00235a  f7ffbffe          B.W      LCD_DataWrite
;;;4324   }
;;;4325    
                          ENDP

                  Background_RGB PROC
;;;4331   */ 
;;;4332   void Background_RGB(unsigned char RED,unsigned char GREEN,unsigned char BLUE)
00235e  b510              PUSH     {r4,lr}
;;;4333   {
002360  4604              MOV      r4,r0
002362  460b              MOV      r3,r1
;;;4334      
;;;4335     LCD_CmdWrite(0xD5);
002364  20d5              MOVS     r0,#0xd5
002366  f7fffffe          BL       LCD_CmdWrite
;;;4336   	LCD_DataWrite(RED);
00236a  4620              MOV      r0,r4
00236c  f7fffffe          BL       LCD_DataWrite
;;;4337     
;;;4338     LCD_CmdWrite(0xD6);
002370  20d6              MOVS     r0,#0xd6
002372  f7fffffe          BL       LCD_CmdWrite
;;;4339   	LCD_DataWrite(GREEN);
002376  4618              MOV      r0,r3
002378  f7fffffe          BL       LCD_DataWrite
;;;4340      
;;;4341     LCD_CmdWrite(0xD7);
00237c  20d7              MOVS     r0,#0xd7
00237e  f7fffffe          BL       LCD_CmdWrite
;;;4342   	LCD_DataWrite(BLUE);
002382  e8bd4010          POP      {r4,lr}
002386  4610              MOV      r0,r2
002388  f7ffbffe          B.W      LCD_DataWrite
;;;4343   }
;;;4344    
                          ENDP

                  Background_color_256 PROC
;;;4345   //Input data format:R3G3B2
;;;4346   void Background_color_256(unsigned char temp)
00238c  b500              PUSH     {lr}
;;;4347   {
00238e  4602              MOV      r2,r0
;;;4348       LCD_CmdWrite(0xD5);
002390  20d5              MOVS     r0,#0xd5
002392  f7fffffe          BL       LCD_CmdWrite
;;;4349    	LCD_DataWrite(temp);
002396  4610              MOV      r0,r2
002398  f7fffffe          BL       LCD_DataWrite
;;;4350     
;;;4351       LCD_CmdWrite(0xD6);
00239c  20d6              MOVS     r0,#0xd6
00239e  f7fffffe          BL       LCD_CmdWrite
;;;4352    	LCD_DataWrite(temp<<3);
0023a2  06d0              LSLS     r0,r2,#27
0023a4  0e00              LSRS     r0,r0,#24
0023a6  f7fffffe          BL       LCD_DataWrite
;;;4353      
;;;4354       LCD_CmdWrite(0xD7);
0023aa  20d7              MOVS     r0,#0xd7
0023ac  f7fffffe          BL       LCD_CmdWrite
;;;4355    	LCD_DataWrite(temp<<6);
0023b0  0790              LSLS     r0,r2,#30
0023b2  0e00              LSRS     r0,r0,#24
0023b4  f85deb04          POP      {lr}
0023b8  f7ffbffe          B.W      LCD_DataWrite
;;;4356   }
;;;4357    
                          ENDP

                  Background_color_65k PROC
;;;4358   //Input data format:R5G6B6
;;;4359   void Background_color_65k(unsigned short temp)
0023bc  b500              PUSH     {lr}
;;;4360   {
0023be  4602              MOV      r2,r0
;;;4361       LCD_CmdWrite(0xD5);
0023c0  20d5              MOVS     r0,#0xd5
0023c2  f7fffffe          BL       LCD_CmdWrite
;;;4362    	LCD_DataWrite(temp>>8);
0023c6  0a10              LSRS     r0,r2,#8
0023c8  f7fffffe          BL       LCD_DataWrite
;;;4363     
;;;4364       LCD_CmdWrite(0xD6);
0023cc  20d6              MOVS     r0,#0xd6
0023ce  f7fffffe          BL       LCD_CmdWrite
;;;4365    	LCD_DataWrite(temp>>3);
0023d2  f3c200c7          UBFX     r0,r2,#3,#8
0023d6  f7fffffe          BL       LCD_DataWrite
;;;4366      
;;;4367       LCD_CmdWrite(0xD7);
0023da  20d7              MOVS     r0,#0xd7
0023dc  f7fffffe          BL       LCD_CmdWrite
;;;4368    	LCD_DataWrite(temp<<3);
0023e0  06d0              LSLS     r0,r2,#27
0023e2  0e00              LSRS     r0,r0,#24
0023e4  f85deb04          POP      {lr}
0023e8  f7ffbffe          B.W      LCD_DataWrite
;;;4369   }
;;;4370    
                          ENDP

                  Background_color_16M PROC
;;;4371   //Input data format:R8G8B8
;;;4372   void Background_color_16M(unsigned long temp)
0023ec  b500              PUSH     {lr}
;;;4373   {
0023ee  4602              MOV      r2,r0
;;;4374       LCD_CmdWrite(0xD5);
0023f0  20d5              MOVS     r0,#0xd5
0023f2  f7fffffe          BL       LCD_CmdWrite
;;;4375    	LCD_DataWrite(temp>>16);
0023f6  f3c24007          UBFX     r0,r2,#16,#8
0023fa  f7fffffe          BL       LCD_DataWrite
;;;4376     
;;;4377       LCD_CmdWrite(0xD6);
0023fe  20d6              MOVS     r0,#0xd6
002400  f7fffffe          BL       LCD_CmdWrite
;;;4378    	LCD_DataWrite(temp>>8);
002404  f3c22007          UBFX     r0,r2,#8,#8
002408  f7fffffe          BL       LCD_DataWrite
;;;4379      
;;;4380       LCD_CmdWrite(0xD7);
00240c  20d7              MOVS     r0,#0xd7
00240e  f7fffffe          BL       LCD_CmdWrite
;;;4381    	LCD_DataWrite(temp);
002412  b2d0              UXTB     r0,r2
002414  f85deb04          POP      {lr}
002418  f7ffbffe          B.W      LCD_DataWrite
;;;4382   }
;;;4383   
                          ENDP

                  CGRAM_Start_address PROC
;;;4384   //[DBh]~[DEh]=========================================================================
;;;4385   void CGRAM_Start_address(unsigned long Addr)
00241c  b500              PUSH     {lr}
;;;4386   {
00241e  4602              MOV      r2,r0
;;;4387   /*
;;;4388   CGRAM START ADDRESS [31:0]
;;;4389   */	 
;;;4390       LCD_CmdWrite(0xDB);
002420  20db              MOVS     r0,#0xdb
002422  f7fffffe          BL       LCD_CmdWrite
;;;4391   	LCD_DataWrite(Addr);
002426  b2d0              UXTB     r0,r2
002428  f7fffffe          BL       LCD_DataWrite
;;;4392       LCD_CmdWrite(0xDC);
00242c  20dc              MOVS     r0,#0xdc
00242e  f7fffffe          BL       LCD_CmdWrite
;;;4393   	LCD_DataWrite(Addr>>8);
002432  f3c22007          UBFX     r0,r2,#8,#8
002436  f7fffffe          BL       LCD_DataWrite
;;;4394       LCD_CmdWrite(0xDD);
00243a  20dd              MOVS     r0,#0xdd
00243c  f7fffffe          BL       LCD_CmdWrite
;;;4395   	LCD_DataWrite(Addr>>16);
002440  f3c24007          UBFX     r0,r2,#16,#8
002444  f7fffffe          BL       LCD_DataWrite
;;;4396       LCD_CmdWrite(0xDE);
002448  20de              MOVS     r0,#0xde
00244a  f7fffffe          BL       LCD_CmdWrite
;;;4397   	LCD_DataWrite(Addr>>24);
00244e  0e10              LSRS     r0,r2,#24
002450  f85deb04          POP      {lr}
002454  f7ffbffe          B.W      LCD_DataWrite
;;;4398   }
;;;4399   
                          ENDP

                  Power_Normal_Mode PROC
;;;4410   */
;;;4411   void Power_Normal_Mode(void)
002458  b500              PUSH     {lr}
;;;4412   {
;;;4413   	LCD_CmdWrite(0xDF);
00245a  20df              MOVS     r0,#0xdf
00245c  f7fffffe          BL       LCD_CmdWrite
;;;4414   	LCD_DataWrite(0x00);
002460  2000              MOVS     r0,#0
002462  f85deb04          POP      {lr}
002466  f7ffbffe          B.W      LCD_DataWrite
;;;4415   }
;;;4416   void Power_Saving_Standby_Mode(void)
                          ENDP

                  Power_Saving_Standby_Mode PROC
00246a  b500              PUSH     {lr}
;;;4417   {
;;;4418   	LCD_CmdWrite(0xDF);
00246c  20df              MOVS     r0,#0xdf
00246e  f7fffffe          BL       LCD_CmdWrite
;;;4419   	LCD_DataWrite(0x01);
002472  2001              MOVS     r0,#1
002474  f7fffffe          BL       LCD_DataWrite
;;;4420   	LCD_CmdWrite(0xDF);
002478  20df              MOVS     r0,#0xdf
00247a  f7fffffe          BL       LCD_CmdWrite
;;;4421   	LCD_DataWrite(0x81);
00247e  2081              MOVS     r0,#0x81
002480  f85deb04          POP      {lr}
002484  f7ffbffe          B.W      LCD_DataWrite
;;;4422   }
;;;4423   void Power_Saving_Suspend_Mode(void)
                          ENDP

                  Power_Saving_Suspend_Mode PROC
002488  b500              PUSH     {lr}
;;;4424   {
;;;4425   	LCD_CmdWrite(0xDF);
00248a  20df              MOVS     r0,#0xdf
00248c  f7fffffe          BL       LCD_CmdWrite
;;;4426   //	LCD_DataWrite(0x02);
;;;4427   //	LCD_CmdWrite(0xDF);
;;;4428   	LCD_DataWrite(0x82);
002490  2082              MOVS     r0,#0x82
002492  f85deb04          POP      {lr}
002496  f7ffbffe          B.W      LCD_DataWrite
;;;4429   }
;;;4430   void Power_Saving_Sleep_Mode(void)
                          ENDP

                  Power_Saving_Sleep_Mode PROC
00249a  b500              PUSH     {lr}
;;;4431   {
;;;4432   	LCD_CmdWrite(0xDF);
00249c  20df              MOVS     r0,#0xdf
00249e  f7fffffe          BL       LCD_CmdWrite
;;;4433   //	LCD_DataWrite(0x03);
;;;4434   //	LCD_CmdWrite(0xDF);
;;;4435   	LCD_DataWrite(0x83);
0024a2  2083              MOVS     r0,#0x83
0024a4  f85deb04          POP      {lr}
0024a8  f7ffbffe          B.W      LCD_DataWrite
;;;4436   }
;;;4437   
                          ENDP

                  LT768_I2CM_Clock_Prescale PROC
;;;4439   //[E5h]~[E6h]=========================================================================
;;;4440   void LT768_I2CM_Clock_Prescale(unsigned short WX)
0024ac  b500              PUSH     {lr}
;;;4441   {
0024ae  4602              MOV      r2,r0
;;;4442   /*
;;;4443   I2C Master Clock Pre-scale [7:0]
;;;4444   I2C Master Clock Pre-scale [15:8]
;;;4445   */  
;;;4446       LCD_CmdWrite(0xE5);
0024b0  20e5              MOVS     r0,#0xe5
0024b2  f7fffffe          BL       LCD_CmdWrite
;;;4447   	LCD_DataWrite(WX);
0024b6  b2d0              UXTB     r0,r2
0024b8  f7fffffe          BL       LCD_DataWrite
;;;4448       LCD_CmdWrite(0xE6);
0024bc  20e6              MOVS     r0,#0xe6
0024be  f7fffffe          BL       LCD_CmdWrite
;;;4449   	LCD_DataWrite(WX>>8);
0024c2  0a10              LSRS     r0,r2,#8
0024c4  f85deb04          POP      {lr}
0024c8  f7ffbffe          B.W      LCD_DataWrite
;;;4450   }
;;;4451   //[E7h]=========================================================================
                          ENDP

                  LT768_I2CM_Transmit_Data PROC
;;;4452   void LT768_I2CM_Transmit_Data(unsigned char temp)
0024cc  b500              PUSH     {lr}
;;;4453   {
0024ce  4602              MOV      r2,r0
;;;4454   /*
;;;4455   I2C Master Transmit[7:0]
;;;4456   */  
;;;4457       LCD_CmdWrite(0xE7);
0024d0  20e7              MOVS     r0,#0xe7
0024d2  f7fffffe          BL       LCD_CmdWrite
;;;4458   	LCD_DataWrite(temp);
0024d6  4610              MOV      r0,r2
0024d8  f85deb04          POP      {lr}
0024dc  f7ffbffe          B.W      LCD_DataWrite
;;;4459   }
;;;4460   //[E8h]=========================================================================
                          ENDP

                  LT768_I2CM_Receiver_Data PROC
;;;4461   unsigned char LT768_I2CM_Receiver_Data(void)
0024e0  b500              PUSH     {lr}
;;;4462   {
;;;4463   /*
;;;4464   I2C Master Receiver [7:0]
;;;4465   */  
;;;4466   	unsigned char temp;
;;;4467       LCD_CmdWrite(0xE8);
0024e2  20e8              MOVS     r0,#0xe8
0024e4  f7fffffe          BL       LCD_CmdWrite
;;;4468   	temp=LCD_DataRead();
0024e8  f7fffffe          BL       LCD_DataRead
0024ec  b2c0              UXTB     r0,r0
;;;4469   	return temp;
;;;4470   }
0024ee  bd00              POP      {pc}
;;;4471   //[E9h]=========================================================================
                          ENDP

                  LT768_I2CM_Stop PROC
;;;4498    
;;;4499   void LT768_I2CM_Stop(void)
0024f0  b500              PUSH     {lr}
;;;4500   {
;;;4501   	LCD_CmdWrite(0xE9);
0024f2  20e9              MOVS     r0,#0xe9
0024f4  f7fffffe          BL       LCD_CmdWrite
;;;4502   	#ifdef Disable_I2CM_Noise_Filter 
;;;4503   	LCD_DataWrite(0x40);
0024f8  2040              MOVS     r0,#0x40
0024fa  f85deb04          POP      {lr}
0024fe  f7ffbffe          B.W      LCD_DataWrite
;;;4504   	#endif
;;;4505    
;;;4506   	#ifdef Enable_I2CM_Noise_Filter 
;;;4507   	LCD_DataWrite(0x41);
;;;4508   	#endif
;;;4509   }
;;;4510   void LT768_I2CM_Read_With_Ack(void)
                          ENDP

                  LT768_I2CM_Read_With_Ack PROC
002502  b500              PUSH     {lr}
;;;4511   {
;;;4512    
;;;4513    LCD_CmdWrite(0xE9);
002504  20e9              MOVS     r0,#0xe9
002506  f7fffffe          BL       LCD_CmdWrite
;;;4514   	#ifdef Disable_I2CM_Noise_Filter 
;;;4515    LCD_DataWrite(0x20);
00250a  2020              MOVS     r0,#0x20
00250c  f85deb04          POP      {lr}
002510  f7ffbffe          B.W      LCD_DataWrite
;;;4516   	#endif
;;;4517   	
;;;4518   	#ifdef Enable_I2CM_Noise_Filter 
;;;4519    LCD_DataWrite(0x21);
;;;4520   	#endif
;;;4521   }
;;;4522    
                          ENDP

                  LT768_I2CM_Read_With_Nack PROC
;;;4523   void LT768_I2CM_Read_With_Nack(void)
002514  b500              PUSH     {lr}
;;;4524   {
;;;4525    
;;;4526   	LCD_CmdWrite(0xE9);
002516  20e9              MOVS     r0,#0xe9
002518  f7fffffe          BL       LCD_CmdWrite
;;;4527   	#ifdef Disable_I2CM_Noise_Filter 
;;;4528   	LCD_DataWrite(0x68);
00251c  2068              MOVS     r0,#0x68
00251e  f85deb04          POP      {lr}
002522  f7ffbffe          B.W      LCD_DataWrite
;;;4529   	#endif
;;;4530   	
;;;4531   	#ifdef Enable_I2CM_Noise_Filter 
;;;4532   	LCD_DataWrite(0x69);
;;;4533   	#endif
;;;4534   }
;;;4535    
                          ENDP

                  LT768_I2CM_Write_With_Start PROC
;;;4536   void LT768_I2CM_Write_With_Start(void)
002526  b500              PUSH     {lr}
;;;4537   {
;;;4538   	LCD_CmdWrite(0xE9);
002528  20e9              MOVS     r0,#0xe9
00252a  f7fffffe          BL       LCD_CmdWrite
;;;4539   	#ifdef Disable_I2CM_Noise_Filter 
;;;4540   	LCD_DataWrite(0x90);
00252e  2090              MOVS     r0,#0x90
002530  f85deb04          POP      {lr}
002534  f7ffbffe          B.W      LCD_DataWrite
;;;4541   	#endif
;;;4542    
;;;4543   	#ifdef Enable_I2CM_Noise_Filter 
;;;4544   	LCD_DataWrite(0x91);
;;;4545   	#endif
;;;4546   }
;;;4547    
                          ENDP

                  LT768_I2CM_Write PROC
;;;4548   void LT768_I2CM_Write(void)
002538  b500              PUSH     {lr}
;;;4549   {
;;;4550   	LCD_CmdWrite(0xE9);
00253a  20e9              MOVS     r0,#0xe9
00253c  f7fffffe          BL       LCD_CmdWrite
;;;4551   	#ifdef Disable_I2CM_Noise_Filter 
;;;4552   	LCD_DataWrite(0x10);
002540  2010              MOVS     r0,#0x10
002542  f85deb04          POP      {lr}
002546  f7ffbffe          B.W      LCD_DataWrite
;;;4553   	#endif
;;;4554   	
;;;4555   	#ifdef Enable_I2CM_Noise_Filter 
;;;4556   	LCD_DataWrite(0x11);
;;;4557   	#endif
;;;4558   }
;;;4559    
                          ENDP

                  LT768_I2CM_Check_Slave_ACK PROC
;;;4566   */
;;;4567   unsigned char LT768_I2CM_Check_Slave_ACK(void)
00254a  b500              PUSH     {lr}
;;;4568   { 
;;;4569   	unsigned char temp;
;;;4570   /*[bit7]
;;;4571   Received acknowledge from slave
;;;4572   0 : Acknowledge received.
;;;4573   1 : No Acknowledge received. 
;;;4574   */ 
;;;4575   	LCD_CmdWrite(0xEA);
00254c  20ea              MOVS     r0,#0xea
00254e  f7fffffe          BL       LCD_CmdWrite
;;;4576   	temp=LCD_DataRead();
002552  f7fffffe          BL       LCD_DataRead
;;;4577   	if((temp&0x80)==0x80)
002556  0600              LSLS     r0,r0,#24
002558  d501              BPL      |L1.9566|
;;;4578   	return 1;
00255a  2001              MOVS     r0,#1
;;;4579   	else
;;;4580   	return 0; 
;;;4581   }
00255c  bd00              POP      {pc}
                  |L1.9566|
00255e  2000              MOVS     r0,#0                 ;4580
002560  bd00              POP      {pc}
;;;4582    
                          ENDP

                  LT768_I2CM_Bus_Busy PROC
;;;4587   */
;;;4588   unsigned char LT768_I2CM_Bus_Busy(void)
002562  b500              PUSH     {lr}
;;;4589   {
;;;4590   	unsigned char temp; 
;;;4591    
;;;4592   /*[bit6]
;;;4593   I2C Bus is Busy
;;;4594   0 : Idle.
;;;4595   1 : Busy.  
;;;4596   */ 
;;;4597   	LCD_CmdWrite(0xEA);
002564  20ea              MOVS     r0,#0xea
002566  f7fffffe          BL       LCD_CmdWrite
;;;4598   	temp=LCD_DataRead();
00256a  f7fffffe          BL       LCD_DataRead
;;;4599   	if((temp&0x40)==0x40)
00256e  0640              LSLS     r0,r0,#25
002570  d501              BPL      |L1.9590|
;;;4600   	return 1;
002572  2001              MOVS     r0,#1
;;;4601   	else
;;;4602   	return 0;    
;;;4603   }
002574  bd00              POP      {pc}
                  |L1.9590|
002576  2000              MOVS     r0,#0                 ;4602
002578  bd00              POP      {pc}
;;;4604    
                          ENDP

                  LT768_I2CM_transmit_Progress PROC
;;;4608   */
;;;4609   unsigned char LT768_I2CM_transmit_Progress(void)
00257a  b500              PUSH     {lr}
;;;4610   {
;;;4611   	unsigned char temp; 
;;;4612   /*[bit6]
;;;4613    0=Complete
;;;4614    1=Transferring
;;;4615   */ 
;;;4616   	LCD_CmdWrite(0xEA);
00257c  20ea              MOVS     r0,#0xea
00257e  f7fffffe          BL       LCD_CmdWrite
;;;4617   	temp=LCD_DataRead();
002582  f7fffffe          BL       LCD_DataRead
;;;4618   	if((temp&0x02)==0x02)
002586  0780              LSLS     r0,r0,#30
002588  d501              BPL      |L1.9614|
;;;4619   	return 1;
00258a  2001              MOVS     r0,#1
;;;4620   	else
;;;4621   	return 0;
;;;4622   }
00258c  bd00              POP      {pc}
                  |L1.9614|
00258e  2000              MOVS     r0,#0                 ;4621
002590  bd00              POP      {pc}
;;;4623    
                          ENDP

                  LT768_I2CM_Arbitration PROC
;;;4627   */
;;;4628   unsigned char LT768_I2CM_Arbitration(void)
002592  b500              PUSH     {lr}
;;;4629   {
;;;4630   	unsigned char temp; 
;;;4631   /*[bit6]
;;;4632   I2C Bus is Busy
;;;4633   0 : Idle.
;;;4634   1 : Busy.  
;;;4635   */ 
;;;4636   	LCD_CmdWrite(0xEA);
002594  20ea              MOVS     r0,#0xea
002596  f7fffffe          BL       LCD_CmdWrite
;;;4637   	temp=LCD_DataRead();
00259a  f7fffffe          BL       LCD_DataRead
;;;4638   	temp&=0x01;
00259e  f0000001          AND      r0,r0,#1
;;;4639   	return temp;
;;;4640   }
0025a2  bd00              POP      {pc}
;;;4641   
                          ENDP

                  Set_GPIO_A_In_Out PROC
;;;4643   //[F0h]=========================================================================
;;;4644   void Set_GPIO_A_In_Out(unsigned char temp)
0025a4  b500              PUSH     {lr}
;;;4645   {
0025a6  4602              MOV      r2,r0
;;;4646   /*
;;;4647   GPO-A_dir[7:0] : General Purpose I/O direction control.
;;;4648   0: Output
;;;4649   1: Input
;;;4650   */
;;;4651   	LCD_CmdWrite(0xF0);
0025a8  20f0              MOVS     r0,#0xf0
0025aa  f7fffffe          BL       LCD_CmdWrite
;;;4652   	LCD_DataWrite(temp);
0025ae  4610              MOV      r0,r2
0025b0  f85deb04          POP      {lr}
0025b4  f7ffbffe          B.W      LCD_DataWrite
;;;4653   }
;;;4654   //[F1h]=========================================================================
                          ENDP

                  Write_GPIO_A_7_0 PROC
;;;4655   void Write_GPIO_A_7_0(unsigned char temp)
0025b8  b500              PUSH     {lr}
;;;4656   {
0025ba  4602              MOV      r2,r0
;;;4657   /*
;;;4658   GPI-A[7:0] : General Purpose Input, share with DB[15:8]
;;;4659   GPO-A[7:0] : General Purpose Output, share with DB[15:8]
;;;4660   */
;;;4661   	LCD_CmdWrite(0xF1);
0025bc  20f1              MOVS     r0,#0xf1
0025be  f7fffffe          BL       LCD_CmdWrite
;;;4662   	LCD_DataWrite(temp);
0025c2  4610              MOV      r0,r2
0025c4  f85deb04          POP      {lr}
0025c8  f7ffbffe          B.W      LCD_DataWrite
;;;4663   }
;;;4664   unsigned char Read_GPIO_A_7_0(void)
                          ENDP

                  Read_GPIO_A_7_0 PROC
0025cc  b500              PUSH     {lr}
;;;4665   {
;;;4666   /*
;;;4667   GPI-A[7:0] : General Purpose Input, share with DB[15:8]
;;;4668   GPO-A[7:0] : General Purpose Output, share with DB[15:8]
;;;4669   */
;;;4670   	unsigned char temp;
;;;4671   	LCD_CmdWrite(0xF1);
0025ce  20f1              MOVS     r0,#0xf1
0025d0  f7fffffe          BL       LCD_CmdWrite
;;;4672   	temp=LCD_DataRead();
0025d4  f7fffffe          BL       LCD_DataRead
0025d8  b2c0              UXTB     r0,r0
;;;4673   	return temp;
;;;4674   }
0025da  bd00              POP      {pc}
;;;4675   //[F2h]=========================================================================
                          ENDP

                  Write_GPIO_B_7_4 PROC
;;;4676   void Write_GPIO_B_7_4(unsigned char temp)
0025dc  b500              PUSH     {lr}
;;;4677   {
0025de  4602              MOV      r2,r0
;;;4678   /*
;;;4679   GPI-B[7:0] : General Purpose Input ; share with {XKIN[3:0], XA0, XnWR, XnRD, XnCS}
;;;4680   GPO-B[7:4] : General Purpose Output ; share with XKOUT[3:0] ;
;;;4681   */
;;;4682   	LCD_CmdWrite(0xF2);
0025e0  20f2              MOVS     r0,#0xf2
0025e2  f7fffffe          BL       LCD_CmdWrite
;;;4683   	LCD_DataWrite(temp);
0025e6  4610              MOV      r0,r2
0025e8  f85deb04          POP      {lr}
0025ec  f7ffbffe          B.W      LCD_DataWrite
;;;4684   }
;;;4685   unsigned char Read_GPIO_B_7_0(void)
                          ENDP

                  Read_GPIO_B_7_0 PROC
0025f0  b500              PUSH     {lr}
;;;4686   {
;;;4687   /*
;;;4688   GPI-B[7:0] : General Purpose Input ; share with {XKIN[3:0], XA0, XnWR, XnRD, XnCS}
;;;4689   GPO-B[7:4] : General Purpose Output ; share with XKOUT[3:0] ;
;;;4690   */
;;;4691   	unsigned char temp;
;;;4692   	LCD_CmdWrite(0xF2);
0025f2  20f2              MOVS     r0,#0xf2
0025f4  f7fffffe          BL       LCD_CmdWrite
;;;4693   	temp=LCD_DataRead();
0025f8  f7fffffe          BL       LCD_DataRead
0025fc  b2c0              UXTB     r0,r0
;;;4694   	return temp;
;;;4695   }
0025fe  bd00              POP      {pc}
;;;4696   
                          ENDP

                  Set_GPIO_C_In_Out PROC
;;;4697   //[F3h]=========================================================================
;;;4698   void Set_GPIO_C_In_Out(unsigned char temp)
002600  b500              PUSH     {lr}
;;;4699   {
002602  4602              MOV      r2,r0
;;;4700   /*
;;;4701   GPIO-C_dir[7:0] : General Purpose I/O direction control.
;;;4702   0: Output
;;;4703   1: Input
;;;4704   */
;;;4705   	LCD_CmdWrite(0xF3);
002604  20f3              MOVS     r0,#0xf3
002606  f7fffffe          BL       LCD_CmdWrite
;;;4706   	LCD_DataWrite(temp);
00260a  4610              MOV      r0,r2
00260c  f85deb04          POP      {lr}
002610  f7ffbffe          B.W      LCD_DataWrite
;;;4707   }
;;;4708   //[F4h]=========================================================================
                          ENDP

                  Write_GPIO_C_7_0 PROC
;;;4709   void Write_GPIO_C_7_0(unsigned char temp)
002614  b500              PUSH     {lr}
;;;4710   {
002616  4602              MOV      r2,r0
;;;4711   /*
;;;4712   GPIO-C[7:0] : General Purpose Input / Output
;;;4713   share with {XPWM0, XI2CSDA, XI2CSCL, XnSFCS1, XnSFCS0,XMISO, XMOSI, XSCLK}
;;;4714   */
;;;4715   	LCD_CmdWrite(0xF4);
002618  20f4              MOVS     r0,#0xf4
00261a  f7fffffe          BL       LCD_CmdWrite
;;;4716   	LCD_DataWrite(temp);
00261e  4610              MOV      r0,r2
002620  f85deb04          POP      {lr}
002624  f7ffbffe          B.W      LCD_DataWrite
;;;4717   }
;;;4718   unsigned char Read_GPIO_C_7_0(void)
                          ENDP

                  Read_GPIO_C_7_0 PROC
002628  b500              PUSH     {lr}
;;;4719   {
;;;4720   /*
;;;4721   GPIO-C[7:0] : General Purpose Input / Output
;;;4722   share with {XPWM0, XI2CSDA, XI2CSCL, XnSFCS1, XnSFCS0,XMISO, XMOSI, XSCLK}
;;;4723   */
;;;4724   	unsigned char temp;
;;;4725   	LCD_CmdWrite(0xF4);
00262a  20f4              MOVS     r0,#0xf4
00262c  f7fffffe          BL       LCD_CmdWrite
;;;4726   	temp=LCD_DataRead();
002630  f7fffffe          BL       LCD_DataRead
002634  b2c0              UXTB     r0,r0
;;;4727   	return temp;
;;;4728   }
002636  bd00              POP      {pc}
;;;4729   //[F5h]=========================================================================
                          ENDP

                  Set_GPIO_D_In_Out PROC
;;;4730   void Set_GPIO_D_In_Out(unsigned char temp)
002638  b500              PUSH     {lr}
;;;4731   {
00263a  4602              MOV      r2,r0
;;;4732   /*
;;;4733   GPIO-D_dir[7:0] : General Purpose I/O direction control.
;;;4734   0: Output
;;;4735   1: Input
;;;4736   */
;;;4737   	LCD_CmdWrite(0xF5);
00263c  20f5              MOVS     r0,#0xf5
00263e  f7fffffe          BL       LCD_CmdWrite
;;;4738   	LCD_DataWrite(temp);
002642  4610              MOV      r0,r2
002644  f85deb04          POP      {lr}
002648  f7ffbffe          B.W      LCD_DataWrite
;;;4739   }
;;;4740   //[F6h]=========================================================================
                          ENDP

                  Write_GPIO_D_7_0 PROC
;;;4741   void Write_GPIO_D_7_0(unsigned char temp)
00264c  b500              PUSH     {lr}
;;;4742   {
00264e  4602              MOV      r2,r0
;;;4743   /*
;;;4744   GPIO-D[7:0] : General Purpose Input/Output
;;;4745   */
;;;4746   	LCD_CmdWrite(0xF6);
002650  20f6              MOVS     r0,#0xf6
002652  f7fffffe          BL       LCD_CmdWrite
;;;4747   	LCD_DataWrite(temp);
002656  4610              MOV      r0,r2
002658  f85deb04          POP      {lr}
00265c  f7ffbffe          B.W      LCD_DataWrite
;;;4748   }
;;;4749   unsigned char Read_GPIO_D_7_0(void)
                          ENDP

                  Read_GPIO_D_7_0 PROC
002660  b500              PUSH     {lr}
;;;4750   {
;;;4751   /*
;;;4752   GPIO-D[7:0] : General Purpose Input/Output
;;;4753   */
;;;4754   	unsigned char temp;
;;;4755   	LCD_CmdWrite(0xF6);
002662  20f6              MOVS     r0,#0xf6
002664  f7fffffe          BL       LCD_CmdWrite
;;;4756   	temp=LCD_DataRead();
002668  f7fffffe          BL       LCD_DataRead
00266c  b2c0              UXTB     r0,r0
;;;4757   	return temp;
;;;4758   }
00266e  bd00              POP      {pc}
;;;4759   //[F7h]=========================================================================
                          ENDP

                  Set_GPIO_E_In_Out PROC
;;;4760   void Set_GPIO_E_In_Out(unsigned char temp)
002670  b500              PUSH     {lr}
;;;4761   {
002672  4602              MOV      r2,r0
;;;4762   /*
;;;4763   GPIO-E_dir[7:0] : General Purpose I/O direction control.
;;;4764   0: Output
;;;4765   1: Input
;;;4766   */
;;;4767   	LCD_CmdWrite(0xF7);
002674  20f7              MOVS     r0,#0xf7
002676  f7fffffe          BL       LCD_CmdWrite
;;;4768   	LCD_DataWrite(temp);
00267a  4610              MOV      r0,r2
00267c  f85deb04          POP      {lr}
002680  f7ffbffe          B.W      LCD_DataWrite
;;;4769   }
;;;4770   //[F8h]=========================================================================
                          ENDP

                  Write_GPIO_E_7_0 PROC
;;;4771   void Write_GPIO_E_7_0(unsigned char temp)
002684  b500              PUSH     {lr}
;;;4772   {
002686  4602              MOV      r2,r0
;;;4773   /*
;;;4774   GPIO-E[7:0] : General Purpose Input/Output.
;;;4775   share with {PDAT[23:19], PDAT[15:13]}
;;;4776   */
;;;4777   	LCD_CmdWrite(0xF8);
002688  20f8              MOVS     r0,#0xf8
00268a  f7fffffe          BL       LCD_CmdWrite
;;;4778   	LCD_DataWrite(temp);
00268e  4610              MOV      r0,r2
002690  f85deb04          POP      {lr}
002694  f7ffbffe          B.W      LCD_DataWrite
;;;4779   }
;;;4780   unsigned char Read_GPIO_E_7_0(void)
                          ENDP

                  Read_GPIO_E_7_0 PROC
002698  b500              PUSH     {lr}
;;;4781   {
;;;4782   /*
;;;4783   GPIO-E[7:0] : General Purpose Input/Output.
;;;4784   share with {PDAT[23:19], PDAT[15:13]}
;;;4785   */
;;;4786   	unsigned char temp;
;;;4787   	LCD_CmdWrite(0xF8);
00269a  20f8              MOVS     r0,#0xf8
00269c  f7fffffe          BL       LCD_CmdWrite
;;;4788   	temp=LCD_DataRead();
0026a0  f7fffffe          BL       LCD_DataRead
0026a4  b2c0              UXTB     r0,r0
;;;4789   	return temp;
;;;4790   }
0026a6  bd00              POP      {pc}
;;;4791   //[F9h]=========================================================================
                          ENDP

                  Set_GPIO_F_In_Out PROC
;;;4792   void Set_GPIO_F_In_Out(unsigned char temp)
0026a8  b500              PUSH     {lr}
;;;4793   {
0026aa  4602              MOV      r2,r0
;;;4794   /*
;;;4795   GPIO-F_dir[7:0] : General Purpose I/O direction control.
;;;4796   0: Output
;;;4797   1: Input
;;;4798   */
;;;4799   	LCD_CmdWrite(0xF9);
0026ac  20f9              MOVS     r0,#0xf9
0026ae  f7fffffe          BL       LCD_CmdWrite
;;;4800   	LCD_DataWrite(temp);
0026b2  4610              MOV      r0,r2
0026b4  f85deb04          POP      {lr}
0026b8  f7ffbffe          B.W      LCD_DataWrite
;;;4801   }
;;;4802   //[FAh]=========================================================================
                          ENDP

                  Write_GPIO_F_7_0 PROC
;;;4803   void Write_GPIO_F_7_0(unsigned char temp)
0026bc  b500              PUSH     {lr}
;;;4804   {
0026be  4602              MOV      r2,r0
;;;4805   /*
;;;4806   GPIO-F[7:0] : General Purpose Input/Output.
;;;4807   share with {XPDAT[12:10], XPDAT[7:3]}
;;;4808   */
;;;4809   	LCD_CmdWrite(0xFA);
0026c0  20fa              MOVS     r0,#0xfa
0026c2  f7fffffe          BL       LCD_CmdWrite
;;;4810   	LCD_DataWrite(temp);
0026c6  4610              MOV      r0,r2
0026c8  f85deb04          POP      {lr}
0026cc  f7ffbffe          B.W      LCD_DataWrite
;;;4811   }
;;;4812   unsigned char Read_GPIO_F_7_0(void)
                          ENDP

                  Read_GPIO_F_7_0 PROC
0026d0  b500              PUSH     {lr}
;;;4813   {
;;;4814   /*
;;;4815   GPIO-F[7:0] : General Purpose Input/Output.
;;;4816   share with {XPDAT[12:10], XPDAT[7:3]}
;;;4817   */
;;;4818   	unsigned char temp;
;;;4819   	LCD_CmdWrite(0xFA);
0026d2  20fa              MOVS     r0,#0xfa
0026d4  f7fffffe          BL       LCD_CmdWrite
;;;4820   	temp=LCD_DataRead();
0026d8  f7fffffe          BL       LCD_DataRead
0026dc  b2c0              UXTB     r0,r0
;;;4821   	return temp;
;;;4822   }
0026de  bd00              POP      {pc}
;;;4823   
                          ENDP

                  Long_Key_enable PROC
;;;4826   
;;;4827   void Long_Key_enable(void)
0026e0  b500              PUSH     {lr}
;;;4828   {
;;;4829    /*
;;;4830   Key-Scan Control Register 1
;;;4831   [bit6]		LongKey Enable Bit
;;;4832   1 : Enable. Long key period is set by KSCR2 bit4-2.
;;;4833   0 : Disable.
;;;4834   */
;;;4835   	unsigned char temp;
;;;4836   	LCD_CmdWrite(0xFB);
0026e2  20fb              MOVS     r0,#0xfb
0026e4  f7fffffe          BL       LCD_CmdWrite
;;;4837   	temp=LCD_DataRead();
0026e8  f7fffffe          BL       LCD_DataRead
0026ec  b2c0              UXTB     r0,r0
;;;4838   	temp |= cSetb6;
0026ee  f0400040          ORR      r0,r0,#0x40
;;;4839   	LCD_DataWrite(temp);
0026f2  f85deb04          POP      {lr}
0026f6  f7ffbffe          B.W      LCD_DataWrite
;;;4840   }
;;;4841   
                          ENDP

                  Key_Scan_Freg PROC
;;;4842   
;;;4843   void Key_Scan_Freg(unsigned char setx)
0026fa  b500              PUSH     {lr}
;;;4844   {
0026fc  4602              MOV      r2,r0
;;;4845   /*KF2-0: Key-Scan Frequency */ 
;;;4846     unsigned char temp;
;;;4847     LCD_CmdWrite(0xFB);
0026fe  20fb              MOVS     r0,#0xfb
002700  f7fffffe          BL       LCD_CmdWrite
;;;4848     temp = LCD_DataRead();
002704  f7fffffe          BL       LCD_DataRead
;;;4849     temp &= 0xf0;
002708  f00001f0          AND      r1,r0,#0xf0
;;;4850     temp|= (setx&0x07);
00270c  f0020007          AND      r0,r2,#7
002710  4308              ORRS     r0,r0,r1
;;;4851     LCD_DataWrite(temp);  
002712  f85deb04          POP      {lr}
002716  f7ffbffe          B.W      LCD_DataWrite
;;;4852   }
;;;4853   
                          ENDP

                  Key_Scan_Wakeup_Function_Enable PROC
;;;4856   
;;;4857   void Key_Scan_Wakeup_Function_Enable(void)
00271a  b500              PUSH     {lr}
;;;4858   {
;;;4859   /*
;;;4860   Key-Scan Controller Register 2
;;;4861   [bit7]	
;;;4862   Key-Scan Wakeup Function Enable Bit
;;;4863   0: Key-Scan Wakeup function is disabled.
;;;4864   1: Key-Scan Wakeup function is enabled.
;;;4865   */
;;;4866   	unsigned char temp;
;;;4867   	LCD_CmdWrite(0xFC);
00271c  20fc              MOVS     r0,#0xfc
00271e  f7fffffe          BL       LCD_CmdWrite
;;;4868   	temp=LCD_DataRead();
002722  f7fffffe          BL       LCD_DataRead
002726  b2c0              UXTB     r0,r0
;;;4869   	temp |= cSetb7;
002728  f0400080          ORR      r0,r0,#0x80
;;;4870   	LCD_DataWrite(temp);
00272c  f85deb04          POP      {lr}
002730  f7ffbffe          B.W      LCD_DataWrite
;;;4871   }
;;;4872   
                          ENDP

                  Long_Key_Timing_Adjustment PROC
;;;4873   
;;;4874   void Long_Key_Timing_Adjustment(unsigned char setx)
002734  b500              PUSH     {lr}
;;;4875   {
;;;4876    /*Long Key Timing Adjustment*/ 
;;;4877   	unsigned char temp,temp1;
;;;4878   	temp = setx & 0x1c;
002736  f000021c          AND      r2,r0,#0x1c
;;;4879   	LCD_CmdWrite(0xFC);
00273a  20fc              MOVS     r0,#0xfc
00273c  f7fffffe          BL       LCD_CmdWrite
;;;4880   	temp1 = LCD_DataRead();
002740  f7fffffe          BL       LCD_DataRead
002744  b2c0              UXTB     r0,r0
;;;4881   	temp1|=temp;
002746  4310              ORRS     r0,r0,r2
;;;4882   	LCD_DataWrite(temp1);   
002748  f85deb04          POP      {lr}
00274c  f7ffbffe          B.W      LCD_DataWrite
;;;4883    
;;;4884   }
;;;4885   
                          ENDP

                  Numbers_of_Key_Hit PROC
;;;4886   unsigned char Numbers_of_Key_Hit(void)
002750  b500              PUSH     {lr}
;;;4887   {  
;;;4888      unsigned char temp;
;;;4889      LCD_CmdWrite(0xFC);
002752  20fc              MOVS     r0,#0xfc
002754  f7fffffe          BL       LCD_CmdWrite
;;;4890      temp = LCD_DataRead();   //read key touch number
002758  f7fffffe          BL       LCD_DataRead
;;;4891      temp = temp & 0x03;	 //¤U
00275c  f0000003          AND      r0,r0,#3
;;;4892      return temp;
;;;4893   }
002760  bd00              POP      {pc}
;;;4894   
                          ENDP

                  Read_Key_Strobe_Data_0 PROC
;;;4895   //[FDh][FEh][FFh]=========================================================================
;;;4896   unsigned char Read_Key_Strobe_Data_0(void)
002762  b500              PUSH     {lr}
;;;4897   {
;;;4898   /*
;;;4899   Key Strobe Data 0
;;;4900   The corresponding key code 0 that is pressed.
;;;4901   */
;;;4902   	unsigned char temp;
;;;4903   	LCD_CmdWrite(0xFD);
002764  20fd              MOVS     r0,#0xfd
002766  f7fffffe          BL       LCD_CmdWrite
;;;4904   	temp=LCD_DataRead();
00276a  f7fffffe          BL       LCD_DataRead
00276e  b2c0              UXTB     r0,r0
;;;4905   	return temp;
;;;4906   }
002770  bd00              POP      {pc}
;;;4907   unsigned char Read_Key_Strobe_Data_1(void)
                          ENDP

                  Read_Key_Strobe_Data_1 PROC
002772  b500              PUSH     {lr}
;;;4908   {
;;;4909   /*
;;;4910   Key Strobe Data 1
;;;4911   The corresponding key code 1 that is pressed.
;;;4912   */
;;;4913   	unsigned char temp;
;;;4914   	LCD_CmdWrite(0xFE);
002774  20fe              MOVS     r0,#0xfe
002776  f7fffffe          BL       LCD_CmdWrite
;;;4915   	temp=LCD_DataRead();
00277a  f7fffffe          BL       LCD_DataRead
00277e  b2c0              UXTB     r0,r0
;;;4916   	return temp;
;;;4917   }
002780  bd00              POP      {pc}
;;;4918   unsigned char Read_Key_Strobe_Data_2(void)
                          ENDP

                  Read_Key_Strobe_Data_2 PROC
002782  b500              PUSH     {lr}
;;;4919   {
;;;4920   /*
;;;4921   Key Strobe Data 2
;;;4922   The corresponding key code 2 that is pressed.
;;;4923   */
;;;4924   	unsigned char temp;
;;;4925   	LCD_CmdWrite(0xFF);
002784  20ff              MOVS     r0,#0xff
002786  f7fffffe          BL       LCD_CmdWrite
;;;4926   	temp=LCD_DataRead();
00278a  f7fffffe          BL       LCD_DataRead
00278e  b2c0              UXTB     r0,r0
;;;4927   	return temp;
;;;4928   }
002790  bd00              POP      {pc}
;;;4929   
                          ENDP

                  Show_String PROC
;;;4931   
;;;4932   void Show_String(char *str)
002792  b500              PUSH     {lr}
;;;4933   {   
002794  4602              MOV      r2,r0
;;;4934     	Text_Mode();	   //ÎÄ±ľÄŁĘ˝
002796  f7fffffe          BL       Text_Mode
;;;4935     	LCD_CmdWrite(0x04);
00279a  2004              MOVS     r0,#4
00279c  f7fffffe          BL       LCD_CmdWrite
;;;4936     	while(*str != '\0')
0027a0  e004              B        |L1.10156|
                  |L1.10146|
;;;4937     	{
;;;4938      		LCD_DataWrite(*str);
0027a2  f7fffffe          BL       LCD_DataWrite
;;;4939      		Check_Mem_WR_FIFO_not_Full();
0027a6  f7fffffe          BL       Check_Mem_WR_FIFO_not_Full
;;;4940     		++str;   
0027aa  1c52              ADDS     r2,r2,#1
                  |L1.10156|
0027ac  7810              LDRB     r0,[r2,#0]            ;4936
0027ae  2800              CMP      r0,#0                 ;4936
0027b0  d1f7              BNE      |L1.10146|
;;;4941     	}
;;;4942      	Check_2D_Busy();
0027b2  f7fffffe          BL       Check_2D_Busy
;;;4943   
;;;4944      	Graphic_Mode(); //back to graphic mode;ÍĽĐÎÄŁĘ˝
0027b6  f85deb04          POP      {lr}
0027ba  f7ffbffe          B.W      Graphic_Mode
;;;4945   }
;;;4946   
                          ENDP

                  Show_picture PROC
;;;4947   
;;;4948   void Show_picture(unsigned long numbers,const unsigned short *datap)
0027be  b510              PUSH     {r4,lr}
;;;4949   {   
0027c0  4604              MOV      r4,r0
0027c2  460b              MOV      r3,r1
;;;4950   	unsigned long i;
;;;4951   
;;;4952   	LCD_CmdWrite(0x04);  
0027c4  2004              MOVS     r0,#4
0027c6  f7fffffe          BL       LCD_CmdWrite
;;;4953   	for(i=0;i<numbers;i++)
0027ca  2200              MOVS     r2,#0
0027cc  e006              B        |L1.10204|
                  |L1.10190|
;;;4954   	{
;;;4955   		LCD_DataWrite(datap[i]);
0027ce  f8130012          LDRB     r0,[r3,r2,LSL #1]
0027d2  f7fffffe          BL       LCD_DataWrite
;;;4956   		Check_Mem_WR_FIFO_not_Full();
0027d6  f7fffffe          BL       Check_Mem_WR_FIFO_not_Full
0027da  1c52              ADDS     r2,r2,#1              ;4953
                  |L1.10204|
0027dc  42a2              CMP      r2,r4                 ;4953
0027de  d3f6              BCC      |L1.10190|
;;;4957   	}
;;;4958   
;;;4959   }
0027e0  bd10              POP      {r4,pc}
;;;4960   
                          ENDP

                  LT768_DrawLine PROC
;;;4961   //------------------------------------- Ďß¶Î -----------------------------------------
;;;4962   void LT768_DrawLine
0027e2  b5f0              PUSH     {r4-r7,lr}
;;;4963   (
;;;4964    unsigned short X1        // X1×ř±ę
;;;4965   ,unsigned short Y1        // Y1×ř±ę
;;;4966   ,unsigned short X2        // X2×ř±ę
;;;4967   ,unsigned short Y2        // Y2×ř±ę
;;;4968   ,unsigned long  LineColor // Ďß¶ÎŃŐÉ«
;;;4969   )
;;;4970   {
0027e4  4606              MOV      r6,r0
0027e6  9805              LDR      r0,[sp,#0x14]
0027e8  460f              MOV      r7,r1
0027ea  4614              MOV      r4,r2
0027ec  461d              MOV      r5,r3
;;;4971   	Foreground_color_65k(LineColor);
0027ee  b280              UXTH     r0,r0
0027f0  f7fffffe          BL       Foreground_color_65k
;;;4972   	Line_Start_XY(X1,Y1);
0027f4  4639              MOV      r1,r7
0027f6  4630              MOV      r0,r6
0027f8  f7fffffe          BL       Line_Start_XY
;;;4973   	Line_End_XY(X2,Y2);
0027fc  4629              MOV      r1,r5
0027fe  4620              MOV      r0,r4
002800  f7fffffe          BL       Line_End_XY
;;;4974   	Start_Line();
002804  f7fffffe          BL       Start_Line
;;;4975   	Check_2D_Busy();
002808  e8bd40f0          POP      {r4-r7,lr}
00280c  f7ffbffe          B.W      Check_2D_Busy
;;;4976   }
;;;4977   
                          ENDP

                  LT768_DrawLine_Width PROC
;;;4979   
;;;4980   void LT768_DrawLine_Width
002810  e92d47f8          PUSH     {r3-r10,lr}
;;;4981   (
;;;4982    unsigned short X1        // X1×ř±ę
;;;4983   ,unsigned short Y1        // Y1×ř±ę
;;;4984   ,unsigned short X2        // X2×ř±ę
;;;4985   ,unsigned short Y2        // Y2×ř±ę
;;;4986   ,unsigned long  LineColor // Ďß¶ÎŃŐÉ«
;;;4987   ,unsigned short Width     // Ďß¶Îżí¶Č
;;;4988   )
;;;4989   {
002814  4681              MOV      r9,r0
002816  e9dd8509          LDRD     r8,r5,[sp,#0x24]
00281a  460e              MOV      r6,r1
00281c  4692              MOV      r10,r2
00281e  461f              MOV      r7,r3
;;;4990   	unsigned short  i = 0;
002820  2400              MOVS     r4,#0
002822  e00b              B        |L1.10300|
                  |L1.10276|
;;;4991   	while(Width--)
;;;4992   	{
;;;4993   		LT768_DrawLine(X1,Y1+i,X2,Y2+i,LineColor);
002824  1938              ADDS     r0,r7,r4
002826  b283              UXTH     r3,r0
002828  1930              ADDS     r0,r6,r4
00282a  b281              UXTH     r1,r0
00282c  4652              MOV      r2,r10
00282e  4648              MOV      r0,r9
002830  f8cd8000          STR      r8,[sp,#0]
002834  f7fffffe          BL       LT768_DrawLine
;;;4994   		i++;
002838  1c64              ADDS     r4,r4,#1
00283a  b2a4              UXTH     r4,r4
                  |L1.10300|
00283c  1e6d              SUBS     r5,r5,#1              ;4991
00283e  b2ad              UXTH     r5,r5                 ;4991
002840  d2f0              BCS      |L1.10276|
;;;4995   	}
;;;4996   }
002842  e8bd87f8          POP      {r3-r10,pc}
;;;4997   
                          ENDP

                  LT768_DrawCircle PROC
;;;4999   //------------------------------------- Ô˛ -----------------------------------------
;;;5000   void LT768_DrawCircle
002846  b570              PUSH     {r4-r6,lr}
;;;5001   (
;;;5002    unsigned short XCenter           // Ô˛ĐÄXÎ»ÖĂ
;;;5003   ,unsigned short YCenter           // Ô˛ĐÄYÎ»ÖĂ
;;;5004   ,unsigned short R                 // °ëľ¶
;;;5005   ,unsigned long CircleColor        // »­ĎßŃŐÉ«
;;;5006   )
;;;5007   {
002848  4605              MOV      r5,r0
00284a  460e              MOV      r6,r1
00284c  4614              MOV      r4,r2
;;;5008   	Foreground_color_65k(CircleColor);
00284e  b298              UXTH     r0,r3
002850  f7fffffe          BL       Foreground_color_65k
;;;5009   	Circle_Center_XY(XCenter,YCenter);
002854  4631              MOV      r1,r6
002856  4628              MOV      r0,r5
002858  f7fffffe          BL       Circle_Center_XY
;;;5010     Circle_Radius_R(R);
00285c  4620              MOV      r0,r4
00285e  f7fffffe          BL       Circle_Radius_R
;;;5011     Start_Circle_or_Ellipse();
002862  f7fffffe          BL       Start_Circle_or_Ellipse
;;;5012     Check_2D_Busy(); 
002866  e8bd4070          POP      {r4-r6,lr}
00286a  f7ffbffe          B.W      Check_2D_Busy
;;;5013   }
;;;5014   
                          ENDP

                  LT768_DrawCircle_Fill PROC
;;;5016   
;;;5017   void LT768_DrawCircle_Fill
00286e  b570              PUSH     {r4-r6,lr}
;;;5018   (
;;;5019    unsigned short XCenter           // Ô˛ĐÄXÎ»ÖĂ
;;;5020   ,unsigned short YCenter           // Ô˛ĐÄYÎ»ÖĂ
;;;5021   ,unsigned short R                 // °ëľ¶
;;;5022   ,unsigned long ForegroundColor    // ±łľ°ŃŐÉ«
;;;5023   )
;;;5024   {
002870  4605              MOV      r5,r0
002872  460e              MOV      r6,r1
002874  4614              MOV      r4,r2
;;;5025   	Foreground_color_65k(ForegroundColor);
002876  b298              UXTH     r0,r3
002878  f7fffffe          BL       Foreground_color_65k
;;;5026   	Circle_Center_XY(XCenter,YCenter);
00287c  4631              MOV      r1,r6
00287e  4628              MOV      r0,r5
002880  f7fffffe          BL       Circle_Center_XY
;;;5027     Circle_Radius_R(R);
002884  4620              MOV      r0,r4
002886  f7fffffe          BL       Circle_Radius_R
;;;5028     Start_Circle_or_Ellipse_Fill();
00288a  f7fffffe          BL       Start_Circle_or_Ellipse_Fill
;;;5029     Check_2D_Busy(); 
00288e  e8bd4070          POP      {r4-r6,lr}
002892  f7ffbffe          B.W      Check_2D_Busy
;;;5030   }
;;;5031   
                          ENDP

                  LT768_DrawCircle_Width PROC
;;;5033   
;;;5034   void LT768_DrawCircle_Width
002896  b5f0              PUSH     {r4-r7,lr}
;;;5035   (
;;;5036    unsigned short XCenter          // Ô˛ĐÄXÎ»ÖĂ
;;;5037   ,unsigned short YCenter          // Ô˛ĐÄYÎ»ÖĂ
;;;5038   ,unsigned short R                // °ëľ¶
;;;5039   ,unsigned long CircleColor       // »­ĎßŃŐÉ«
;;;5040   ,unsigned long ForegroundColor   // ±łľ°ŃŐÉ«
;;;5041   ,unsigned short Width            // Ďßżí
;;;5042   )
;;;5043   {
002898  4614              MOV      r4,r2
00289a  e9dd7205          LDRD     r7,r2,[sp,#0x14]
00289e  4605              MOV      r5,r0
0028a0  460e              MOV      r6,r1
;;;5044   	LT768_DrawCircle_Fill(XCenter,YCenter,R+Width,CircleColor);
0028a2  18a0              ADDS     r0,r4,r2
0028a4  b282              UXTH     r2,r0
0028a6  4631              MOV      r1,r6
0028a8  4628              MOV      r0,r5
0028aa  f7fffffe          BL       LT768_DrawCircle_Fill
;;;5045   	LT768_DrawCircle_Fill(XCenter,YCenter,R,ForegroundColor);
0028ae  463b              MOV      r3,r7
0028b0  4622              MOV      r2,r4
0028b2  4631              MOV      r1,r6
0028b4  4628              MOV      r0,r5
0028b6  e8bd40f0          POP      {r4-r7,lr}
0028ba  e7fe              B        LT768_DrawCircle_Fill
;;;5046   }
;;;5047   
                          ENDP

                  LT768_DrawEllipse PROC
;;;5049   //------------------------------------- ÍÖÔ˛ -----------------------------------------
;;;5050   void LT768_DrawEllipse
0028bc  b5f0              PUSH     {r4-r7,lr}
;;;5051   (
;;;5052    unsigned short XCenter          // ÍÖÔ˛ĐÄXÎ»ÖĂ
;;;5053   ,unsigned short YCenter          // ÍÖÔ˛ĐÄYÎ»ÖĂ
;;;5054   ,unsigned short X_R              // żí°ëľ¶
;;;5055   ,unsigned short Y_R              // ł¤°ëľ¶
;;;5056   ,unsigned long EllipseColor      // »­ĎßŃŐÉ«
;;;5057   )
;;;5058   {
0028be  4606              MOV      r6,r0
0028c0  9805              LDR      r0,[sp,#0x14]
0028c2  460f              MOV      r7,r1
0028c4  4614              MOV      r4,r2
0028c6  461d              MOV      r5,r3
;;;5059   	Foreground_color_65k(EllipseColor);
0028c8  b280              UXTH     r0,r0
0028ca  f7fffffe          BL       Foreground_color_65k
;;;5060   	Ellipse_Center_XY(XCenter,YCenter);
0028ce  4639              MOV      r1,r7
0028d0  4630              MOV      r0,r6
0028d2  f7fffffe          BL       Ellipse_Center_XY
;;;5061     Ellipse_Radius_RxRy(X_R,Y_R);
0028d6  4629              MOV      r1,r5
0028d8  4620              MOV      r0,r4
0028da  f7fffffe          BL       Ellipse_Radius_RxRy
;;;5062     Start_Circle_or_Ellipse();
0028de  f7fffffe          BL       Start_Circle_or_Ellipse
;;;5063     Check_2D_Busy(); 
0028e2  e8bd40f0          POP      {r4-r7,lr}
0028e6  f7ffbffe          B.W      Check_2D_Busy
;;;5064   }
;;;5065   
                          ENDP

                  LT768_DrawEllipse_Fill PROC
;;;5066   void LT768_DrawEllipse_Fill
0028ea  b5f0              PUSH     {r4-r7,lr}
;;;5067   (
;;;5068    unsigned short XCenter           // ÍÖÔ˛ĐÄXÎ»ÖĂ
;;;5069   ,unsigned short YCenter           // ÍÖÔ˛ĐÄYÎ»ÖĂ
;;;5070   ,unsigned short X_R               // żí°ëľ¶
;;;5071   ,unsigned short Y_R               // ł¤°ëľ¶
;;;5072   ,unsigned long ForegroundColor    // ±łľ°ŃŐÉ«
;;;5073   )
;;;5074   {
0028ec  4606              MOV      r6,r0
0028ee  9805              LDR      r0,[sp,#0x14]
0028f0  460f              MOV      r7,r1
0028f2  4614              MOV      r4,r2
0028f4  461d              MOV      r5,r3
;;;5075   	Foreground_color_65k(ForegroundColor);
0028f6  b280              UXTH     r0,r0
0028f8  f7fffffe          BL       Foreground_color_65k
;;;5076   	Ellipse_Center_XY(XCenter,YCenter);
0028fc  4639              MOV      r1,r7
0028fe  4630              MOV      r0,r6
002900  f7fffffe          BL       Ellipse_Center_XY
;;;5077     Ellipse_Radius_RxRy(X_R,Y_R);
002904  4629              MOV      r1,r5
002906  4620              MOV      r0,r4
002908  f7fffffe          BL       Ellipse_Radius_RxRy
;;;5078     Start_Circle_or_Ellipse_Fill();
00290c  f7fffffe          BL       Start_Circle_or_Ellipse_Fill
;;;5079     Check_2D_Busy(); 
002910  e8bd40f0          POP      {r4-r7,lr}
002914  f7ffbffe          B.W      Check_2D_Busy
;;;5080   }
;;;5081   
                          ENDP

                  LT768_DrawEllipse_Width PROC
;;;5082   
;;;5083   void LT768_DrawEllipse_Width
002918  e92d41f8          PUSH     {r3-r8,lr}
;;;5084   (
;;;5085    unsigned short XCenter           // ÍÖÔ˛ĐÄXÎ»ÖĂ
;;;5086   ,unsigned short YCenter           // ÍÖÔ˛ĐÄYÎ»ÖĂ
;;;5087   ,unsigned short X_R               // żí°ëľ¶
;;;5088   ,unsigned short Y_R               // ł¤°ëľ¶
;;;5089   ,unsigned long EllipseColor       // »­ĎßŃŐÉ«
;;;5090   ,unsigned long ForegroundColor    // ±łľ°ŃŐÉ«
;;;5091   ,unsigned short Width             // Ďßżí
;;;5092   )
;;;5093   {
00291c  4614              MOV      r4,r2
00291e  4606              MOV      r6,r0
002920  e9dd8208          LDRD     r8,r2,[sp,#0x20]
002924  9807              LDR      r0,[sp,#0x1c]
002926  460f              MOV      r7,r1
002928  461d              MOV      r5,r3
;;;5094   	LT768_DrawEllipse_Fill(XCenter,YCenter,X_R+Width,Y_R+Width,EllipseColor);
00292a  9000              STR      r0,[sp,#0]
00292c  18a8              ADDS     r0,r5,r2
00292e  b283              UXTH     r3,r0
002930  18a0              ADDS     r0,r4,r2
002932  b282              UXTH     r2,r0
002934  4639              MOV      r1,r7
002936  4630              MOV      r0,r6
002938  f7fffffe          BL       LT768_DrawEllipse_Fill
;;;5095   	LT768_DrawEllipse_Fill(XCenter,YCenter,X_R,Y_R,ForegroundColor);
00293c  462b              MOV      r3,r5
00293e  4622              MOV      r2,r4
002940  4639              MOV      r1,r7
002942  4630              MOV      r0,r6
002944  f8cd8000          STR      r8,[sp,#0]
002948  f7fffffe          BL       LT768_DrawEllipse_Fill
;;;5096   }
00294c  e8bd81f8          POP      {r3-r8,pc}
;;;5097   
                          ENDP

                  LT768_DrawSquare PROC
;;;5100   //------------------------------------- ľŘĐÎ -----------------------------------------
;;;5101   void LT768_DrawSquare
002950  b5f0              PUSH     {r4-r7,lr}
;;;5102   (
;;;5103    unsigned short X1                // X1Î»ÖĂ
;;;5104   ,unsigned short Y1                // Y1Î»ÖĂ
;;;5105   ,unsigned short X2                // X2Î»ÖĂ
;;;5106   ,unsigned short Y2                // Y2Î»ÖĂ
;;;5107   ,unsigned long SquareColor        // »­ĎßŃŐÉ«
;;;5108   )
;;;5109   {
002952  4606              MOV      r6,r0
002954  9805              LDR      r0,[sp,#0x14]
002956  460f              MOV      r7,r1
002958  4614              MOV      r4,r2
00295a  461d              MOV      r5,r3
;;;5110   	Foreground_color_65k(SquareColor);
00295c  b280              UXTH     r0,r0
00295e  f7fffffe          BL       Foreground_color_65k
;;;5111   	Square_Start_XY(X1,Y1);
002962  4639              MOV      r1,r7
002964  4630              MOV      r0,r6
002966  f7fffffe          BL       Square_Start_XY
;;;5112     Square_End_XY(X2,Y2);
00296a  4629              MOV      r1,r5
00296c  4620              MOV      r0,r4
00296e  f7fffffe          BL       Square_End_XY
;;;5113     Start_Square();
002972  f7fffffe          BL       Start_Square
;;;5114     Check_2D_Busy(); 
002976  e8bd40f0          POP      {r4-r7,lr}
00297a  f7ffbffe          B.W      Check_2D_Busy
;;;5115   }
;;;5116   
                          ENDP

                  LT768_DrawSquare_Fill PROC
;;;5117   
;;;5118   void LT768_DrawSquare_Fill
00297e  b5f0              PUSH     {r4-r7,lr}
;;;5119   (
;;;5120    unsigned short X1                // X1Î»ÖĂ
;;;5121   ,unsigned short Y1                // Y1Î»ÖĂ
;;;5122   ,unsigned short X2                // X2Î»ÖĂ
;;;5123   ,unsigned short Y2                // Y2Î»ÖĂ
;;;5124   ,unsigned long ForegroundColor    // ±łľ°ŃŐÉ«
;;;5125   )
;;;5126   {
002980  4606              MOV      r6,r0
002982  9805              LDR      r0,[sp,#0x14]
002984  460f              MOV      r7,r1
002986  4614              MOV      r4,r2
002988  461d              MOV      r5,r3
;;;5127   	Foreground_color_65k(ForegroundColor);
00298a  b280              UXTH     r0,r0
00298c  f7fffffe          BL       Foreground_color_65k
;;;5128     Square_Start_XY(X1,Y1);
002990  4639              MOV      r1,r7
002992  4630              MOV      r0,r6
002994  f7fffffe          BL       Square_Start_XY
;;;5129     Square_End_XY(X2,Y2);
002998  4629              MOV      r1,r5
00299a  4620              MOV      r0,r4
00299c  f7fffffe          BL       Square_End_XY
;;;5130     Start_Square_Fill();
0029a0  f7fffffe          BL       Start_Square_Fill
;;;5131     Check_2D_Busy();
0029a4  e8bd40f0          POP      {r4-r7,lr}
0029a8  f7ffbffe          B.W      Check_2D_Busy
;;;5132   }
;;;5133   
                          ENDP

                  LT768_DrawSquare_Width PROC
;;;5134   
;;;5135   void LT768_DrawSquare_Width
0029ac  e92d43f8          PUSH     {r3-r9,lr}
;;;5136   (
;;;5137    unsigned short X1                // X1Î»ÖĂ
;;;5138   ,unsigned short Y1                // Y1Î»ÖĂ
;;;5139   ,unsigned short X2                // X2Î»ÖĂ
;;;5140   ,unsigned short Y2                // Y2Î»ÖĂ
;;;5141   ,unsigned long SquareColor        // »­ĎßŃŐÉ«
;;;5142   ,unsigned long ForegroundColor    // ±łľ°ŃŐÉ«
;;;5143   ,unsigned short Width             // Ďßżí
;;;5144   )
;;;5145   {
0029b0  4605              MOV      r5,r0
0029b2  e9dd9409          LDRD     r9,r4,[sp,#0x24]
0029b6  9808              LDR      r0,[sp,#0x20]
0029b8  460e              MOV      r6,r1
0029ba  4617              MOV      r7,r2
0029bc  4698              MOV      r8,r3
;;;5146   	LT768_DrawSquare_Fill(X1-Width,Y1-Width,X2+Width,Y2+Width,SquareColor);
0029be  9000              STR      r0,[sp,#0]
0029c0  eb080004          ADD      r0,r8,r4
0029c4  b283              UXTH     r3,r0
0029c6  1938              ADDS     r0,r7,r4
0029c8  b282              UXTH     r2,r0
0029ca  1b30              SUBS     r0,r6,r4
0029cc  b281              UXTH     r1,r0
0029ce  1b28              SUBS     r0,r5,r4
0029d0  b280              UXTH     r0,r0
0029d2  f7fffffe          BL       LT768_DrawSquare_Fill
;;;5147   	LT768_DrawSquare_Fill(X1,Y1,X2,Y2,ForegroundColor);
0029d6  4643              MOV      r3,r8
0029d8  463a              MOV      r2,r7
0029da  4631              MOV      r1,r6
0029dc  4628              MOV      r0,r5
0029de  f8cd9000          STR      r9,[sp,#0]
0029e2  f7fffffe          BL       LT768_DrawSquare_Fill
;;;5148   }
0029e6  e8bd83f8          POP      {r3-r9,pc}
;;;5149   
                          ENDP

                  LT768_DrawCircleSquare PROC
;;;5151   //------------------------------------- Ô˛˝ÇľŘĐÎ -----------------------------------------
;;;5152   void LT768_DrawCircleSquare
0029ea  e92d43f0          PUSH     {r4-r9,lr}
;;;5153   (
;;;5154    unsigned short X1                // X1Î»ÖĂ
;;;5155   ,unsigned short Y1                // Y1Î»ÖĂ
;;;5156   ,unsigned short X2                // X2Î»ÖĂ
;;;5157   ,unsigned short Y2                // Y2Î»ÖĂ
;;;5158   ,unsigned short X_R               // żí°ëľ¶
;;;5159   ,unsigned short Y_R               // ł¤°ëľ¶
;;;5160   ,unsigned long CircleSquareColor  // »­ĎßŃŐÉ«
;;;5161   )
;;;5162   {
0029ee  4606              MOV      r6,r0
0029f0  e9dd8907          LDRD     r8,r9,[sp,#0x1c]
0029f4  9809              LDR      r0,[sp,#0x24]
0029f6  460f              MOV      r7,r1
0029f8  4614              MOV      r4,r2
0029fa  461d              MOV      r5,r3
;;;5163   	Foreground_color_65k(CircleSquareColor);
0029fc  b280              UXTH     r0,r0
0029fe  f7fffffe          BL       Foreground_color_65k
;;;5164     Square_Start_XY(X1,Y1);
002a02  4639              MOV      r1,r7
002a04  4630              MOV      r0,r6
002a06  f7fffffe          BL       Square_Start_XY
;;;5165     Square_End_XY(X2,Y2); 
002a0a  4629              MOV      r1,r5
002a0c  4620              MOV      r0,r4
002a0e  f7fffffe          BL       Square_End_XY
;;;5166     Circle_Square_Radius_RxRy(X_R,Y_R);
002a12  4649              MOV      r1,r9
002a14  4640              MOV      r0,r8
002a16  f7fffffe          BL       Circle_Square_Radius_RxRy
;;;5167     Start_Circle_Square();
002a1a  f7fffffe          BL       Start_Circle_Square
;;;5168     Check_2D_Busy();
002a1e  e8bd43f0          POP      {r4-r9,lr}
002a22  f7ffbffe          B.W      Check_2D_Busy
;;;5169   }
;;;5170   
                          ENDP

                  LT768_DrawCircleSquare_Fill PROC
;;;5172   
;;;5173   void LT768_DrawCircleSquare_Fill
002a26  e92d43f0          PUSH     {r4-r9,lr}
;;;5174   (
;;;5175    unsigned short X1                // X1Î»ÖĂ
;;;5176   ,unsigned short Y1                // Y1Î»ÖĂ
;;;5177   ,unsigned short X2                // X2Î»ÖĂ
;;;5178   ,unsigned short Y2                // Y2Î»ÖĂ
;;;5179   ,unsigned short X_R               // żí°ëľ¶
;;;5180   ,unsigned short Y_R               // ł¤°ëľ¶
;;;5181   ,unsigned long ForegroundColor  // »­ĎßŃŐÉ«
;;;5182   )
;;;5183   {
002a2a  4606              MOV      r6,r0
002a2c  e9dd8907          LDRD     r8,r9,[sp,#0x1c]
002a30  9809              LDR      r0,[sp,#0x24]
002a32  460f              MOV      r7,r1
002a34  4614              MOV      r4,r2
002a36  461d              MOV      r5,r3
;;;5184   	Foreground_color_65k(ForegroundColor);
002a38  b280              UXTH     r0,r0
002a3a  f7fffffe          BL       Foreground_color_65k
;;;5185     Square_Start_XY(X1,Y1);
002a3e  4639              MOV      r1,r7
002a40  4630              MOV      r0,r6
002a42  f7fffffe          BL       Square_Start_XY
;;;5186     Square_End_XY(X2,Y2); 
002a46  4629              MOV      r1,r5
002a48  4620              MOV      r0,r4
002a4a  f7fffffe          BL       Square_End_XY
;;;5187     Circle_Square_Radius_RxRy(X_R,Y_R);
002a4e  4649              MOV      r1,r9
002a50  4640              MOV      r0,r8
002a52  f7fffffe          BL       Circle_Square_Radius_RxRy
;;;5188     Start_Circle_Square_Fill();
002a56  f7fffffe          BL       Start_Circle_Square_Fill
;;;5189     Check_2D_Busy(); 
002a5a  e8bd43f0          POP      {r4-r9,lr}
002a5e  f7ffbffe          B.W      Check_2D_Busy
;;;5190   }
;;;5191   
                          ENDP

                  LT768_DrawCircleSquare_Width PROC
;;;5193   
;;;5194   void LT768_DrawCircleSquare_Width
002a62  e92d4ffe          PUSH     {r1-r11,lr}
;;;5195   (
;;;5196    unsigned short X1                // X1Î»ÖĂ
;;;5197   ,unsigned short Y1                // Y1Î»ÖĂ
;;;5198   ,unsigned short X2                // X2Î»ÖĂ
;;;5199   ,unsigned short Y2                // Y2Î»ÖĂ
;;;5200   ,unsigned short X_R               // żí°ëľ¶
;;;5201   ,unsigned short Y_R               // ł¤°ëľ¶
;;;5202   ,unsigned long CircleSquareColor  // »­ĎßŃŐÉ«
;;;5203   ,unsigned long ForegroundColor    // »­ĎßŃŐÉ«
;;;5204   ,unsigned short Width             // żí¶Č
;;;5205   )
;;;5206   {
002a66  4605              MOV      r5,r0
002a68  e9ddb40f          LDRD     r11,r4,[sp,#0x3c]
002a6c  e9dd9a0c          LDRD     r9,r10,[sp,#0x30]
002a70  980e              LDR      r0,[sp,#0x38]
002a72  460e              MOV      r6,r1
002a74  4617              MOV      r7,r2
002a76  4698              MOV      r8,r3
;;;5207   	LT768_DrawCircleSquare_Fill(X1-Width,Y1-Width,X2+Width,Y2+Width,X_R,Y_R,CircleSquareColor);
002a78  9002              STR      r0,[sp,#8]
002a7a  eb080004          ADD      r0,r8,r4
002a7e  b283              UXTH     r3,r0
002a80  1938              ADDS     r0,r7,r4
002a82  b282              UXTH     r2,r0
002a84  1b30              SUBS     r0,r6,r4
002a86  e9cd9a00          STRD     r9,r10,[sp,#0]
002a8a  b281              UXTH     r1,r0
002a8c  1b28              SUBS     r0,r5,r4
002a8e  b280              UXTH     r0,r0
002a90  f7fffffe          BL       LT768_DrawCircleSquare_Fill
;;;5208   	LT768_DrawCircleSquare_Fill(X1,Y1,X2,Y2,X_R,Y_R,ForegroundColor);
002a94  e88d0e00          STM      sp,{r9-r11}
002a98  4643              MOV      r3,r8
002a9a  463a              MOV      r2,r7
002a9c  4631              MOV      r1,r6
002a9e  4628              MOV      r0,r5
002aa0  f7fffffe          BL       LT768_DrawCircleSquare_Fill
;;;5209   }
002aa4  e8bd8ffe          POP      {r1-r11,pc}
;;;5210   
                          ENDP

                  LT768_DrawTriangle PROC
;;;5212   //------------------------------------- Čý˝ÇĐÎ -----------------------------------------
;;;5213   void LT768_DrawTriangle
002aa8  e92d43f0          PUSH     {r4-r9,lr}
;;;5214   (
;;;5215    unsigned short X1              // X1Î»ÖĂ
;;;5216   ,unsigned short Y1              // Y1Î»ÖĂ
;;;5217   ,unsigned short X2              // X2Î»ÖĂ
;;;5218   ,unsigned short Y2              // Y2Î»ÖĂ
;;;5219   ,unsigned short X3              // X3Î»ÖĂ
;;;5220   ,unsigned short Y3              // Y3Î»ÖĂ
;;;5221   ,unsigned long TriangleColor    // »­ĎßŃŐÉ«
;;;5222   )
;;;5223   {
002aac  4606              MOV      r6,r0
002aae  e9dd8907          LDRD     r8,r9,[sp,#0x1c]
002ab2  9809              LDR      r0,[sp,#0x24]
002ab4  460f              MOV      r7,r1
002ab6  4614              MOV      r4,r2
002ab8  461d              MOV      r5,r3
;;;5224   	Foreground_color_65k(TriangleColor);
002aba  b280              UXTH     r0,r0
002abc  f7fffffe          BL       Foreground_color_65k
;;;5225   	Triangle_Point1_XY(X1,Y1);
002ac0  4639              MOV      r1,r7
002ac2  4630              MOV      r0,r6
002ac4  f7fffffe          BL       Triangle_Point1_XY
;;;5226     Triangle_Point2_XY(X2,Y2);
002ac8  4629              MOV      r1,r5
002aca  4620              MOV      r0,r4
002acc  f7fffffe          BL       Triangle_Point2_XY
;;;5227     Triangle_Point3_XY(X3,Y3);
002ad0  4649              MOV      r1,r9
002ad2  4640              MOV      r0,r8
002ad4  f7fffffe          BL       Triangle_Point3_XY
;;;5228     Start_Triangle();
002ad8  f7fffffe          BL       Start_Triangle
;;;5229     Check_2D_Busy(); 
002adc  e8bd43f0          POP      {r4-r9,lr}
002ae0  f7ffbffe          B.W      Check_2D_Busy
;;;5230   }
;;;5231   
                          ENDP

                  LT768_DrawTriangle_Fill PROC
;;;5233   
;;;5234   void LT768_DrawTriangle_Fill
002ae4  e92d43f0          PUSH     {r4-r9,lr}
;;;5235   (
;;;5236    unsigned short X1              // X1Î»ÖĂ
;;;5237   ,unsigned short Y1              // Y1Î»ÖĂ
;;;5238   ,unsigned short X2              // X2Î»ÖĂ
;;;5239   ,unsigned short Y2              // Y2Î»ÖĂ
;;;5240   ,unsigned short X3              // X3Î»ÖĂ
;;;5241   ,unsigned short Y3              // Y3Î»ÖĂ
;;;5242   ,unsigned long ForegroundColor  // »­ĎßŃŐÉ«
;;;5243   )
;;;5244   {
002ae8  4606              MOV      r6,r0
002aea  e9dd8907          LDRD     r8,r9,[sp,#0x1c]
002aee  9809              LDR      r0,[sp,#0x24]
002af0  460f              MOV      r7,r1
002af2  4614              MOV      r4,r2
002af4  461d              MOV      r5,r3
;;;5245   	Foreground_color_65k(ForegroundColor);
002af6  b280              UXTH     r0,r0
002af8  f7fffffe          BL       Foreground_color_65k
;;;5246   	Triangle_Point1_XY(X1,Y1);
002afc  4639              MOV      r1,r7
002afe  4630              MOV      r0,r6
002b00  f7fffffe          BL       Triangle_Point1_XY
;;;5247     Triangle_Point2_XY(X2,Y2);
002b04  4629              MOV      r1,r5
002b06  4620              MOV      r0,r4
002b08  f7fffffe          BL       Triangle_Point2_XY
;;;5248     Triangle_Point3_XY(X3,Y3);
002b0c  4649              MOV      r1,r9
002b0e  4640              MOV      r0,r8
002b10  f7fffffe          BL       Triangle_Point3_XY
;;;5249     Start_Triangle_Fill();
002b14  f7fffffe          BL       Start_Triangle_Fill
;;;5250     Check_2D_Busy();
002b18  e8bd43f0          POP      {r4-r9,lr}
002b1c  f7ffbffe          B.W      Check_2D_Busy
;;;5251   }
;;;5252   
                          ENDP

                  LT768_DrawLeftUpCurve PROC
;;;5255   //------------------------------------- ÇúĎß -----------------------------------------
;;;5256   void LT768_DrawLeftUpCurve
002b20  b5f0              PUSH     {r4-r7,lr}
;;;5257   ( 
;;;5258    unsigned short XCenter           // ÇúĐÄXÎ»ÖĂ
;;;5259   ,unsigned short YCenter           // ÇúĐÄYÎ»ÖĂ
;;;5260   ,unsigned short X_R               // żí°ëľ¶
;;;5261   ,unsigned short Y_R               // ł¤°ëľ¶
;;;5262   ,unsigned long CurveColor         // »­ĎßŃŐÉ«
;;;5263   )
;;;5264   {
002b22  4606              MOV      r6,r0
002b24  9805              LDR      r0,[sp,#0x14]
002b26  460f              MOV      r7,r1
002b28  4614              MOV      r4,r2
002b2a  461d              MOV      r5,r3
;;;5265   	Foreground_color_65k(CurveColor);
002b2c  b280              UXTH     r0,r0
002b2e  f7fffffe          BL       Foreground_color_65k
;;;5266     Ellipse_Center_XY(XCenter,YCenter);
002b32  4639              MOV      r1,r7
002b34  4630              MOV      r0,r6
002b36  f7fffffe          BL       Ellipse_Center_XY
;;;5267     Ellipse_Radius_RxRy(X_R,Y_R);
002b3a  4629              MOV      r1,r5
002b3c  4620              MOV      r0,r4
002b3e  f7fffffe          BL       Ellipse_Radius_RxRy
;;;5268     Start_Left_Up_Curve();
002b42  f7fffffe          BL       Start_Left_Up_Curve
;;;5269     Check_2D_Busy(); 
002b46  e8bd40f0          POP      {r4-r7,lr}
002b4a  f7ffbffe          B.W      Check_2D_Busy
;;;5270   }
;;;5271   
                          ENDP

                  LT768_DrawLeftDownCurve PROC
;;;5272   
;;;5273   void LT768_DrawLeftDownCurve
002b4e  b5f0              PUSH     {r4-r7,lr}
;;;5274   (
;;;5275    unsigned short XCenter           // ÇúĐÄXÎ»ÖĂ
;;;5276   ,unsigned short YCenter           // ÇúĐÄYÎ»ÖĂ
;;;5277   ,unsigned short X_R               // żí°ëľ¶
;;;5278   ,unsigned short Y_R               // ł¤°ëľ¶
;;;5279   ,unsigned long CurveColor         // »­ĎßŃŐÉ«
;;;5280   )
;;;5281   {
002b50  4606              MOV      r6,r0
002b52  9805              LDR      r0,[sp,#0x14]
002b54  460f              MOV      r7,r1
002b56  4614              MOV      r4,r2
002b58  461d              MOV      r5,r3
;;;5282   	Foreground_color_65k(CurveColor);
002b5a  b280              UXTH     r0,r0
002b5c  f7fffffe          BL       Foreground_color_65k
;;;5283     Ellipse_Center_XY(XCenter,YCenter);
002b60  4639              MOV      r1,r7
002b62  4630              MOV      r0,r6
002b64  f7fffffe          BL       Ellipse_Center_XY
;;;5284     Ellipse_Radius_RxRy(X_R,Y_R);
002b68  4629              MOV      r1,r5
002b6a  4620              MOV      r0,r4
002b6c  f7fffffe          BL       Ellipse_Radius_RxRy
;;;5285     Start_Left_Down_Curve();
002b70  f7fffffe          BL       Start_Left_Down_Curve
;;;5286     Check_2D_Busy(); 
002b74  e8bd40f0          POP      {r4-r7,lr}
002b78  f7ffbffe          B.W      Check_2D_Busy
;;;5287   }
;;;5288   
                          ENDP

                  LT768_DrawRightUpCurve PROC
;;;5289   
;;;5290   void LT768_DrawRightUpCurve
002b7c  b5f0              PUSH     {r4-r7,lr}
;;;5291   (
;;;5292    unsigned short XCenter           // ÇúĐÄXÎ»ÖĂ
;;;5293   ,unsigned short YCenter           // ÇúĐÄYÎ»ÖĂ
;;;5294   ,unsigned short X_R               // żí°ëľ¶
;;;5295   ,unsigned short Y_R               // ł¤°ëľ¶
;;;5296   ,unsigned long CurveColor         // »­ĎßŃŐÉ«
;;;5297   )
;;;5298   {
002b7e  4606              MOV      r6,r0
002b80  9805              LDR      r0,[sp,#0x14]
002b82  460f              MOV      r7,r1
002b84  4614              MOV      r4,r2
002b86  461d              MOV      r5,r3
;;;5299   	Foreground_color_65k(CurveColor);
002b88  b280              UXTH     r0,r0
002b8a  f7fffffe          BL       Foreground_color_65k
;;;5300     Ellipse_Center_XY(XCenter,YCenter);
002b8e  4639              MOV      r1,r7
002b90  4630              MOV      r0,r6
002b92  f7fffffe          BL       Ellipse_Center_XY
;;;5301     Ellipse_Radius_RxRy(X_R,Y_R);
002b96  4629              MOV      r1,r5
002b98  4620              MOV      r0,r4
002b9a  f7fffffe          BL       Ellipse_Radius_RxRy
;;;5302     Start_Right_Up_Curve();
002b9e  f7fffffe          BL       Start_Right_Up_Curve
;;;5303     Check_2D_Busy(); 
002ba2  e8bd40f0          POP      {r4-r7,lr}
002ba6  f7ffbffe          B.W      Check_2D_Busy
;;;5304   }
;;;5305   
                          ENDP

                  LT768_DrawRightDownCurve PROC
;;;5306   
;;;5307   void LT768_DrawRightDownCurve
002baa  b5f0              PUSH     {r4-r7,lr}
;;;5308   (
;;;5309    unsigned short XCenter           // ÇúĐÄXÎ»ÖĂ
;;;5310   ,unsigned short YCenter           // ÇúĐÄYÎ»ÖĂ
;;;5311   ,unsigned short X_R               // żí°ëľ¶
;;;5312   ,unsigned short Y_R               // ł¤°ëľ¶
;;;5313   ,unsigned long CurveColor         // »­ĎßŃŐÉ«
;;;5314   )
;;;5315   {
002bac  4606              MOV      r6,r0
002bae  9805              LDR      r0,[sp,#0x14]
002bb0  460f              MOV      r7,r1
002bb2  4614              MOV      r4,r2
002bb4  461d              MOV      r5,r3
;;;5316   	Foreground_color_65k(CurveColor);
002bb6  b280              UXTH     r0,r0
002bb8  f7fffffe          BL       Foreground_color_65k
;;;5317     Ellipse_Center_XY(XCenter,YCenter);
002bbc  4639              MOV      r1,r7
002bbe  4630              MOV      r0,r6
002bc0  f7fffffe          BL       Ellipse_Center_XY
;;;5318     Ellipse_Radius_RxRy(X_R,Y_R);
002bc4  4629              MOV      r1,r5
002bc6  4620              MOV      r0,r4
002bc8  f7fffffe          BL       Ellipse_Radius_RxRy
;;;5319     Start_Right_Down_Curve();
002bcc  f7fffffe          BL       Start_Right_Down_Curve
;;;5320     Check_2D_Busy(); 
002bd0  e8bd40f0          POP      {r4-r7,lr}
002bd4  f7ffbffe          B.W      Check_2D_Busy
;;;5321   }
;;;5322   
                          ENDP

                  LT768_SelectDrawCurve PROC
;;;5323   
;;;5324   void LT768_SelectDrawCurve
002bd8  b538              PUSH     {r3-r5,lr}
;;;5325   (
;;;5326    unsigned short XCenter           // ÇúĐÄXÎ»ÖĂ
;;;5327   ,unsigned short YCenter           // ÇúĐÄYÎ»ÖĂ
;;;5328   ,unsigned short X_R               // żí°ëľ¶
;;;5329   ,unsigned short Y_R               // ł¤°ëľ¶
;;;5330   ,unsigned long CurveColor         // »­ĎßŃŐÉ«
;;;5331   ,unsigned short  Dir              // ·˝Ďň
;;;5332   )
;;;5333   {
002bda  e9dd5404          LDRD     r5,r4,[sp,#0x10]
;;;5334   	switch(Dir)
002bde  2c00              CMP      r4,#0
002be0  d009              BEQ      |L1.11254|
002be2  2c01              CMP      r4,#1
002be4  d00b              BEQ      |L1.11262|
002be6  2c02              CMP      r4,#2
002be8  d00d              BEQ      |L1.11270|
002bea  2c03              CMP      r4,#3
002bec  d102              BNE      |L1.11252|
;;;5335   	{
;;;5336   		case 0:LT768_DrawLeftDownCurve(XCenter,YCenter,X_R,Y_R,CurveColor);		break;
;;;5337   		case 1:LT768_DrawLeftUpCurve(XCenter,YCenter,X_R,Y_R,CurveColor);			break;
;;;5338   		case 2:LT768_DrawRightUpCurve(XCenter,YCenter,X_R,Y_R,CurveColor);		break;
;;;5339   		case 3:LT768_DrawRightDownCurve(XCenter,YCenter,X_R,Y_R,CurveColor);	break;
002bee  9500              STR      r5,[sp,#0]
002bf0  f7fffffe          BL       LT768_DrawRightDownCurve
                  |L1.11252|
;;;5340   		default:																															break;
;;;5341   	}
;;;5342   }
002bf4  bd38              POP      {r3-r5,pc}
                  |L1.11254|
002bf6  9500              STR      r5,[sp,#0]            ;5336
002bf8  f7fffffe          BL       LT768_DrawLeftDownCurve
002bfc  bd38              POP      {r3-r5,pc}
                  |L1.11262|
002bfe  9500              STR      r5,[sp,#0]            ;5337
002c00  f7fffffe          BL       LT768_DrawLeftUpCurve
002c04  bd38              POP      {r3-r5,pc}
                  |L1.11270|
002c06  9500              STR      r5,[sp,#0]            ;5338
002c08  f7fffffe          BL       LT768_DrawRightUpCurve
002c0c  bd38              POP      {r3-r5,pc}
;;;5343   
                          ENDP

                  LT768_DrawLeftUpCurve_Fill PROC
;;;5345   //------------------------------------- 1/4ĘµĐÄÍÖÔ˛ -----------------------------------------
;;;5346   void LT768_DrawLeftUpCurve_Fill
002c0e  b5f0              PUSH     {r4-r7,lr}
;;;5347   (
;;;5348    unsigned short XCenter           // ÇúĐÄXÎ»ÖĂ
;;;5349   ,unsigned short YCenter           // ÇúĐÄYÎ»ÖĂ
;;;5350   ,unsigned short X_R               // żí°ëľ¶
;;;5351   ,unsigned short Y_R               // ł¤°ëľ¶
;;;5352   ,unsigned long ForegroundColor    // ±łľ°ŃŐÉ«
;;;5353   )
;;;5354   {
002c10  4606              MOV      r6,r0
002c12  9805              LDR      r0,[sp,#0x14]
002c14  460f              MOV      r7,r1
002c16  4614              MOV      r4,r2
002c18  461d              MOV      r5,r3
;;;5355     Foreground_color_65k(ForegroundColor);
002c1a  b280              UXTH     r0,r0
002c1c  f7fffffe          BL       Foreground_color_65k
;;;5356     Ellipse_Center_XY(XCenter,YCenter);
002c20  4639              MOV      r1,r7
002c22  4630              MOV      r0,r6
002c24  f7fffffe          BL       Ellipse_Center_XY
;;;5357     Ellipse_Radius_RxRy(X_R,Y_R);
002c28  4629              MOV      r1,r5
002c2a  4620              MOV      r0,r4
002c2c  f7fffffe          BL       Ellipse_Radius_RxRy
;;;5358     Start_Left_Up_Curve_Fill();
002c30  f7fffffe          BL       Start_Left_Up_Curve_Fill
;;;5359     Check_2D_Busy(); 
002c34  e8bd40f0          POP      {r4-r7,lr}
002c38  f7ffbffe          B.W      Check_2D_Busy
;;;5360   }
;;;5361   
                          ENDP

                  LT768_DrawLeftDownCurve_Fill PROC
;;;5362   
;;;5363   void LT768_DrawLeftDownCurve_Fill
002c3c  b5f0              PUSH     {r4-r7,lr}
;;;5364   (
;;;5365    unsigned short XCenter           // ÇúĐÄXÎ»ÖĂ
;;;5366   ,unsigned short YCenter           // ÇúĐÄYÎ»ÖĂ
;;;5367   ,unsigned short X_R               // żí°ëľ¶
;;;5368   ,unsigned short Y_R               // ł¤°ëľ¶
;;;5369   ,unsigned long ForegroundColor    // ±łľ°ŃŐÉ«
;;;5370   )
;;;5371   {
002c3e  4606              MOV      r6,r0
002c40  9805              LDR      r0,[sp,#0x14]
002c42  460f              MOV      r7,r1
002c44  4614              MOV      r4,r2
002c46  461d              MOV      r5,r3
;;;5372     Foreground_color_65k(ForegroundColor);
002c48  b280              UXTH     r0,r0
002c4a  f7fffffe          BL       Foreground_color_65k
;;;5373     Ellipse_Center_XY(XCenter,YCenter);
002c4e  4639              MOV      r1,r7
002c50  4630              MOV      r0,r6
002c52  f7fffffe          BL       Ellipse_Center_XY
;;;5374     Ellipse_Radius_RxRy(X_R,Y_R);
002c56  4629              MOV      r1,r5
002c58  4620              MOV      r0,r4
002c5a  f7fffffe          BL       Ellipse_Radius_RxRy
;;;5375     Start_Left_Down_Curve_Fill();
002c5e  f7fffffe          BL       Start_Left_Down_Curve_Fill
;;;5376     Check_2D_Busy(); 
002c62  e8bd40f0          POP      {r4-r7,lr}
002c66  f7ffbffe          B.W      Check_2D_Busy
;;;5377   }
;;;5378   
                          ENDP

                  LT768_DrawRightUpCurve_Fill PROC
;;;5379   
;;;5380   void LT768_DrawRightUpCurve_Fill
002c6a  b5f0              PUSH     {r4-r7,lr}
;;;5381   (
;;;5382    unsigned short XCenter           // ÇúĐÄXÎ»ÖĂ
;;;5383   ,unsigned short YCenter           // ÇúĐÄYÎ»ÖĂ
;;;5384   ,unsigned short X_R               // żí°ëľ¶
;;;5385   ,unsigned short Y_R               // ł¤°ëľ¶
;;;5386   ,unsigned long ForegroundColor    // ±łľ°ŃŐÉ«
;;;5387   )
;;;5388   {
002c6c  4606              MOV      r6,r0
002c6e  9805              LDR      r0,[sp,#0x14]
002c70  460f              MOV      r7,r1
002c72  4614              MOV      r4,r2
002c74  461d              MOV      r5,r3
;;;5389     Foreground_color_65k(ForegroundColor);
002c76  b280              UXTH     r0,r0
002c78  f7fffffe          BL       Foreground_color_65k
;;;5390     Ellipse_Center_XY(XCenter,YCenter);
002c7c  4639              MOV      r1,r7
002c7e  4630              MOV      r0,r6
002c80  f7fffffe          BL       Ellipse_Center_XY
;;;5391     Ellipse_Radius_RxRy(X_R,Y_R);
002c84  4629              MOV      r1,r5
002c86  4620              MOV      r0,r4
002c88  f7fffffe          BL       Ellipse_Radius_RxRy
;;;5392     Start_Right_Up_Curve_Fill();
002c8c  f7fffffe          BL       Start_Right_Up_Curve_Fill
;;;5393     Check_2D_Busy(); 
002c90  e8bd40f0          POP      {r4-r7,lr}
002c94  f7ffbffe          B.W      Check_2D_Busy
;;;5394   }
;;;5395   
                          ENDP

                  LT768_DrawRightDownCurve_Fill PROC
;;;5396   
;;;5397   void LT768_DrawRightDownCurve_Fill
002c98  b5f0              PUSH     {r4-r7,lr}
;;;5398   (
;;;5399    unsigned short XCenter           // ÇúĐÄXÎ»ÖĂ
;;;5400   ,unsigned short YCenter           // ÇúĐÄYÎ»ÖĂ
;;;5401   ,unsigned short X_R               // żí°ëľ¶
;;;5402   ,unsigned short Y_R               // ł¤°ëľ¶
;;;5403   ,unsigned long ForegroundColor    // ±łľ°ŃŐÉ«
;;;5404   )
;;;5405   {
002c9a  4606              MOV      r6,r0
002c9c  9805              LDR      r0,[sp,#0x14]
002c9e  460f              MOV      r7,r1
002ca0  4614              MOV      r4,r2
002ca2  461d              MOV      r5,r3
;;;5406     Foreground_color_65k(ForegroundColor);
002ca4  b280              UXTH     r0,r0
002ca6  f7fffffe          BL       Foreground_color_65k
;;;5407     Ellipse_Center_XY(XCenter,YCenter);
002caa  4639              MOV      r1,r7
002cac  4630              MOV      r0,r6
002cae  f7fffffe          BL       Ellipse_Center_XY
;;;5408     Ellipse_Radius_RxRy(X_R,Y_R);
002cb2  4629              MOV      r1,r5
002cb4  4620              MOV      r0,r4
002cb6  f7fffffe          BL       Ellipse_Radius_RxRy
;;;5409     Start_Right_Down_Curve_Fill();
002cba  f7fffffe          BL       Start_Right_Down_Curve_Fill
;;;5410     Check_2D_Busy(); 
002cbe  e8bd40f0          POP      {r4-r7,lr}
002cc2  f7ffbffe          B.W      Check_2D_Busy
;;;5411   }
;;;5412   
                          ENDP

                  LT768_SelectDrawCurve_Fill PROC
;;;5413   
;;;5414   void LT768_SelectDrawCurve_Fill
002cc6  b538              PUSH     {r3-r5,lr}
;;;5415   (
;;;5416    unsigned short XCenter           // ÇúĐÄXÎ»ÖĂ
;;;5417   ,unsigned short YCenter           // ÇúĐÄYÎ»ÖĂ
;;;5418   ,unsigned short X_R               // żí°ëľ¶
;;;5419   ,unsigned short Y_R               // ł¤°ëľ¶
;;;5420   ,unsigned long CurveColor         // »­ĎßŃŐÉ«
;;;5421   ,unsigned short  Dir              // ·˝Ďň
;;;5422   )
;;;5423   {
002cc8  e9dd5404          LDRD     r5,r4,[sp,#0x10]
;;;5424   	switch(Dir)
002ccc  2c00              CMP      r4,#0
002cce  d009              BEQ      |L1.11492|
002cd0  2c01              CMP      r4,#1
002cd2  d00b              BEQ      |L1.11500|
002cd4  2c02              CMP      r4,#2
002cd6  d00d              BEQ      |L1.11508|
002cd8  2c03              CMP      r4,#3
002cda  d102              BNE      |L1.11490|
;;;5425   	{
;;;5426   		case 0:LT768_DrawLeftDownCurve_Fill(XCenter,YCenter,X_R,Y_R,CurveColor);		break;
;;;5427   		case 1:LT768_DrawLeftUpCurve_Fill(XCenter,YCenter,X_R,Y_R,CurveColor);			break;
;;;5428   		case 2:LT768_DrawRightUpCurve_Fill(XCenter,YCenter,X_R,Y_R,CurveColor);			break;
;;;5429   		case 3:LT768_DrawRightDownCurve_Fill(XCenter,YCenter,X_R,Y_R,CurveColor);		break;
002cdc  9500              STR      r5,[sp,#0]
002cde  f7fffffe          BL       LT768_DrawRightDownCurve_Fill
                  |L1.11490|
;;;5430   		default:																																		break;
;;;5431   	}
;;;5432   }
002ce2  bd38              POP      {r3-r5,pc}
                  |L1.11492|
002ce4  9500              STR      r5,[sp,#0]            ;5426
002ce6  f7fffffe          BL       LT768_DrawLeftDownCurve_Fill
002cea  bd38              POP      {r3-r5,pc}
                  |L1.11500|
002cec  9500              STR      r5,[sp,#0]            ;5427
002cee  f7fffffe          BL       LT768_DrawLeftUpCurve_Fill
002cf2  bd38              POP      {r3-r5,pc}
                  |L1.11508|
002cf4  9500              STR      r5,[sp,#0]            ;5428
002cf6  f7fffffe          BL       LT768_DrawRightUpCurve_Fill
002cfa  bd38              POP      {r3-r5,pc}
;;;5433   
                          ENDP

                  LT768_DrawQuadrilateral PROC
;;;5437   
;;;5438   void LT768_DrawQuadrilateral
002cfc  e92d4ff0          PUSH     {r4-r11,lr}
;;;5439   (
;;;5440    unsigned short X1              // X1Î»ÖĂ
;;;5441   ,unsigned short Y1              // Y1Î»ÖĂ
;;;5442   ,unsigned short X2              // X2Î»ÖĂ
;;;5443   ,unsigned short Y2              // Y2Î»ÖĂ
;;;5444   ,unsigned short X3              // X3Î»ÖĂ
;;;5445   ,unsigned short Y3              // Y3Î»ÖĂ
;;;5446   ,unsigned short X4              // X4Î»ÖĂ
;;;5447   ,unsigned short Y4              // Y4Î»ÖĂ
;;;5448   ,unsigned long ForegroundColor  // »­ĎßŃŐÉ«
;;;5449   )
;;;5450   {
002d00  4606              MOV      r6,r0
002d02  e9ddab0b          LDRD     r10,r11,[sp,#0x2c]
002d06  e9dd8909          LDRD     r8,r9,[sp,#0x24]
002d0a  980d              LDR      r0,[sp,#0x34]
002d0c  460f              MOV      r7,r1
002d0e  4614              MOV      r4,r2
002d10  461d              MOV      r5,r3
;;;5451   	Foreground_color_65k(ForegroundColor);
002d12  b280              UXTH     r0,r0
002d14  f7fffffe          BL       Foreground_color_65k
;;;5452   	Triangle_Point1_XY(X1,Y1);
002d18  4639              MOV      r1,r7
002d1a  4630              MOV      r0,r6
002d1c  f7fffffe          BL       Triangle_Point1_XY
;;;5453     Triangle_Point2_XY(X2,Y2);
002d20  4629              MOV      r1,r5
002d22  4620              MOV      r0,r4
002d24  f7fffffe          BL       Triangle_Point2_XY
;;;5454     Triangle_Point3_XY(X3,Y3);
002d28  4649              MOV      r1,r9
002d2a  4640              MOV      r0,r8
002d2c  f7fffffe          BL       Triangle_Point3_XY
;;;5455   	Ellipse_Radius_RxRy(X4,Y4);
002d30  4659              MOV      r1,r11
002d32  4650              MOV      r0,r10
002d34  f7fffffe          BL       Ellipse_Radius_RxRy
;;;5456   	
;;;5457   	LCD_CmdWrite(0x67);
002d38  2067              MOVS     r0,#0x67
002d3a  f7fffffe          BL       LCD_CmdWrite
;;;5458   	LCD_DataWrite(0x8d);
002d3e  208d              MOVS     r0,#0x8d
002d40  f7fffffe          BL       LCD_DataWrite
;;;5459   	Check_Busy_Draw();
002d44  f7fffffe          BL       Check_Busy_Draw
;;;5460   	
;;;5461   	Check_2D_Busy(); 
002d48  e8bd4ff0          POP      {r4-r11,lr}
002d4c  f7ffbffe          B.W      Check_2D_Busy
;;;5462   }
;;;5463   
                          ENDP

                  LT768_DrawQuadrilateral_Fill PROC
;;;5464   
;;;5465   void LT768_DrawQuadrilateral_Fill
002d50  e92d4ff0          PUSH     {r4-r11,lr}
;;;5466   (
;;;5467    unsigned short X1              // X1Î»ÖĂ
;;;5468   ,unsigned short Y1              // Y1Î»ÖĂ
;;;5469   ,unsigned short X2              // X2Î»ÖĂ
;;;5470   ,unsigned short Y2              // Y2Î»ÖĂ
;;;5471   ,unsigned short X3              // X3Î»ÖĂ
;;;5472   ,unsigned short Y3              // Y3Î»ÖĂ
;;;5473   ,unsigned short X4              // X4Î»ÖĂ
;;;5474   ,unsigned short Y4              // Y4Î»ÖĂ
;;;5475   ,unsigned long ForegroundColor  // »­ĎßŃŐÉ«
;;;5476   )
;;;5477   {
002d54  4606              MOV      r6,r0
002d56  e9ddab0b          LDRD     r10,r11,[sp,#0x2c]
002d5a  e9dd8909          LDRD     r8,r9,[sp,#0x24]
002d5e  980d              LDR      r0,[sp,#0x34]
002d60  460f              MOV      r7,r1
002d62  4614              MOV      r4,r2
002d64  461d              MOV      r5,r3
;;;5478   	Foreground_color_65k(ForegroundColor);
002d66  b280              UXTH     r0,r0
002d68  f7fffffe          BL       Foreground_color_65k
;;;5479   	Triangle_Point1_XY(X1,Y1);
002d6c  4639              MOV      r1,r7
002d6e  4630              MOV      r0,r6
002d70  f7fffffe          BL       Triangle_Point1_XY
;;;5480     Triangle_Point2_XY(X2,Y2);
002d74  4629              MOV      r1,r5
002d76  4620              MOV      r0,r4
002d78  f7fffffe          BL       Triangle_Point2_XY
;;;5481     Triangle_Point3_XY(X3,Y3);
002d7c  4649              MOV      r1,r9
002d7e  4640              MOV      r0,r8
002d80  f7fffffe          BL       Triangle_Point3_XY
;;;5482   	Ellipse_Radius_RxRy(X4,Y4);
002d84  4659              MOV      r1,r11
002d86  4650              MOV      r0,r10
002d88  f7fffffe          BL       Ellipse_Radius_RxRy
;;;5483   	
;;;5484   	LCD_CmdWrite(0x67);
002d8c  2067              MOVS     r0,#0x67
002d8e  f7fffffe          BL       LCD_CmdWrite
;;;5485   	LCD_DataWrite(0xa7);
002d92  20a7              MOVS     r0,#0xa7
002d94  f7fffffe          BL       LCD_DataWrite
;;;5486   	Check_Busy_Draw();
002d98  f7fffffe          BL       Check_Busy_Draw
;;;5487   	
;;;5488   	Check_2D_Busy(); 
002d9c  e8bd4ff0          POP      {r4-r11,lr}
002da0  f7ffbffe          B.W      Check_2D_Busy
;;;5489   }
;;;5490   
                          ENDP

                  LT768_DrawPentagon PROC
;;;5494   
;;;5495   void LT768_DrawPentagon
002da4  e92d4ff0          PUSH     {r4-r11,lr}
;;;5496   (
;;;5497    unsigned short X1              // X1Î»ÖĂ
;;;5498   ,unsigned short Y1              // Y1Î»ÖĂ
;;;5499   ,unsigned short X2              // X2Î»ÖĂ
;;;5500   ,unsigned short Y2              // Y2Î»ÖĂ
;;;5501   ,unsigned short X3              // X3Î»ÖĂ
;;;5502   ,unsigned short Y3              // Y3Î»ÖĂ
;;;5503   ,unsigned short X4              // X4Î»ÖĂ
;;;5504   ,unsigned short Y4              // Y4Î»ÖĂ
;;;5505   ,unsigned short X5              // X5Î»ÖĂ
;;;5506   ,unsigned short Y5              // Y5Î»ÖĂ
;;;5507   ,unsigned long ForegroundColor  // »­ĎßŃŐÉ«
;;;5508   )
;;;5509   {
002da8  4606              MOV      r6,r0
002daa  e9ddab0b          LDRD     r10,r11,[sp,#0x2c]
002dae  e9dd8909          LDRD     r8,r9,[sp,#0x24]
002db2  980f              LDR      r0,[sp,#0x3c]
002db4  460f              MOV      r7,r1
002db6  4614              MOV      r4,r2
002db8  461d              MOV      r5,r3
;;;5510   	Foreground_color_65k(ForegroundColor);
002dba  b280              UXTH     r0,r0
002dbc  f7fffffe          BL       Foreground_color_65k
;;;5511   	Triangle_Point1_XY(X1,Y1);
002dc0  4639              MOV      r1,r7
002dc2  4630              MOV      r0,r6
002dc4  f7fffffe          BL       Triangle_Point1_XY
;;;5512     Triangle_Point2_XY(X2,Y2);
002dc8  4629              MOV      r1,r5
002dca  4620              MOV      r0,r4
002dcc  f7fffffe          BL       Triangle_Point2_XY
;;;5513     Triangle_Point3_XY(X3,Y3);
002dd0  4649              MOV      r1,r9
002dd2  4640              MOV      r0,r8
002dd4  f7fffffe          BL       Triangle_Point3_XY
;;;5514   	Ellipse_Radius_RxRy(X4,Y4);
002dd8  4659              MOV      r1,r11
002dda  4650              MOV      r0,r10
002ddc  f7fffffe          BL       Ellipse_Radius_RxRy
;;;5515   	Ellipse_Center_XY(X5,Y5);
002de0  e9dd010d          LDRD     r0,r1,[sp,#0x34]
002de4  f7fffffe          BL       Ellipse_Center_XY
;;;5516   	
;;;5517   	LCD_CmdWrite(0x67);
002de8  2067              MOVS     r0,#0x67
002dea  f7fffffe          BL       LCD_CmdWrite
;;;5518   	LCD_DataWrite(0x8F);
002dee  208f              MOVS     r0,#0x8f
002df0  f7fffffe          BL       LCD_DataWrite
;;;5519   	Check_Busy_Draw();
002df4  f7fffffe          BL       Check_Busy_Draw
;;;5520   	
;;;5521   	Check_2D_Busy(); 
002df8  e8bd4ff0          POP      {r4-r11,lr}
002dfc  f7ffbffe          B.W      Check_2D_Busy
;;;5522   }
;;;5523   
                          ENDP

                  LT768_DrawPentagon_Fill PROC
;;;5524   
;;;5525   void LT768_DrawPentagon_Fill
002e00  e92d4ff0          PUSH     {r4-r11,lr}
;;;5526   (
;;;5527    unsigned short X1              // X1Î»ÖĂ
;;;5528   ,unsigned short Y1              // Y1Î»ÖĂ
;;;5529   ,unsigned short X2              // X2Î»ÖĂ
;;;5530   ,unsigned short Y2              // Y2Î»ÖĂ
;;;5531   ,unsigned short X3              // X3Î»ÖĂ
;;;5532   ,unsigned short Y3              // Y3Î»ÖĂ
;;;5533   ,unsigned short X4              // X4Î»ÖĂ
;;;5534   ,unsigned short Y4              // Y4Î»ÖĂ
;;;5535   ,unsigned short X5              // X5Î»ÖĂ
;;;5536   ,unsigned short Y5              // Y5Î»ÖĂ
;;;5537   ,unsigned long ForegroundColor  // »­ĎßŃŐÉ«
;;;5538   )
;;;5539   {
002e04  4606              MOV      r6,r0
002e06  e9ddab0b          LDRD     r10,r11,[sp,#0x2c]
002e0a  e9dd8909          LDRD     r8,r9,[sp,#0x24]
002e0e  980f              LDR      r0,[sp,#0x3c]
002e10  460f              MOV      r7,r1
002e12  4614              MOV      r4,r2
002e14  461d              MOV      r5,r3
;;;5540   	Foreground_color_65k(ForegroundColor);
002e16  b280              UXTH     r0,r0
002e18  f7fffffe          BL       Foreground_color_65k
;;;5541   	Triangle_Point1_XY(X1,Y1);
002e1c  4639              MOV      r1,r7
002e1e  4630              MOV      r0,r6
002e20  f7fffffe          BL       Triangle_Point1_XY
;;;5542     Triangle_Point2_XY(X2,Y2);
002e24  4629              MOV      r1,r5
002e26  4620              MOV      r0,r4
002e28  f7fffffe          BL       Triangle_Point2_XY
;;;5543     Triangle_Point3_XY(X3,Y3);
002e2c  4649              MOV      r1,r9
002e2e  4640              MOV      r0,r8
002e30  f7fffffe          BL       Triangle_Point3_XY
;;;5544   	Ellipse_Radius_RxRy(X4,Y4);
002e34  4659              MOV      r1,r11
002e36  4650              MOV      r0,r10
002e38  f7fffffe          BL       Ellipse_Radius_RxRy
;;;5545   	Ellipse_Center_XY(X5,Y5);
002e3c  e9dd010d          LDRD     r0,r1,[sp,#0x34]
002e40  f7fffffe          BL       Ellipse_Center_XY
;;;5546   	
;;;5547   	LCD_CmdWrite(0x67);
002e44  2067              MOVS     r0,#0x67
002e46  f7fffffe          BL       LCD_CmdWrite
;;;5548   	LCD_DataWrite(0xa9);
002e4a  20a9              MOVS     r0,#0xa9
002e4c  f7fffffe          BL       LCD_DataWrite
;;;5549   	Check_Busy_Draw();
002e50  f7fffffe          BL       Check_Busy_Draw
;;;5550   	
;;;5551   	Check_2D_Busy(); 
002e54  e8bd4ff0          POP      {r4-r11,lr}
002e58  f7ffbffe          B.W      Check_2D_Busy
;;;5552   }
;;;5553   
                          ENDP

                  LT768_DrawCylinder PROC
;;;5555   //------------------------------------- Ô˛Öů -----------------------------------------
;;;5556   unsigned char LT768_DrawCylinder
002e5c  e92d4fff          PUSH     {r0-r11,lr}
;;;5557   (
;;;5558    unsigned short XCenter           // ÍÖÔ˛ĐÄXÎ»ÖĂ
;;;5559   ,unsigned short YCenter           // ÍÖÔ˛ĐÄYÎ»ÖĂ
;;;5560   ,unsigned short X_R               // żí°ëľ¶
;;;5561   ,unsigned short Y_R               // ł¤°ëľ¶
;;;5562   ,unsigned short H                 // ¸ß¶Č
;;;5563   ,unsigned long CylinderColor      // »­ĎßŃŐÉ«
;;;5564   ,unsigned long ForegroundColor    // ±łľ°ŃŐÉ«
;;;5565   )
;;;5566   {
002e60  b081              SUB      sp,sp,#4
002e62  4607              MOV      r7,r0
002e64  e9dd590f          LDRD     r5,r9,[sp,#0x3c]
002e68  9c0e              LDR      r4,[sp,#0x38]
002e6a  460e              MOV      r6,r1
002e6c  4690              MOV      r8,r2
;;;5567   	if(YCenter < H)	return 1;
002e6e  42a6              CMP      r6,r4
002e70  d203              BCS      |L1.11898|
002e72  2001              MOVS     r0,#1
                  |L1.11892|
;;;5568   	
;;;5569   	//µ×ĂćÍÖÔ˛
;;;5570   	LT768_DrawEllipse_Fill(XCenter,YCenter,X_R,Y_R,ForegroundColor);
;;;5571   	LT768_DrawEllipse(XCenter,YCenter,X_R,Y_R,CylinderColor);
;;;5572   	
;;;5573   	//ÖĐĽäľŘĐÎ
;;;5574   	LT768_DrawSquare_Fill(XCenter-X_R,YCenter-H,XCenter+X_R,YCenter,ForegroundColor);
;;;5575   	
;;;5576   	//¶ĄĂćÍÖÔ˛
;;;5577   	LT768_DrawEllipse_Fill(XCenter,YCenter-H,X_R,Y_R,ForegroundColor);
;;;5578   	LT768_DrawEllipse(XCenter,YCenter-H,X_R,Y_R,CylinderColor);
;;;5579   	
;;;5580   	LT768_DrawLine(XCenter-X_R,YCenter,XCenter-X_R,YCenter-H,CylinderColor);
;;;5581   	LT768_DrawLine(XCenter+X_R,YCenter,XCenter+X_R,YCenter-H,CylinderColor);
;;;5582   	
;;;5583   	return 0;
;;;5584   }
002e74  b005              ADD      sp,sp,#0x14
                  |L1.11894|
002e76  e8bd8ff0          POP      {r4-r11,pc}
                  |L1.11898|
002e7a  f8cd9000          STR      r9,[sp,#0]            ;5570
002e7e  4642              MOV      r2,r8                 ;5570
002e80  4631              MOV      r1,r6                 ;5570
002e82  4638              MOV      r0,r7                 ;5570
002e84  9b04              LDR      r3,[sp,#0x10]         ;5570
002e86  f7fffffe          BL       LT768_DrawEllipse_Fill
002e8a  9500              STR      r5,[sp,#0]            ;5571
002e8c  4642              MOV      r2,r8                 ;5571
002e8e  4631              MOV      r1,r6                 ;5571
002e90  4638              MOV      r0,r7                 ;5571
002e92  9b04              LDR      r3,[sp,#0x10]         ;5571
002e94  f7fffffe          BL       LT768_DrawEllipse
002e98  eb070a08          ADD      r10,r7,r8             ;5574
002e9c  1b34              SUBS     r4,r6,r4              ;5574
002e9e  eba70b08          SUB      r11,r7,r8             ;5574
002ea2  fa1ff28a          UXTH     r2,r10                ;5574
002ea6  b2a1              UXTH     r1,r4                 ;5574
002ea8  fa1ff08b          UXTH     r0,r11                ;5574
002eac  4633              MOV      r3,r6                 ;5574
002eae  f8cd9000          STR      r9,[sp,#0]            ;5574
002eb2  f7fffffe          BL       LT768_DrawSquare_Fill
002eb6  b2a1              UXTH     r1,r4                 ;5577
002eb8  f8cd9000          STR      r9,[sp,#0]            ;5577
002ebc  4642              MOV      r2,r8                 ;5577
002ebe  4638              MOV      r0,r7                 ;5577
002ec0  9b04              LDR      r3,[sp,#0x10]         ;5577
002ec2  f7fffffe          BL       LT768_DrawEllipse_Fill
002ec6  b2a1              UXTH     r1,r4                 ;5578
002ec8  9500              STR      r5,[sp,#0]            ;5578
002eca  4642              MOV      r2,r8                 ;5578
002ecc  4638              MOV      r0,r7                 ;5578
002ece  9b04              LDR      r3,[sp,#0x10]         ;5578
002ed0  f7fffffe          BL       LT768_DrawEllipse
002ed4  b2a3              UXTH     r3,r4                 ;5580
002ed6  fa1ff28b          UXTH     r2,r11                ;5580
002eda  fa1ff08b          UXTH     r0,r11                ;5580
002ede  4631              MOV      r1,r6                 ;5580
002ee0  9500              STR      r5,[sp,#0]            ;5580
002ee2  f7fffffe          BL       LT768_DrawLine
002ee6  b2a3              UXTH     r3,r4                 ;5581
002ee8  fa1ff28a          UXTH     r2,r10                ;5581
002eec  fa1ff08a          UXTH     r0,r10                ;5581
002ef0  4631              MOV      r1,r6                 ;5581
002ef2  9500              STR      r5,[sp,#0]            ;5581
002ef4  f7fffffe          BL       LT768_DrawLine
002ef8  2000              MOVS     r0,#0                 ;5583
002efa  e7bb              B        |L1.11892|
;;;5585   
                          ENDP

                  LT768_DrawQuadrangular PROC
;;;5587   //------------------------------------- ËÄŔâÖů -----------------------------------------
;;;5588   void LT768_DrawQuadrangular
002efc  e92d4fff          PUSH     {r0-r11,lr}
;;;5589   (
;;;5590    unsigned short X1
;;;5591   ,unsigned short Y1
;;;5592   ,unsigned short X2
;;;5593   ,unsigned short Y2
;;;5594   ,unsigned short X3
;;;5595   ,unsigned short Y3
;;;5596   ,unsigned short X4
;;;5597   ,unsigned short Y4
;;;5598   ,unsigned short X5
;;;5599   ,unsigned short Y5
;;;5600   ,unsigned short X6
;;;5601   ,unsigned short Y6
;;;5602   ,unsigned long QuadrangularColor   // »­ĎßŃŐÉ«
;;;5603   ,unsigned long ForegroundColor     // ±łľ°ŃŐÉ«
;;;5604   )
;;;5605   {
002f00  b085              SUB      sp,sp,#0x14
002f02  ac12              ADD      r4,sp,#0x48
002f04  e8940cf0          LDM      r4,{r4-r7,r10,r11}
002f08  e9dd891a          LDRD     r8,r9,[sp,#0x68]
;;;5606   	LT768_DrawSquare_Fill(X1,Y1,X5,Y5,ForegroundColor);
002f0c  f8cd9000          STR      r9,[sp,#0]
002f10  e9dd0105          LDRD     r0,r1,[sp,#0x14]
002f14  465b              MOV      r3,r11
002f16  4652              MOV      r2,r10
002f18  f7fffffe          BL       LT768_DrawSquare_Fill
;;;5607   	LT768_DrawSquare(X1,Y1,X5,Y5,QuadrangularColor);
002f1c  f8cd8000          STR      r8,[sp,#0]
002f20  e9dd0105          LDRD     r0,r1,[sp,#0x14]
002f24  465b              MOV      r3,r11
002f26  4652              MOV      r2,r10
002f28  f7fffffe          BL       LT768_DrawSquare
;;;5608   	
;;;5609   	LT768_DrawQuadrilateral_Fill(X1,Y1,X2,Y2,X3,Y3,X4,Y4,ForegroundColor);
002f2c  e88d02f0          STM      sp,{r4-r7,r9}
002f30  a805              ADD      r0,sp,#0x14
002f32  c80f              LDM      r0,{r0-r3}
002f34  f7fffffe          BL       LT768_DrawQuadrilateral_Fill
;;;5610   	LT768_DrawQuadrilateral(X1,Y1,X2,Y2,X3,Y3,X4,Y4,QuadrangularColor);
002f38  e88d01f0          STM      sp,{r4-r8}
002f3c  a805              ADD      r0,sp,#0x14
002f3e  c80f              LDM      r0,{r0-r3}
002f40  f7fffffe          BL       LT768_DrawQuadrilateral
;;;5611   	
;;;5612   	LT768_DrawQuadrilateral_Fill(X3,Y3,X4,Y4,X5,Y5,X6,Y6,ForegroundColor);
002f44  e9dd1018          LDRD     r1,r0,[sp,#0x60]
002f48  e9cdab00          STRD     r10,r11,[sp,#0]
002f4c  e9cd0903          STRD     r0,r9,[sp,#0xc]
002f50  9102              STR      r1,[sp,#8]
002f52  463b              MOV      r3,r7
002f54  4632              MOV      r2,r6
002f56  4629              MOV      r1,r5
002f58  4620              MOV      r0,r4
002f5a  f7fffffe          BL       LT768_DrawQuadrilateral_Fill
;;;5613   	LT768_DrawQuadrilateral(X3,Y3,X4,Y4,X5,Y5,X6,Y6,QuadrangularColor);
002f5e  e9dd1018          LDRD     r1,r0,[sp,#0x60]
002f62  e9cdab00          STRD     r10,r11,[sp,#0]
002f66  e9cd0803          STRD     r0,r8,[sp,#0xc]
002f6a  9102              STR      r1,[sp,#8]
002f6c  463b              MOV      r3,r7
002f6e  4632              MOV      r2,r6
002f70  4629              MOV      r1,r5
002f72  4620              MOV      r0,r4
002f74  f7fffffe          BL       LT768_DrawQuadrilateral
;;;5614   }
002f78  b009              ADD      sp,sp,#0x24
002f7a  e77c              B        |L1.11894|
;;;5615   
                          ENDP

                  LT768_Color_Bar_ON PROC
;;;5621   
;;;5622   void LT768_Color_Bar_ON(void)
002f7c  f7ffbffe          B.W      Color_Bar_ON
;;;5623   {
;;;5624   	Color_Bar_ON();
;;;5625   }
;;;5626   
                          ENDP

                  LT768_Color_Bar_OFF PROC
;;;5627   void LT768_Color_Bar_OFF(void)
002f80  f7ffbffe          B.W      Color_Bar_OFF
;;;5628   {
;;;5629   	Color_Bar_OFF();
;;;5630   }
;;;5631   
                          ENDP

                  LT768_DMA_24bit_Linear PROC
;;;5640   
;;;5641   void LT768_DMA_24bit_Linear
002f84  b5f0              PUSH     {r4-r7,lr}
;;;5642   (
;;;5643    unsigned char SCS              // ŃˇÔńÍâąŇµÄSPI   : SCSŁş0       SCSŁş1
;;;5644   ,unsigned char Clk              // SPIĘ±ÖÓ·ÖĆµ˛ÎĘý : SPI Clock = System Clock /{(Clk+1)*2}
;;;5645   ,unsigned long flash_addr       // ŇŞ´Óflash¶ÁČˇĘýľÝµÄĆđĘĽµŘÖ·   
;;;5646   ,unsigned long memory_addr      // ĘýľÝŇŞ´«Ęäµ˝SDRAMµÄĆđĘĽµŘÖ·
;;;5647   ,unsigned long data_num         // ´«ĘäµÄĘýľÝÁż
;;;5648   )
;;;5649   {
002f86  4604              MOV      r4,r0
002f88  460d              MOV      r5,r1
002f8a  4616              MOV      r6,r2
002f8c  9f05              LDR      r7,[sp,#0x14]
;;;5650   	
;;;5651   	Enable_SFlash_SPI();									             // ĘąÄÜSPIą¦ÄÜ
002f8e  f7fffffe          BL       Enable_SFlash_SPI
;;;5652     if(SCS == 0)		Select_SFI_0();										 // ŃˇÔńÍâąŇµÄSPI0
002f92  b90c              CBNZ     r4,|L1.12184|
002f94  f7fffffe          BL       Select_SFI_0
                  |L1.12184|
;;;5653     if(SCS == 1)		Select_SFI_1();										 // ŃˇÔńÍâąŇµÄSPI1
002f98  2c01              CMP      r4,#1
002f9a  d101              BNE      |L1.12192|
002f9c  f7fffffe          BL       Select_SFI_1
                  |L1.12192|
;;;5654   	
;;;5655   	Memory_Linear_Mode();
002fa0  f7fffffe          BL       Memory_Linear_Mode
;;;5656   	Select_SFI_DMA_Mode();								             // ÉčÖĂSPIµÄDMAÄŁĘ˝
002fa4  f7fffffe          BL       Select_SFI_DMA_Mode
;;;5657   	
;;;5658   	SPI_Clock_Period(Clk);                             // SPIËŮÂĘ 
002fa8  4628              MOV      r0,r5
002faa  f7fffffe          BL       SPI_Clock_Period
;;;5659   	SFI_DMA_Destination_Start_Address(memory_addr);  	 // Ö¸¶¨µÄÄÚ´ćµÄżŞĘĽµŘÖ·
002fae  4618              MOV      r0,r3
002fb0  f7fffffe          BL       SFI_DMA_Destination_Start_Address
;;;5660   	SFI_DMA_Transfer_Number(data_num);                 // DMA´«ĘäµÄĘýÁż
002fb4  4638              MOV      r0,r7
002fb6  f7fffffe          BL       SFI_DMA_Transfer_Number
;;;5661   	SFI_DMA_Source_Start_Address(flash_addr);          // flashµŘÖ·
002fba  4630              MOV      r0,r6
002fbc  f7fffffe          BL       SFI_DMA_Source_Start_Address
;;;5662   	Check_Busy_SFI_DMA(); 
002fc0  f7fffffe          BL       Check_Busy_SFI_DMA
;;;5663   	Start_SFI_DMA();
002fc4  f7fffffe          BL       Start_SFI_DMA
;;;5664   	Check_Busy_SFI_DMA();
002fc8  f7fffffe          BL       Check_Busy_SFI_DMA
;;;5665   	Memory_XY_Mode();
002fcc  e8bd40f0          POP      {r4-r7,lr}
002fd0  f7ffbffe          B.W      Memory_XY_Mode
;;;5666   }
;;;5667   
                          ENDP

                  LT768_DMA_32bit_Linear PROC
;;;5669   
;;;5670   void LT768_DMA_32bit_Linear
002fd4  b5f0              PUSH     {r4-r7,lr}
;;;5671   (
;;;5672    unsigned char SCS              // ŃˇÔńÍâąŇµÄSPI   : SCSŁş0       SCSŁş1
;;;5673   ,unsigned char Clk              // SPIĘ±ÖÓ·ÖĆµ˛ÎĘý : SPI Clock = System Clock /{(Clk+1)*2}
;;;5674   ,unsigned long flash_addr       // ŇŞ´Óflash¶ÁČˇĘýľÝµÄĆđĘĽµŘÖ·   
;;;5675   ,unsigned long memory_addr      // ĘýľÝŇŞ´«Ęäµ˝SDRAMµÄĆđĘĽµŘÖ·
;;;5676   ,unsigned long data_num         // ´«ĘäµÄĘýľÝÁż
;;;5677   )
;;;5678   {
002fd6  4604              MOV      r4,r0
002fd8  460d              MOV      r5,r1
002fda  4616              MOV      r6,r2
002fdc  9f05              LDR      r7,[sp,#0x14]
;;;5679   	Enable_SFlash_SPI();									             // ĘąÄÜSPIą¦ÄÜ
002fde  f7fffffe          BL       Enable_SFlash_SPI
;;;5680     if(SCS == 0)		Select_SFI_0();								     // ŃˇÔńÍâąŇµÄSPI0
002fe2  b90c              CBNZ     r4,|L1.12264|
002fe4  f7fffffe          BL       Select_SFI_0
                  |L1.12264|
;;;5681     if(SCS == 1)		Select_SFI_1();										 // ŃˇÔńÍâąŇµÄSPI1
002fe8  2c01              CMP      r4,#1
002fea  d101              BNE      |L1.12272|
002fec  f7fffffe          BL       Select_SFI_1
                  |L1.12272|
;;;5682   	
;;;5683   	Memory_Linear_Mode();
002ff0  f7fffffe          BL       Memory_Linear_Mode
;;;5684   	Select_SFI_DMA_Mode();								            // ÉčÖĂSPIµÄDMAÄŁĘ˝
002ff4  f7fffffe          BL       Select_SFI_DMA_Mode
;;;5685   	Select_SFI_32bit_Address();
002ff8  f7fffffe          BL       Select_SFI_32bit_Address
;;;5686   	
;;;5687   	SPI_Clock_Period(Clk);                             // SPIËŮÂĘ 
002ffc  4628              MOV      r0,r5
002ffe  f7fffffe          BL       SPI_Clock_Period
;;;5688   	SFI_DMA_Destination_Start_Address(memory_addr);  	 // Ö¸¶¨µÄÄÚ´ćµÄżŞĘĽµŘÖ·
003002  4618              MOV      r0,r3
003004  f7fffffe          BL       SFI_DMA_Destination_Start_Address
;;;5689   	SFI_DMA_Transfer_Number(data_num);                 // DMA´«ĘäµÄĘýÁż
003008  4638              MOV      r0,r7
00300a  f7fffffe          BL       SFI_DMA_Transfer_Number
;;;5690   	SFI_DMA_Source_Start_Address(flash_addr);          // flashµŘÖ·
00300e  4630              MOV      r0,r6
003010  f7fffffe          BL       SFI_DMA_Source_Start_Address
;;;5691   	Check_Busy_SFI_DMA(); 
003014  f7fffffe          BL       Check_Busy_SFI_DMA
;;;5692   	Start_SFI_DMA();
003018  f7fffffe          BL       Start_SFI_DMA
;;;5693   	Check_Busy_SFI_DMA();
00301c  f7fffffe          BL       Check_Busy_SFI_DMA
;;;5694   	Memory_XY_Mode();
003020  e8bd40f0          POP      {r4-r7,lr}
003024  f7ffbffe          B.W      Memory_XY_Mode
;;;5695   }
;;;5696   
                          ENDP

                  LT768_DMA_24bit_Block PROC
;;;5698   
;;;5699   void LT768_DMA_24bit_Block
003028  e92d4ff0          PUSH     {r4-r11,lr}
;;;5700   (
;;;5701    unsigned char SCS         // ŃˇÔńÍâąŇµÄSPI   : SCSŁş0       SCSŁş1
;;;5702   ,unsigned char Clk         // SPIĘ±ÖÓ·ÖĆµ˛ÎĘý : SPI Clock = System Clock /{(Clk+1)*2}
;;;5703   ,unsigned short X1         // ´«Ęäµ˝ÄÚ´ćX1µÄÎ»ÖĂ
;;;5704   ,unsigned short Y1         // ´«Ęäµ˝ÄÚ´ćY1µÄÎ»ÖĂ
;;;5705   ,unsigned short X_W        // DMA´«ĘäĘýľÝµÄżí¶Č
;;;5706   ,unsigned short Y_H        // DMA´«ĘäĘýľÝµÄ¸ß¶Č
;;;5707   ,unsigned short P_W        // ÍĽĆ¬µÄżí¶Č
;;;5708   ,unsigned long Addr        // FlashµÄµŘÖ·
;;;5709   )
;;;5710   {  
00302c  4604              MOV      r4,r0
00302e  e9ddab0b          LDRD     r10,r11,[sp,#0x2c]
003032  e9dd8909          LDRD     r8,r9,[sp,#0x24]
003036  460d              MOV      r5,r1
003038  4616              MOV      r6,r2
00303a  461f              MOV      r7,r3
;;;5711   
;;;5712     Enable_SFlash_SPI();									          // ĘąÄÜSPIą¦ÄÜ
00303c  f7fffffe          BL       Enable_SFlash_SPI
;;;5713     if(SCS == 0)	Select_SFI_0();										// ŃˇÔńÍâąŇµÄSPI0
003040  b90c              CBNZ     r4,|L1.12358|
003042  f7fffffe          BL       Select_SFI_0
                  |L1.12358|
;;;5714     if(SCS == 1)	Select_SFI_1();									  // ŃˇÔńÍâąŇµÄSPI1
003046  2c01              CMP      r4,#1
003048  d101              BNE      |L1.12366|
00304a  f7fffffe          BL       Select_SFI_1
                  |L1.12366|
;;;5715    
;;;5716   										   
;;;5717     Select_SFI_DMA_Mode();								          // ÉčÖĂSPIµÄDMAÄŁĘ˝
00304e  f7fffffe          BL       Select_SFI_DMA_Mode
;;;5718     SPI_Clock_Period(Clk);                          // ÉčÖĂSPIµÄ·ÖĆµĎµĘý
003052  4628              MOV      r0,r5
003054  f7fffffe          BL       SPI_Clock_Period
;;;5719   
;;;5720     Goto_Pixel_XY(X1,Y1);									          // ÔÚÍĽĐÎÄŁĘ˝ÖĐÉčÖĂÄÚ´ćµÄÎ»ÖĂ
003058  4639              MOV      r1,r7
00305a  4630              MOV      r0,r6
00305c  f7fffffe          BL       Goto_Pixel_XY
;;;5721     SFI_DMA_Destination_Upper_Left_Corner(X1,Y1);		// DMA´«ĘäµÄÄżµÄµŘŁ¨ÄÚ´ćµÄÎ»ÖĂŁ©
003060  4639              MOV      r1,r7
003062  4630              MOV      r0,r6
003064  f7fffffe          BL       SFI_DMA_Destination_Upper_Left_Corner
;;;5722     SFI_DMA_Transfer_Width_Height(X_W,Y_H);				  // ÉčÖĂżéĘýľÝµÄżí¶ČşÍ¸ß¶Č
003068  4649              MOV      r1,r9
00306a  4640              MOV      r0,r8
00306c  f7fffffe          BL       SFI_DMA_Transfer_Width_Height
;;;5723     SFI_DMA_Source_Width(P_W);							        // ÉčÖĂÔ´ĘýľÝµÄżí¶Č
003070  4650              MOV      r0,r10
003072  f7fffffe          BL       SFI_DMA_Source_Width
;;;5724     SFI_DMA_Source_Start_Address(Addr); 					  // ÉčÖĂÔ´ĘýľÝÔÚFlashµÄµŘÖ·
003076  4658              MOV      r0,r11
003078  f7fffffe          BL       SFI_DMA_Source_Start_Address
;;;5725   
;;;5726     Start_SFI_DMA();									              // żŞĘĽDMA´«Ęä
00307c  f7fffffe          BL       Start_SFI_DMA
;;;5727     Check_Busy_SFI_DMA();								            // Ľě˛âDMAĘÇ·ń´«ĘäÍęłÉ
003080  e8bd4ff0          POP      {r4-r11,lr}
003084  f7ffbffe          B.W      Check_Busy_SFI_DMA
;;;5728   }
;;;5729   
                          ENDP

                  LT768_DMA_32bit_Block PROC
;;;5731   
;;;5732   void LT768_DMA_32bit_Block
003088  e92d4ff0          PUSH     {r4-r11,lr}
;;;5733   (
;;;5734    unsigned char SCS         // ŃˇÔńÍâąŇµÄSPI   : SCSŁş0       SCSŁş1
;;;5735   ,unsigned char Clk         // SPIĘ±ÖÓ·ÖĆµ˛ÎĘý : SPI Clock = System Clock /{(Clk+1)*2}
;;;5736   ,unsigned short X1         // ÄÚ´ćX1µÄÎ»ÖĂ
;;;5737   ,unsigned short Y1         // ÄÚ´ćY1µÄÎ»ÖĂ
;;;5738   ,unsigned short X_W        // DMA´«ĘäĘýľÝµÄżí¶Č
;;;5739   ,unsigned short Y_H        // DMA´«ĘäĘýľÝµÄ¸ß¶Č
;;;5740   ,unsigned short P_W        // ÍĽĆ¬µÄżí¶Č
;;;5741   ,unsigned long Addr        // FlashµÄµŘÖ·
;;;5742   )
;;;5743   {  
00308c  4604              MOV      r4,r0
00308e  e9ddab0b          LDRD     r10,r11,[sp,#0x2c]
003092  e9dd8909          LDRD     r8,r9,[sp,#0x24]
003096  460d              MOV      r5,r1
003098  4616              MOV      r6,r2
00309a  461f              MOV      r7,r3
;;;5744   
;;;5745     Enable_SFlash_SPI();									
00309c  f7fffffe          BL       Enable_SFlash_SPI
;;;5746     if(SCS == 0)	Select_SFI_0();										       
0030a0  b90c              CBNZ     r4,|L1.12454|
0030a2  f7fffffe          BL       Select_SFI_0
                  |L1.12454|
;;;5747     if(SCS == 1)	Select_SFI_1();										      
0030a6  2c01              CMP      r4,#1
0030a8  d101              BNE      |L1.12462|
0030aa  f7fffffe          BL       Select_SFI_1
                  |L1.12462|
;;;5748      
;;;5749     Select_SFI_DMA_Mode();								  
0030ae  f7fffffe          BL       Select_SFI_DMA_Mode
;;;5750     SPI_Clock_Period(Clk);
0030b2  4628              MOV      r0,r5
0030b4  f7fffffe          BL       SPI_Clock_Period
;;;5751   
;;;5752     Select_SFI_32bit_Address();							  
0030b8  f7fffffe          BL       Select_SFI_32bit_Address
;;;5753   
;;;5754     Goto_Pixel_XY(X1,Y1);									  
0030bc  4639              MOV      r1,r7
0030be  4630              MOV      r0,r6
0030c0  f7fffffe          BL       Goto_Pixel_XY
;;;5755     SFI_DMA_Destination_Upper_Left_Corner(X1,Y1);			
0030c4  4639              MOV      r1,r7
0030c6  4630              MOV      r0,r6
0030c8  f7fffffe          BL       SFI_DMA_Destination_Upper_Left_Corner
;;;5756     SFI_DMA_Transfer_Width_Height(X_W,Y_H);				  
0030cc  4649              MOV      r1,r9
0030ce  4640              MOV      r0,r8
0030d0  f7fffffe          BL       SFI_DMA_Transfer_Width_Height
;;;5757     SFI_DMA_Source_Width(P_W);							  
0030d4  4650              MOV      r0,r10
0030d6  f7fffffe          BL       SFI_DMA_Source_Width
;;;5758     SFI_DMA_Source_Start_Address(Addr); 						 
0030da  4658              MOV      r0,r11
0030dc  f7fffffe          BL       SFI_DMA_Source_Start_Address
;;;5759   
;;;5760     Start_SFI_DMA();									  
0030e0  f7fffffe          BL       Start_SFI_DMA
;;;5761     Check_Busy_SFI_DMA();								 
0030e4  f7fffffe          BL       Check_Busy_SFI_DMA
;;;5762     Select_SFI_24bit_Address();
0030e8  e8bd4ff0          POP      {r4-r11,lr}
0030ec  f7ffbffe          B.W      Select_SFI_24bit_Address
;;;5763   }
;;;5764   
                          ENDP

                  LT768_Select_Internal_Font_Init PROC
;;;5771   /* ŃˇÔńÄÚ˛żĽŻłÉ×ÖżâłőĘĽ»Ż */
;;;5772   void LT768_Select_Internal_Font_Init
0030f0  b570              PUSH     {r4-r6,lr}
;;;5773   (
;;;5774    unsigned char Size         // ÉčÖĂ×ÖĚĺ´óĐˇ  16Łş16*16     24:24*24    32:32*32
;;;5775   ,unsigned char XxN          // ×ÖĚĺµÄżí¶Č·Ĺ´ó±¶ĘýŁş1~4
;;;5776   ,unsigned char YxN          // ×ÖĚĺµÄ¸ß¶Č·Ĺ´ó±¶ĘýŁş1~4
;;;5777   ,unsigned char ChromaKey    // 0Łş×ÖĚĺ±łľ°É«Í¸Ă÷    1ŁşżÉŇÔÉčÖĂ×ÖĚĺµÄ±łľ°É«
;;;5778   ,unsigned char Alignment    // 0Łş˛»×ÖĚĺ˛»¶ÔĆë      1Łş×ÖĚĺ¶ÔĆë
;;;5779   )
;;;5780   {
0030f2  4605              MOV      r5,r0
0030f4  9e04              LDR      r6,[sp,#0x10]
0030f6  460c              MOV      r4,r1
;;;5781   	if(Size==16)	Font_Select_8x16_16x16();
0030f8  2d10              CMP      r5,#0x10
0030fa  d101              BNE      |L1.12544|
0030fc  f7fffffe          BL       Font_Select_8x16_16x16
                  |L1.12544|
;;;5782   	if(Size==24)	Font_Select_12x24_24x24();
003100  2d18              CMP      r5,#0x18
003102  d101              BNE      |L1.12552|
003104  f7fffffe          BL       Font_Select_12x24_24x24
                  |L1.12552|
;;;5783   	if(Size==32)	Font_Select_16x32_32x32();
003108  2d20              CMP      r5,#0x20
00310a  d101              BNE      |L1.12560|
00310c  f7fffffe          BL       Font_Select_16x32_32x32
                  |L1.12560|
;;;5784   
;;;5785   	//(*)
;;;5786   	if(XxN==1)	Font_Width_X1();
003110  2c01              CMP      r4,#1
003112  d101              BNE      |L1.12568|
003114  f7fffffe          BL       Font_Width_X1
                  |L1.12568|
;;;5787   	if(XxN==2)	Font_Width_X2();
003118  2c02              CMP      r4,#2
00311a  d101              BNE      |L1.12576|
00311c  f7fffffe          BL       Font_Width_X2
                  |L1.12576|
;;;5788   	if(XxN==3)	Font_Width_X3();
003120  2c03              CMP      r4,#3
003122  d101              BNE      |L1.12584|
003124  f7fffffe          BL       Font_Width_X3
                  |L1.12584|
;;;5789   	if(XxN==4)	Font_Width_X4();
003128  2c04              CMP      r4,#4
00312a  d101              BNE      |L1.12592|
00312c  f7fffffe          BL       Font_Width_X4
                  |L1.12592|
;;;5790   
;;;5791   	//(*)	
;;;5792   	if(YxN==1)	Font_Height_X1();
003130  2a01              CMP      r2,#1
003132  d101              BNE      |L1.12600|
003134  f7fffffe          BL       Font_Height_X1
                  |L1.12600|
;;;5793   	if(YxN==2)	Font_Height_X2();
003138  2a02              CMP      r2,#2
00313a  d101              BNE      |L1.12608|
00313c  f7fffffe          BL       Font_Height_X2
                  |L1.12608|
;;;5794   	if(YxN==3)	Font_Height_X3();
003140  2a03              CMP      r2,#3
003142  d101              BNE      |L1.12616|
003144  f7fffffe          BL       Font_Height_X3
                  |L1.12616|
;;;5795   	if(YxN==4)	Font_Height_X4();
003148  2a04              CMP      r2,#4
00314a  d101              BNE      |L1.12624|
00314c  f7fffffe          BL       Font_Height_X4
                  |L1.12624|
;;;5796   
;;;5797   	//(*)
;;;5798   	if(ChromaKey==0)	Font_Background_select_Color();	
003150  b90b              CBNZ     r3,|L1.12630|
003152  f7fffffe          BL       Font_Background_select_Color
                  |L1.12630|
;;;5799   	if(ChromaKey==1)	Font_Background_select_Transparency();	
003156  2b01              CMP      r3,#1
003158  d101              BNE      |L1.12638|
00315a  f7fffffe          BL       Font_Background_select_Transparency
                  |L1.12638|
;;;5800   
;;;5801   	//(*)
;;;5802   	if(Alignment==0)	Disable_Font_Alignment();
00315e  b90e              CBNZ     r6,|L1.12644|
003160  f7fffffe          BL       Disable_Font_Alignment
                  |L1.12644|
;;;5803   	if(Alignment==1)	Enable_Font_Alignment();
003164  2e01              CMP      r6,#1
003166  d103              BNE      |L1.12656|
003168  e8bd4070          POP      {r4-r6,lr}
00316c  f7ffbffe          B.W      Enable_Font_Alignment
                  |L1.12656|
;;;5804   }
003170  bd70              POP      {r4-r6,pc}
;;;5805   
                          ENDP

                  LT768_Print_Internal_Font_String PROC
;;;5807   /* ĎÔĘľÄÚ˛żĽŻłÉ×ÖĚĺ */
;;;5808   void LT768_Print_Internal_Font_String
003172  b570              PUSH     {r4-r6,lr}
;;;5809   (
;;;5810    unsigned short x               // ×ÖĚĺżŞĘĽĎÔĘľµÄxÎ»ÖĂ
;;;5811   ,unsigned short y               // ×ÖĚĺżŞĘĽĎÔĘľµÄyÎ»ÖĂ
;;;5812   ,unsigned long FontColor        // ×ÖĚĺµÄŃŐÉ«
;;;5813   ,unsigned long BackGroundColor  // ×ÖĚĺµÄ±łľ°É«Ł¨×˘ŇâŁşµ±×ÖĚĺ±łľ°łőĘĽ»ŻłÉÍ¸Ă÷Ę±Ł¬ÉčÖĂ¸ĂÖµÎŢĐ§Ł©
;;;5814   ,char *c                        // ĘýľÝ»şłĺµÄĘ×µŘÖ·
;;;5815   )
;;;5816   {
003174  4604              MOV      r4,r0
003176  460d              MOV      r5,r1
003178  9e04              LDR      r6,[sp,#0x10]
;;;5817     Text_Mode();
00317a  f7fffffe          BL       Text_Mode
;;;5818   	CGROM_Select_Internal_CGROM();
00317e  f7fffffe          BL       CGROM_Select_Internal_CGROM
;;;5819     Foreground_color_65k(FontColor);
003182  b290              UXTH     r0,r2
003184  f7fffffe          BL       Foreground_color_65k
;;;5820   	Background_color_65k(BackGroundColor);
003188  b298              UXTH     r0,r3
00318a  f7fffffe          BL       Background_color_65k
;;;5821   	Goto_Text_XY(x,y);
00318e  4629              MOV      r1,r5
003190  4620              MOV      r0,r4
003192  f7fffffe          BL       Goto_Text_XY
;;;5822   	Show_String(c);
003196  4630              MOV      r0,r6
003198  e8bd4070          POP      {r4-r6,lr}
00319c  f7ffbffe          B.W      Show_String
;;;5823   }
;;;5824   
                          ENDP

                  LT768_Select_Outside_Font_Init PROC
;;;5826   /* ŃˇÔńÍâ˛żĽŻłÉ×ÖżâłőĘĽ»Ż */
;;;5827   void LT768_Select_Outside_Font_Init
0031a0  e92d4ff8          PUSH     {r3-r11,lr}
;;;5828   (
;;;5829    unsigned char SCS           // ŃˇÔńÍâąŇµÄSPI   : SCSŁş0       SCSŁş1
;;;5830   ,unsigned char Clk           // SPIĘ±ÖÓ·ÖĆµ˛ÎĘý : SPI Clock = System Clock /{(Clk+1)*2}
;;;5831   ,unsigned long FlashAddr     // Ô´µŘÖ·(Flash)
;;;5832   ,unsigned long MemoryAddr    // ÄżµÄµŘÖ·(SDRAM)
;;;5833   ,unsigned long Num           // ×ÖżâµÄĘýľÝÁż´óĐˇ
;;;5834   ,unsigned char Size          // ÉčÖĂ×ÖĚĺ´óĐˇ  16Łş16*16     24:24*24    32:32*32
;;;5835   ,unsigned char XxN           // ×ÖĚĺµÄżí¶Č·Ĺ´ó±¶ĘýŁş1~4
;;;5836   ,unsigned char YxN           // ×ÖĚĺµÄ¸ß¶Č·Ĺ´ó±¶ĘýŁş1~4
;;;5837   ,unsigned char ChromaKey     // 0Łş×ÖĚĺ±łľ°É«Í¸Ă÷    1ŁşżÉŇÔÉčÖĂ×ÖĚĺµÄ±łľ°É«
;;;5838   ,unsigned char Alignment     // 0Łş˛»×ÖĚĺ˛»¶ÔĆë      1Łş×ÖĚĺ¶ÔĆë
;;;5839   )
;;;5840   {
0031a4  ac0c              ADD      r4,sp,#0x30
0031a6  4699              MOV      r9,r3
0031a8  e89401b0          LDM      r4,{r4,r5,r7,r8}
0031ac  e9dd360a          LDRD     r3,r6,[sp,#0x28]
0031b0  4682              MOV      r10,r0
0031b2  468b              MOV      r11,r1
;;;5841   	if(Size==16)	Font_Select_8x16_16x16();
0031b4  2e10              CMP      r6,#0x10
0031b6  d101              BNE      |L1.12732|
0031b8  f7fffffe          BL       Font_Select_8x16_16x16
                  |L1.12732|
;;;5842   	if(Size==24)	Font_Select_12x24_24x24();
0031bc  2e18              CMP      r6,#0x18
0031be  d101              BNE      |L1.12740|
0031c0  f7fffffe          BL       Font_Select_12x24_24x24
                  |L1.12740|
;;;5843   	if(Size==32)	Font_Select_16x32_32x32();
0031c4  2e20              CMP      r6,#0x20
0031c6  d101              BNE      |L1.12748|
0031c8  f7fffffe          BL       Font_Select_16x32_32x32
                  |L1.12748|
;;;5844   
;;;5845   	//(*)
;;;5846   	if(XxN==1)	Font_Width_X1();
0031cc  2c01              CMP      r4,#1
0031ce  d101              BNE      |L1.12756|
0031d0  f7fffffe          BL       Font_Width_X1
                  |L1.12756|
;;;5847   	if(XxN==2)	Font_Width_X2();
0031d4  2c02              CMP      r4,#2
0031d6  d101              BNE      |L1.12764|
0031d8  f7fffffe          BL       Font_Width_X2
                  |L1.12764|
;;;5848   	if(XxN==3)	Font_Width_X3();
0031dc  2c03              CMP      r4,#3
0031de  d101              BNE      |L1.12772|
0031e0  f7fffffe          BL       Font_Width_X3
                  |L1.12772|
;;;5849   	if(XxN==4)	Font_Width_X4();
0031e4  2c04              CMP      r4,#4
0031e6  d101              BNE      |L1.12780|
0031e8  f7fffffe          BL       Font_Width_X4
                  |L1.12780|
;;;5850   
;;;5851   	//(*)	
;;;5852   	if(YxN==1)	Font_Height_X1();
0031ec  2d01              CMP      r5,#1
0031ee  d101              BNE      |L1.12788|
0031f0  f7fffffe          BL       Font_Height_X1
                  |L1.12788|
;;;5853   	if(YxN==2)	Font_Height_X2();
0031f4  2d02              CMP      r5,#2
0031f6  d101              BNE      |L1.12796|
0031f8  f7fffffe          BL       Font_Height_X2
                  |L1.12796|
;;;5854   	if(YxN==3)	Font_Height_X3();
0031fc  2d03              CMP      r5,#3
0031fe  d101              BNE      |L1.12804|
003200  f7fffffe          BL       Font_Height_X3
                  |L1.12804|
;;;5855   	if(YxN==4)	Font_Height_X4();
003204  2d04              CMP      r5,#4
003206  d101              BNE      |L1.12812|
003208  f7fffffe          BL       Font_Height_X4
                  |L1.12812|
;;;5856   
;;;5857   	//(*)
;;;5858   	if(ChromaKey==0)	Font_Background_select_Color();	
00320c  b90f              CBNZ     r7,|L1.12818|
00320e  f7fffffe          BL       Font_Background_select_Color
                  |L1.12818|
;;;5859   	if(ChromaKey==1)	Font_Background_select_Transparency();	
003212  2f01              CMP      r7,#1
003214  d101              BNE      |L1.12826|
003216  f7fffffe          BL       Font_Background_select_Transparency
                  |L1.12826|
;;;5860   
;;;5861   	//(*)
;;;5862   	if(Alignment==0)	Disable_Font_Alignment();
00321a  f1b80f00          CMP      r8,#0
00321e  d101              BNE      |L1.12836|
003220  f7fffffe          BL       Disable_Font_Alignment
                  |L1.12836|
;;;5863   	if(Alignment==1)	Enable_Font_Alignment();	
003224  f1b80f01          CMP      r8,#1
003228  d101              BNE      |L1.12846|
00322a  f7fffffe          BL       Enable_Font_Alignment
                  |L1.12846|
;;;5864   	
;;;5865   	LT768_DMA_24bit_Linear(SCS,Clk,FlashAddr,MemoryAddr,Num);
00322e  9300              STR      r3,[sp,#0]
003230  464b              MOV      r3,r9
003232  4659              MOV      r1,r11
003234  4650              MOV      r0,r10
003236  f7fffffe          BL       LT768_DMA_24bit_Linear
;;;5866   	CGRAM_Start_address(MemoryAddr);        
00323a  4648              MOV      r0,r9
00323c  e8bd4ff8          POP      {r3-r11,lr}
003240  f7ffbffe          B.W      CGRAM_Start_address
;;;5867   }
;;;5868   
                          ENDP

                  LT768_Print_Outside_Font_String PROC
;;;5871   /* ĎÔĘľÍâ˛żĽ°ÄÚ˛żĽŻłÉ×ÖĚĺ */
;;;5872   void LT768_Print_Outside_Font_String
003244  b5f0              PUSH     {r4-r7,lr}
;;;5873   (
;;;5874    unsigned short x               // ×ÖĚĺżŞĘĽĎÔĘľµÄxÎ»ÖĂ
;;;5875   ,unsigned short y               // ×ÖĚĺżŞĘĽĎÔĘľµÄyÎ»ÖĂ
;;;5876   ,unsigned long FontColor        // ×ÖĚĺµÄŃŐÉ«
;;;5877   ,unsigned long BackGroundColor  // ×ÖĚĺµÄ±łľ°É«Ł¨×˘ŇâŁşµ±×ÖĚĺ±łľ°łőĘĽ»ŻłÉÍ¸Ă÷Ę±Ł¬ÉčÖĂ¸ĂÖµÎŢĐ§Ł©
;;;5878   ,unsigned char *c               // ĘýľÝ»şłĺµÄĘ×µŘÖ·
;;;5879   )
;;;5880   {
003246  4606              MOV      r6,r0
003248  9d05              LDR      r5,[sp,#0x14]
00324a  460f              MOV      r7,r1
;;;5881   	unsigned short temp_H = 0;
;;;5882   	unsigned short temp_L = 0;
;;;5883   	unsigned short temp = 0;
;;;5884   	unsigned long i = 0;
00324c  2400              MOVS     r4,#0
;;;5885   	
;;;5886   	Text_Mode();
00324e  f7fffffe          BL       Text_Mode
;;;5887   	Font_Select_UserDefine_Mode();
003252  f7fffffe          BL       Font_Select_UserDefine_Mode
;;;5888     Foreground_color_65k(FontColor);
003256  b290              UXTH     r0,r2
003258  f7fffffe          BL       Foreground_color_65k
;;;5889   	Background_color_65k(BackGroundColor);
00325c  b298              UXTH     r0,r3
00325e  f7fffffe          BL       Background_color_65k
;;;5890   	Goto_Text_XY(x,y);
003262  4639              MOV      r1,r7
003264  4630              MOV      r0,r6
003266  f7fffffe          BL       Goto_Text_XY
;;;5891   	
;;;5892   	while(c[i] != '\0')
00326a  e02a              B        |L1.12994|
                  |L1.12908|
;;;5893     { 
;;;5894   		if(c[i] < 0xa1)
00326c  28a1              CMP      r0,#0xa1
00326e  d20b              BCS      |L1.12936|
;;;5895   		{
;;;5896   			CGROM_Select_Internal_CGROM();   // ÄÚ˛żCGROMÎŞ×Ö·űŔ´Ô´
003270  f7fffffe          BL       CGROM_Select_Internal_CGROM
;;;5897   			LCD_CmdWrite(0x04);
003274  2004              MOVS     r0,#4
003276  f7fffffe          BL       LCD_CmdWrite
;;;5898   			LCD_DataWrite(c[i]);
00327a  5d28              LDRB     r0,[r5,r4]
00327c  f7fffffe          BL       LCD_DataWrite
;;;5899   			Check_Mem_WR_FIFO_not_Full();  
003280  f7fffffe          BL       Check_Mem_WR_FIFO_not_Full
;;;5900   			i += 1;
003284  1c64              ADDS     r4,r4,#1
003286  e01c              B        |L1.12994|
                  |L1.12936|
;;;5901   		}
;;;5902   		else
;;;5903   		{
;;;5904   			Font_Select_UserDefine_Mode();   // ×Ô¶¨Ňĺ×Öżâ
003288  f7fffffe          BL       Font_Select_UserDefine_Mode
;;;5905   			LCD_CmdWrite(0x04);
00328c  2004              MOVS     r0,#4
00328e  f7fffffe          BL       LCD_CmdWrite
;;;5906   			temp_H = ((c[i] - 0xa1) & 0x00ff) * 94;
003292  5d28              LDRB     r0,[r5,r4]
003294  38a1              SUBS     r0,r0,#0xa1
003296  b2c0              UXTB     r0,r0
003298  215e              MOVS     r1,#0x5e
00329a  fb10f101          SMULBB   r1,r0,r1
;;;5907   			temp_L = c[i+1] - 0xa1;
00329e  1928              ADDS     r0,r5,r4
0032a0  7840              LDRB     r0,[r0,#1]
0032a2  38a1              SUBS     r0,r0,#0xa1
;;;5908   			temp = temp_H + temp_L + 0x8000;
0032a4  4408              ADD      r0,r0,r1
0032a6  f5004000          ADD      r0,r0,#0x8000
0032aa  b282              UXTH     r2,r0
;;;5909   			LCD_DataWrite((temp>>8)&0xff);
0032ac  0a10              LSRS     r0,r2,#8
0032ae  f7fffffe          BL       LCD_DataWrite
;;;5910   			Check_Mem_WR_FIFO_not_Full();
0032b2  f7fffffe          BL       Check_Mem_WR_FIFO_not_Full
;;;5911   			LCD_DataWrite(temp&0xff);
0032b6  b2d0              UXTB     r0,r2
0032b8  f7fffffe          BL       LCD_DataWrite
;;;5912   			Check_Mem_WR_FIFO_not_Full();
0032bc  f7fffffe          BL       Check_Mem_WR_FIFO_not_Full
;;;5913   			i += 2;		
0032c0  1ca4              ADDS     r4,r4,#2
                  |L1.12994|
0032c2  5d28              LDRB     r0,[r5,r4]            ;5892
0032c4  2800              CMP      r0,#0                 ;5892
0032c6  d1d1              BNE      |L1.12908|
;;;5914   		}
;;;5915   	}
;;;5916   	
;;;5917     Check_2D_Busy();
0032c8  f7fffffe          BL       Check_2D_Busy
;;;5918   
;;;5919     Graphic_Mode(); //back to graphic mode;ÍĽĐÎÄŁĘ˝
0032cc  e8bd40f0          POP      {r4-r7,lr}
0032d0  f7ffbffe          B.W      Graphic_Mode
;;;5920   }
;;;5921   
                          ENDP

                  LT768_Text_cursor_Init PROC
;;;5924   
;;;5925   void LT768_Text_cursor_Init
0032d4  b570              PUSH     {r4-r6,lr}
;;;5926   (
;;;5927    unsigned char On_Off_Blinking         // 0Łş˝űÖąąâ±ęÉÁË¸   1ŁşĘąÄÜąâ±ęÉÁË¸
;;;5928   ,unsigned short Blinking_Time          // ÉčÖĂÎÄ×Öąâ±ęÉÁË¸Ę±Ľä
;;;5929   ,unsigned short X_W                    // ÎÄ×Öąâ±ęË®Ć˝´óĐˇ
;;;5930   ,unsigned short Y_W                    // ÎÄ×Öąâ±ę´ąÖ±´óĐˇ
;;;5931   )
;;;5932   {
0032d6  4604              MOV      r4,r0
0032d8  460d              MOV      r5,r1
0032da  4616              MOV      r6,r2
;;;5933   	if(On_Off_Blinking == 0)	Disable_Text_Cursor_Blinking();
0032dc  2c00              CMP      r4,#0
0032de  d101              BNE      |L1.13028|
0032e0  f7fffffe          BL       Disable_Text_Cursor_Blinking
                  |L1.13028|
;;;5934   	if(On_Off_Blinking == 1)	Enable_Text_Cursor_Blinking();
0032e4  2c01              CMP      r4,#1
0032e6  d101              BNE      |L1.13036|
0032e8  f7fffffe          BL       Enable_Text_Cursor_Blinking
                  |L1.13036|
;;;5935   
;;;5936     Blinking_Time_Frames(Blinking_Time); 
0032ec  b2e8              UXTB     r0,r5
0032ee  f7fffffe          BL       Blinking_Time_Frames
;;;5937   	
;;;5938     //[3E][3Fh]
;;;5939     Text_Cursor_H_V(X_W,Y_W);
0032f2  4619              MOV      r1,r3
0032f4  4630              MOV      r0,r6
0032f6  f7fffffe          BL       Text_Cursor_H_V
;;;5940   	
;;;5941   	Enable_Text_Cursor();
0032fa  e8bd4070          POP      {r4-r6,lr}
0032fe  f7ffbffe          B.W      Enable_Text_Cursor
;;;5942   }
;;;5943   
                          ENDP

                  LT768_Enable_Text_Cursor PROC
;;;5944   
;;;5945   void LT768_Enable_Text_Cursor(void)
003302  f7ffbffe          B.W      Enable_Text_Cursor
;;;5946   {
;;;5947   	Enable_Text_Cursor();
;;;5948   }
;;;5949   
                          ENDP

                  LT768_Disable_Text_Cursor PROC
;;;5950   
;;;5951   void LT768_Disable_Text_Cursor(void)
003306  f7ffbffe          B.W      Disable_Text_Cursor
;;;5952   {
;;;5953   	Disable_Text_Cursor();
;;;5954   }
;;;5955   
                          ENDP

                  LT768_Graphic_cursor_Init PROC
;;;5956   
;;;5957   void LT768_Graphic_cursor_Init
00330a  b5f0              PUSH     {r4-r7,lr}
;;;5958   (
;;;5959    unsigned char Cursor_N                  // ŃˇÔńąâ±ę   1:ąâ±ę1   2:ąâ±ę2   3:ąâ±ę3  4:ąâ±ę4
;;;5960   ,unsigned char Color1                    // ŃŐÉ«1
;;;5961   ,unsigned char Color2                    // ŃŐÉ«2
;;;5962   ,unsigned short X_Pos                    // ĎÔĘľ×ř±ęX
;;;5963   ,unsigned short Y_Pos                    // ĎÔĘľ×ř±ęY
;;;5964   ,unsigned char *Cursor_Buf               // ąâ±ęĘýľÝµÄ»şłĺĘ×µŘÖ·
;;;5965   )
;;;5966   {
00330c  4616              MOV      r6,r2
00330e  e9dd7205          LDRD     r7,r2,[sp,#0x14]
003312  4604              MOV      r4,r0
003314  460d              MOV      r5,r1
;;;5967   	unsigned int i ;
;;;5968   	
;;;5969   	Memory_Select_Graphic_Cursor_RAM(); 
003316  f7fffffe          BL       Memory_Select_Graphic_Cursor_RAM
;;;5970   	Graphic_Mode();
00331a  f7fffffe          BL       Graphic_Mode
;;;5971   	
;;;5972   	switch(Cursor_N)
00331e  2c01              CMP      r4,#1
003320  d006              BEQ      |L1.13104|
003322  2c02              CMP      r4,#2
003324  d007              BEQ      |L1.13110|
003326  2c03              CMP      r4,#3
003328  d008              BEQ      |L1.13116|
00332a  2c04              CMP      r4,#4
00332c  d10b              BNE      |L1.13126|
00332e  e008              B        |L1.13122|
                  |L1.13104|
;;;5973   	{
;;;5974   		case 1:	Select_Graphic_Cursor_1();	break;
003330  f7fffffe          BL       Select_Graphic_Cursor_1
003334  e007              B        |L1.13126|
                  |L1.13110|
;;;5975   		case 2:	Select_Graphic_Cursor_2();	break;
003336  f7fffffe          BL       Select_Graphic_Cursor_2
00333a  e004              B        |L1.13126|
                  |L1.13116|
;;;5976   		case 3:	Select_Graphic_Cursor_3();	break;
00333c  f7fffffe          BL       Select_Graphic_Cursor_3
003340  e001              B        |L1.13126|
                  |L1.13122|
;;;5977   		case 4:	Select_Graphic_Cursor_4();	break;
003342  f7fffffe          BL       Select_Graphic_Cursor_4
                  |L1.13126|
;;;5978   		default:														break;
;;;5979   	}
;;;5980   	
;;;5981   	LCD_CmdWrite(0x04);
003346  2004              MOVS     r0,#4
003348  f7fffffe          BL       LCD_CmdWrite
;;;5982     for(i=0;i<256;i++)
00334c  2400              MOVS     r4,#0
                  |L1.13134|
;;;5983     {					 
;;;5984   		LCD_DataWrite(Cursor_Buf[i]);
00334e  5d10              LDRB     r0,[r2,r4]
003350  f7fffffe          BL       LCD_DataWrite
003354  1c64              ADDS     r4,r4,#1              ;5982
003356  2cff              CMP      r4,#0xff              ;5982
003358  d9f9              BLS      |L1.13134|
;;;5985     }
;;;5986   	
;;;5987   	Memory_Select_SDRAM();//Đ´ÍęşóÇĐ»ŘSDRAM
00335a  f7fffffe          BL       Memory_Select_SDRAM
;;;5988   	Set_Graphic_Cursor_Color_1(Color1);
00335e  4628              MOV      r0,r5
003360  f7fffffe          BL       Set_Graphic_Cursor_Color_1
;;;5989     Set_Graphic_Cursor_Color_2(Color2);
003364  4630              MOV      r0,r6
003366  f7fffffe          BL       Set_Graphic_Cursor_Color_2
;;;5990     Graphic_Cursor_XY(X_Pos,Y_Pos);
00336a  4639              MOV      r1,r7
00336c  4618              MOV      r0,r3
00336e  f7fffffe          BL       Graphic_Cursor_XY
;;;5991   	
;;;5992   	Enable_Graphic_Cursor();
003372  e8bd40f0          POP      {r4-r7,lr}
003376  f7ffbffe          B.W      Enable_Graphic_Cursor
;;;5993   }
;;;5994   
                          ENDP

                  LT768_Set_Graphic_cursor_Pos PROC
;;;5995   
;;;5996   void LT768_Set_Graphic_cursor_Pos
00337a  b510              PUSH     {r4,lr}
;;;5997   (
;;;5998    unsigned char Cursor_N                  // ŃˇÔńąâ±ę   1:ąâ±ę1   2:ąâ±ę2   3:ąâ±ę3  4:ąâ±ę4
;;;5999   ,unsigned short X_Pos                    // ĎÔĘľ×ř±ęX
;;;6000   ,unsigned short Y_Pos                    // ĎÔĘľ×ř±ęY
;;;6001   )
;;;6002   {
00337c  4604              MOV      r4,r0
00337e  4608              MOV      r0,r1
003380  4611              MOV      r1,r2
;;;6003   	Graphic_Cursor_XY(X_Pos,Y_Pos);
003382  f7fffffe          BL       Graphic_Cursor_XY
;;;6004   	switch(Cursor_N)
003386  2c01              CMP      r4,#1
003388  d009              BEQ      |L1.13214|
00338a  2c02              CMP      r4,#2
00338c  d00b              BEQ      |L1.13222|
00338e  2c03              CMP      r4,#3
003390  d00d              BEQ      |L1.13230|
003392  2c04              CMP      r4,#4
003394  d10f              BNE      |L1.13238|
;;;6005   	{
;;;6006   		case 1:	Select_Graphic_Cursor_1();	break;
;;;6007   		case 2:	Select_Graphic_Cursor_2();	break;
;;;6008   		case 3:	Select_Graphic_Cursor_3();	break;
;;;6009   		case 4:	Select_Graphic_Cursor_4();	break;
003396  e8bd4010          POP      {r4,lr}
00339a  f7ffbffe          B.W      Select_Graphic_Cursor_4
                  |L1.13214|
00339e  e8bd4010          POP      {r4,lr}               ;6006
0033a2  f7ffbffe          B.W      Select_Graphic_Cursor_1
                  |L1.13222|
0033a6  e8bd4010          POP      {r4,lr}               ;6007
0033aa  f7ffbffe          B.W      Select_Graphic_Cursor_2
                  |L1.13230|
0033ae  e8bd4010          POP      {r4,lr}               ;6008
0033b2  f7ffbffe          B.W      Select_Graphic_Cursor_3
                  |L1.13238|
;;;6010   		default:														break;
;;;6011   	}
;;;6012   }
0033b6  bd10              POP      {r4,pc}
;;;6013   
                          ENDP

                  LT768_Enable_Graphic_Cursor PROC
;;;6014   
;;;6015   void LT768_Enable_Graphic_Cursor(void)
0033b8  f7ffbffe          B.W      Enable_Graphic_Cursor
;;;6016   {
;;;6017   	Enable_Graphic_Cursor();
;;;6018   }
;;;6019   
                          ENDP

                  LT768_Disable_Graphic_Cursor PROC
;;;6020   
;;;6021   void LT768_Disable_Graphic_Cursor(void)
0033bc  f7ffbffe          B.W      Disable_Graphic_Cursor
;;;6022   {
;;;6023   	Disable_Graphic_Cursor();
;;;6024   }
;;;6025   
                          ENDP

                  LT768_PIP_Init PROC
;;;6028   
;;;6029   void LT768_PIP_Init
0033c0  e92d4ff0          PUSH     {r4-r11,lr}
;;;6030   (
;;;6031    unsigned char On_Off         // 0 : ˝űÖą PIP    1 : ĘąÄÜ PIP    2 : ±ŁłÖÔ­Ŕ´µÄ×´Ě¬
;;;6032   ,unsigned char Select_PIP     // 1 : ĘąÓĂ PIP1   2 : ĘąÓĂ PIP2
;;;6033   ,unsigned long PAddr          // PIPµÄżŞĘĽµŘÖ·
;;;6034   ,unsigned short XP            // PIP´°żÚµÄX×ř±ę,±ŘĐë±»4Őűłý
;;;6035   ,unsigned short YP            // PIP´°żÚµÄY×ř±ę,±ŘĐë±»4Őűłý
;;;6036   ,unsigned long ImageWidth     // µ×ÍĽµÄżí¶Č
;;;6037   ,unsigned short X_Dis         // ĎÔĘľ´°żÚµÄX×ř±ę
;;;6038   ,unsigned short Y_Dis         // ĎÔĘľ´°żÚµÄY×ř±ę
;;;6039   ,unsigned short X_W           // ĎÔĘľ´°żÚµÄżí¶ČŁ¬±ŘĐë±»4Őűłý
;;;6040   ,unsigned short Y_H           // ĎÔĘľ´°żÚµÄł¤¶ČŁ¬±ŘĐë±»4Őűłý
;;;6041   )
;;;6042   {
0033c4  4693              MOV      r11,r2
0033c6  aa0b              ADD      r2,sp,#0x2c
0033c8  461f              MOV      r7,r3
0033ca  e892060c          LDM      r2,{r2,r3,r9,r10}
0033ce  e9dd8609          LDRD     r8,r6,[sp,#0x24]
0033d2  4605              MOV      r5,r0
0033d4  460c              MOV      r4,r1
;;;6043   	if(Select_PIP == 1 )  
0033d6  2c01              CMP      r4,#1
0033d8  d103              BNE      |L1.13282|
;;;6044   	{
;;;6045   		Select_PIP1_Window_16bpp();
0033da  f7fffffe          BL       Select_PIP1_Window_16bpp
;;;6046   		Select_PIP1_Parameter();
0033de  f7fffffe          BL       Select_PIP1_Parameter
                  |L1.13282|
;;;6047   	}
;;;6048   	if(Select_PIP == 2 )  
0033e2  2c02              CMP      r4,#2
0033e4  d103              BNE      |L1.13294|
;;;6049   	{
;;;6050   		Select_PIP2_Window_16bpp();
0033e6  f7fffffe          BL       Select_PIP2_Window_16bpp
;;;6051   		Select_PIP2_Parameter();
0033ea  f7fffffe          BL       Select_PIP2_Parameter
                  |L1.13294|
;;;6052   	}
;;;6053   	
;;;6054   	PIP_Display_Start_XY(X_Dis,Y_Dis);
0033ee  4619              MOV      r1,r3
0033f0  4610              MOV      r0,r2
0033f2  f7fffffe          BL       PIP_Display_Start_XY
;;;6055   	PIP_Image_Start_Address(PAddr);
0033f6  4658              MOV      r0,r11
0033f8  f7fffffe          BL       PIP_Image_Start_Address
;;;6056   	PIP_Image_Width(ImageWidth);
0033fc  b2b0              UXTH     r0,r6
0033fe  f7fffffe          BL       PIP_Image_Width
;;;6057   	PIP_Window_Image_Start_XY(XP,YP);
003402  4641              MOV      r1,r8
003404  4638              MOV      r0,r7
003406  f7fffffe          BL       PIP_Window_Image_Start_XY
;;;6058   	PIP_Window_Width_Height(X_W,Y_H);
00340a  4651              MOV      r1,r10
00340c  4648              MOV      r0,r9
00340e  f7fffffe          BL       PIP_Window_Width_Height
;;;6059   
;;;6060   	if(On_Off == 0)
003412  b93d              CBNZ     r5,|L1.13348|
;;;6061     {
;;;6062     	if(Select_PIP == 1 )  Disable_PIP1();	
003414  2c01              CMP      r4,#1
003416  d101              BNE      |L1.13340|
003418  f7fffffe          BL       Disable_PIP1
                  |L1.13340|
;;;6063   		if(Select_PIP == 2 )  Disable_PIP2();
00341c  2c02              CMP      r4,#2
00341e  d101              BNE      |L1.13348|
003420  f7fffffe          BL       Disable_PIP2
                  |L1.13348|
;;;6064   	}
;;;6065   
;;;6066     if(On_Off == 1)
003424  2d01              CMP      r5,#1
003426  d109              BNE      |L1.13372|
;;;6067     {
;;;6068   		if(Select_PIP == 1 )  Enable_PIP1();	
003428  2c01              CMP      r4,#1
00342a  d101              BNE      |L1.13360|
00342c  f7fffffe          BL       Enable_PIP1
                  |L1.13360|
;;;6069   		if(Select_PIP == 2 )  Enable_PIP2();
003430  2c02              CMP      r4,#2
003432  d103              BNE      |L1.13372|
003434  e8bd4ff0          POP      {r4-r11,lr}
003438  f7ffbffe          B.W      Enable_PIP2
                  |L1.13372|
;;;6070   	}
;;;6071   }
00343c  e51b              B        |L1.11894|
;;;6072   
                          ENDP

                  LT768_Set_DisWindowPos PROC
;;;6073   
;;;6074   void LT768_Set_DisWindowPos
00343e  b530              PUSH     {r4,r5,lr}
;;;6075   (
;;;6076    unsigned char On_Off         // 0 : ˝űÖą PIP, 1 : ĘąÄÜ PIP, 2 : ±ŁłÖÔ­Ŕ´µÄ×´Ě¬
;;;6077   ,unsigned char Select_PIP     // 1 : ĘąÓĂ PIP1 , 2 : ĘąÓĂ PIP2
;;;6078   ,unsigned short X_Dis         // ĎÔĘľ´°żÚµÄX×ř±ę
;;;6079   ,unsigned short Y_Dis         // ĎÔĘľ´°żÚµÄY×ř±ę
;;;6080   )
;;;6081   {
003440  4605              MOV      r5,r0
003442  460c              MOV      r4,r1
;;;6082   	if(Select_PIP == 1 )  Select_PIP1_Parameter();
003444  2c01              CMP      r4,#1
003446  d101              BNE      |L1.13388|
003448  f7fffffe          BL       Select_PIP1_Parameter
                  |L1.13388|
;;;6083   	if(Select_PIP == 2 )  Select_PIP2_Parameter();
00344c  2c02              CMP      r4,#2
00344e  d101              BNE      |L1.13396|
003450  f7fffffe          BL       Select_PIP2_Parameter
                  |L1.13396|
;;;6084   	
;;;6085   	if(On_Off == 0)
003454  b93d              CBNZ     r5,|L1.13414|
;;;6086     {
;;;6087     	if(Select_PIP == 1 )  Disable_PIP1();	
003456  2c01              CMP      r4,#1
003458  d101              BNE      |L1.13406|
00345a  f7fffffe          BL       Disable_PIP1
                  |L1.13406|
;;;6088   		if(Select_PIP == 2 )  Disable_PIP2();
00345e  2c02              CMP      r4,#2
003460  d101              BNE      |L1.13414|
003462  f7fffffe          BL       Disable_PIP2
                  |L1.13414|
;;;6089   	}
;;;6090   
;;;6091     if(On_Off == 1)
003466  2d01              CMP      r5,#1
003468  d107              BNE      |L1.13434|
;;;6092     {
;;;6093   		if(Select_PIP == 1 )  Enable_PIP1();	
00346a  2c01              CMP      r4,#1
00346c  d101              BNE      |L1.13426|
00346e  f7fffffe          BL       Enable_PIP1
                  |L1.13426|
;;;6094   		if(Select_PIP == 2 )  Enable_PIP2();
003472  2c02              CMP      r4,#2
003474  d101              BNE      |L1.13434|
003476  f7fffffe          BL       Enable_PIP2
                  |L1.13434|
;;;6095   	}
;;;6096   	
;;;6097   	PIP_Display_Start_XY(X_Dis,Y_Dis);
00347a  e8bd4030          POP      {r4,r5,lr}
00347e  4619              MOV      r1,r3
003480  4610              MOV      r0,r2
003482  f7ffbffe          B.W      PIP_Display_Start_XY
;;;6098   	
;;;6099   }
;;;6100   
                          ENDP

                  BTE_Solid_Fill PROC
;;;6107   
;;;6108   void BTE_Solid_Fill
003486  e92d47f0          PUSH     {r4-r10,lr}
;;;6109   (
;;;6110    unsigned long Des_Addr           // ĚîłäµÄÄżµÄµŘÖ· 
;;;6111   ,unsigned short Des_W             // ÄżµÄµŘÖ·ÍĽĆ¬żí¶Č
;;;6112   ,unsigned short XDes              // x×ř±ę 
;;;6113   ,unsigned short YDes              // y×ř±ę 
;;;6114   ,unsigned short color             // ĚîłäµÄŃŐÉ« 
;;;6115   ,unsigned short X_W               // ĚîłäµÄł¤¶Č 
;;;6116   ,unsigned short Y_H               // ĚîłäµÄżí¶Č 
;;;6117   )            
;;;6118   {
00348a  4607              MOV      r7,r0
00348c  e9dd9a09          LDRD     r9,r10,[sp,#0x24]
003490  460c              MOV      r4,r1
003492  4615              MOV      r5,r2
003494  461e              MOV      r6,r3
003496  f8dd8020          LDR      r8,[sp,#0x20]
;;;6119   	
;;;6120   	BTE_Destination_Color_16bpp();
00349a  f7fffffe          BL       BTE_Destination_Color_16bpp
;;;6121   	
;;;6122     BTE_Destination_Memory_Start_Address(Des_Addr);
00349e  4638              MOV      r0,r7
0034a0  f7fffffe          BL       BTE_Destination_Memory_Start_Address
;;;6123       
;;;6124     BTE_Destination_Image_Width(Des_W);
0034a4  4620              MOV      r0,r4
0034a6  f7fffffe          BL       BTE_Destination_Image_Width
;;;6125     BTE_Destination_Window_Start_XY(XDes,YDes);
0034aa  4631              MOV      r1,r6
0034ac  4628              MOV      r0,r5
0034ae  f7fffffe          BL       BTE_Destination_Window_Start_XY
;;;6126     BTE_Window_Size(X_W,Y_H);
0034b2  4651              MOV      r1,r10
0034b4  4648              MOV      r0,r9
0034b6  f7fffffe          BL       BTE_Window_Size
;;;6127       
;;;6128     Foreground_color_65k(color);
0034ba  4640              MOV      r0,r8
0034bc  f7fffffe          BL       Foreground_color_65k
;;;6129     BTE_Operation_Code(0x0c);
0034c0  200c              MOVS     r0,#0xc
0034c2  f7fffffe          BL       BTE_Operation_Code
;;;6130     BTE_Enable();
0034c6  f7fffffe          BL       BTE_Enable
;;;6131     Check_BTE_Busy();     
0034ca  e8bd47f0          POP      {r4-r10,lr}
0034ce  f7ffbffe          B.W      Check_BTE_Busy
;;;6132   }
;;;6133   
                          ENDP

                  LT768_BTE_Memory_Copy PROC
;;;6134   /*  ˝áşĎąâŐ¤˛Ů×÷µÄBTEÄÚ´ć¸´ÖĆ */
;;;6135   void LT768_BTE_Memory_Copy
0034d2  e92d4ff0          PUSH     {r4-r11,lr}
;;;6136   (
;;;6137    unsigned long S0_Addr     // SOÍĽĎńµÄÄÚ´ćĆđĘĽµŘÖ·
;;;6138   ,unsigned short S0_W       // S0ÍĽĎńµÄżí¶Č
;;;6139   ,unsigned short XS0        // S0ÍĽĎńµÄ×óÉĎ·˝X×ř±ę
;;;6140   ,unsigned short YS0        // S0ÍĽĎńµÄ×óÉĎ·˝Y×ř±ę
;;;6141   ,unsigned long S1_Addr     // S1ÍĽĎńµÄÄÚ´ćĆđĘĽµŘÖ·
;;;6142   ,unsigned short S1_W       // S1ÍĽĎńµÄżí¶Č
;;;6143   ,unsigned short XS1        // S1ÍĽĎńµÄ×óÉĎ·˝X×ř±ę
;;;6144   ,unsigned short YS1        // S1ÍĽĎńµÄ×óÉĎ·˝Y×ř±ę
;;;6145   ,unsigned long Des_Addr    // ÄżµÄÍĽĎńµÄÄÚ´ćĆđĘĽµŘÖ·
;;;6146   ,unsigned short Des_W      // ÄżµÄÍĽĎńµÄżí¶Č
;;;6147   ,unsigned short XDes       // ÄżµÄÍĽĎńµÄ×óÉĎ·˝X×ř±ę
;;;6148   ,unsigned short YDes       // ÄżµÄÍĽĎńµÄ×óÉĎ·˝Y×ř±ę
;;;6149   ,unsigned int ROP_Code     // ąâŐ¤˛Ů×÷ÄŁĘ˝
;;;6150   /*ROP_Code :
;;;6151      0000b		0(Blackness)
;;;6152      0001b		~S0!E~S1 or ~(S0+S1)
;;;6153      0010b		~S0!ES1
;;;6154      0011b		~S0
;;;6155      0100b		S0!E~S1
;;;6156      0101b		~S1
;;;6157      0110b		S0^S1
;;;6158      0111b		~S0 + ~S1 or ~(S0 + S1)
;;;6159      1000b		S0!ES1
;;;6160      1001b		~(S0^S1)
;;;6161      1010b		S1
;;;6162      1011b		~S0+S1
;;;6163      1100b		S0
;;;6164      1101b		S0+~S1
;;;6165      1110b		S0+S1
;;;6166      1111b		1(whiteness)*/
;;;6167   ,unsigned short X_W       // »î¶Ż´°żÚµÄżí¶Č
;;;6168   ,unsigned short Y_H       // »î¶Ż´°żÚµÄł¤¶Č
;;;6169   )
;;;6170   {
0034d6  4607              MOV      r7,r0
0034d8  e9ddab0b          LDRD     r10,r11,[sp,#0x2c]
0034dc  e9dd8909          LDRD     r8,r9,[sp,#0x24]
0034e0  460c              MOV      r4,r1
0034e2  4615              MOV      r5,r2
0034e4  461e              MOV      r6,r3
;;;6171   	BTE_S0_Color_16bpp();
0034e6  f7fffffe          BL       BTE_S0_Color_16bpp
;;;6172   	BTE_S0_Memory_Start_Address(S0_Addr);
0034ea  4638              MOV      r0,r7
0034ec  f7fffffe          BL       BTE_S0_Memory_Start_Address
;;;6173     BTE_S0_Image_Width(S0_W);
0034f0  4620              MOV      r0,r4
0034f2  f7fffffe          BL       BTE_S0_Image_Width
;;;6174     BTE_S0_Window_Start_XY(XS0,YS0);
0034f6  4631              MOV      r1,r6
0034f8  4628              MOV      r0,r5
0034fa  f7fffffe          BL       BTE_S0_Window_Start_XY
;;;6175   
;;;6176   	BTE_S1_Color_16bpp();
0034fe  f7fffffe          BL       BTE_S1_Color_16bpp
;;;6177     BTE_S1_Memory_Start_Address(S1_Addr);
003502  4640              MOV      r0,r8
003504  f7fffffe          BL       BTE_S1_Memory_Start_Address
;;;6178     BTE_S1_Image_Width(S1_W); 
003508  4648              MOV      r0,r9
00350a  f7fffffe          BL       BTE_S1_Image_Width
;;;6179     BTE_S1_Window_Start_XY(XS1,YS1);
00350e  4659              MOV      r1,r11
003510  4650              MOV      r0,r10
003512  f7fffffe          BL       BTE_S1_Window_Start_XY
;;;6180   
;;;6181   	BTE_Destination_Color_16bpp();
003516  f7fffffe          BL       BTE_Destination_Color_16bpp
;;;6182     BTE_Destination_Memory_Start_Address(Des_Addr);
00351a  980d              LDR      r0,[sp,#0x34]
00351c  f7fffffe          BL       BTE_Destination_Memory_Start_Address
;;;6183     BTE_Destination_Image_Width(Des_W);
003520  980e              LDR      r0,[sp,#0x38]
003522  f7fffffe          BL       BTE_Destination_Image_Width
;;;6184     BTE_Destination_Window_Start_XY(XDes,YDes);	
003526  e9dd010f          LDRD     r0,r1,[sp,#0x3c]
00352a  f7fffffe          BL       BTE_Destination_Window_Start_XY
;;;6185      
;;;6186     BTE_ROP_Code(ROP_Code);	
00352e  9811              LDR      r0,[sp,#0x44]
003530  b2c0              UXTB     r0,r0
003532  f7fffffe          BL       BTE_ROP_Code
;;;6187     BTE_Operation_Code(0x02); //BTE Operation: Memory copy (move) with ROP.
003536  2002              MOVS     r0,#2
003538  f7fffffe          BL       BTE_Operation_Code
;;;6188     BTE_Window_Size(X_W,Y_H); 
00353c  e9dd0112          LDRD     r0,r1,[sp,#0x48]
003540  f7fffffe          BL       BTE_Window_Size
;;;6189     BTE_Enable();
003544  f7fffffe          BL       BTE_Enable
;;;6190     Check_BTE_Busy();
003548  e8bd4ff0          POP      {r4-r11,lr}
00354c  f7ffbffe          B.W      Check_BTE_Busy
;;;6191   }
;;;6192   
                          ENDP

                  LT768_BTE_Memory_Copy_Chroma_key PROC
;;;6194   /*  ˝áşĎ Chroma Key µÄÄÚ´ć¸´ÖĆŁ¨˛»ş¬ ROPŁ© */
;;;6195   void LT768_BTE_Memory_Copy_Chroma_key
003550  e92d4ff0          PUSH     {r4-r11,lr}
;;;6196   (
;;;6197    unsigned long S0_Addr             // SOÍĽĎńµÄÄÚ´ćĆđĘĽµŘÖ·
;;;6198   ,unsigned short S0_W               // S0ÍĽĎńµÄżí¶Č
;;;6199   ,unsigned short XS0                // S0ÍĽĎńµÄ×óÉĎ·˝X×ř±ę
;;;6200   ,unsigned short YS0                // S0ÍĽĎńµÄ×óÉĎ·˝Y×ř±ę
;;;6201   ,unsigned long Des_Addr            // ÄżµÄÍĽĎńµÄÄÚ´ćĆđĘĽµŘÖ·
;;;6202   ,unsigned short Des_W              // ÄżµÄÍĽĎńµÄżí¶Č
;;;6203   ,unsigned short XDes               // ÄżµÄÍĽĎńµÄ×óÉĎ·˝X×ř±ę
;;;6204   ,unsigned short YDes               // ÄżµÄÍĽĎńµÄ×óÉĎ·˝X×ř±ę
;;;6205   ,unsigned long Background_color    // Í¸Ă÷É«
;;;6206   ,unsigned short X_W                // »î¶Ż´°żÚµÄżí¶Č
;;;6207   ,unsigned short Y_H                // »î¶Ż´°żÚµÄł¤¶Č
;;;6208   )
;;;6209   {
003554  4607              MOV      r7,r0
003556  e9ddab0b          LDRD     r10,r11,[sp,#0x2c]
00355a  e9dd8909          LDRD     r8,r9,[sp,#0x24]
00355e  980d              LDR      r0,[sp,#0x34]
003560  460c              MOV      r4,r1
003562  4615              MOV      r5,r2
003564  461e              MOV      r6,r3
;;;6210   	Background_color_65k(Background_color); 
003566  b280              UXTH     r0,r0
003568  f7fffffe          BL       Background_color_65k
;;;6211   	
;;;6212   	BTE_S0_Color_16bpp();
00356c  f7fffffe          BL       BTE_S0_Color_16bpp
;;;6213     BTE_S0_Memory_Start_Address(S0_Addr);
003570  4638              MOV      r0,r7
003572  f7fffffe          BL       BTE_S0_Memory_Start_Address
;;;6214     BTE_S0_Image_Width(S0_W);
003576  4620              MOV      r0,r4
003578  f7fffffe          BL       BTE_S0_Image_Width
;;;6215     BTE_S0_Window_Start_XY(XS0,YS0);	
00357c  4631              MOV      r1,r6
00357e  4628              MOV      r0,r5
003580  f7fffffe          BL       BTE_S0_Window_Start_XY
;;;6216   
;;;6217   	BTE_Destination_Color_16bpp();
003584  f7fffffe          BL       BTE_Destination_Color_16bpp
;;;6218     BTE_Destination_Memory_Start_Address(Des_Addr);
003588  4640              MOV      r0,r8
00358a  f7fffffe          BL       BTE_Destination_Memory_Start_Address
;;;6219     BTE_Destination_Image_Width(Des_W);
00358e  4648              MOV      r0,r9
003590  f7fffffe          BL       BTE_Destination_Image_Width
;;;6220     BTE_Destination_Window_Start_XY(XDes,YDes);
003594  4659              MOV      r1,r11
003596  4650              MOV      r0,r10
003598  f7fffffe          BL       BTE_Destination_Window_Start_XY
;;;6221      
;;;6222     BTE_Operation_Code(0x05);	//BTE Operation: Memory copy (move) with chroma keying (w/o ROP)
00359c  2005              MOVS     r0,#5
00359e  f7fffffe          BL       BTE_Operation_Code
;;;6223     BTE_Window_Size(X_W,Y_H); 
0035a2  e9dd010e          LDRD     r0,r1,[sp,#0x38]
0035a6  f7fffffe          BL       BTE_Window_Size
;;;6224     BTE_Enable();
0035aa  f7fffffe          BL       BTE_Enable
;;;6225     Check_BTE_Busy();
0035ae  e8bd4ff0          POP      {r4-r11,lr}
0035b2  f7ffbffe          B.W      Check_BTE_Busy
;;;6226   }
;;;6227   
                          ENDP

                  LT768_BTE_Pattern_Fill PROC
;;;6228   
;;;6229   void LT768_BTE_Pattern_Fill
0035b6  e92d4ff0          PUSH     {r4-r11,lr}
;;;6230   (
;;;6231    unsigned char P_8x8_or_16x16      // 0 : use 8x8 Icon , 1 : use 16x16 Icon.
;;;6232   ,unsigned long S0_Addr             // SOÍĽĎńµÄÄÚ´ćĆđĘĽµŘÖ·
;;;6233   ,unsigned short S0_W               // S0ÍĽĎńµÄżí¶Č
;;;6234   ,unsigned short XS0                // S0ÍĽĎńµÄ×óÉĎ·˝X×ř±ę
;;;6235   ,unsigned short YS0                // S0ÍĽĎńµÄ×óÉĎ·˝Y×ř±ę
;;;6236   ,unsigned long Des_Addr            // ÄżµÄÍĽĎńµÄÄÚ´ćĆđĘĽµŘÖ·
;;;6237   ,unsigned short Des_W              // ÄżµÄÍĽĎńµÄżí¶Č
;;;6238   , unsigned short XDes              // ÄżµÄÍĽĎńµÄ×óÉĎ·˝X×ř±ę
;;;6239   ,unsigned short YDes               // ÄżµÄÍĽĎńµÄ×óÉĎ·˝X×ř±ę
;;;6240   ,unsigned int ROP_Code             // ąâŐ¤˛Ů×÷ÄŁĘ˝
;;;6241   /*ROP_Code :
;;;6242      0000b		0(Blackness)
;;;6243      0001b		~S0!E~S1 or ~(S0+S1)
;;;6244      0010b		~S0!ES1
;;;6245      0011b		~S0
;;;6246      0100b		S0!E~S1
;;;6247      0101b		~S1
;;;6248      0110b		S0^S1
;;;6249      0111b		~S0 + ~S1 or ~(S0 + S1)
;;;6250      1000b		S0!ES1
;;;6251      1001b		~(S0^S1)
;;;6252      1010b		S1
;;;6253      1011b		~S0+S1
;;;6254      1100b		S0
;;;6255      1101b		S0+~S1
;;;6256      1110b		S0+S1
;;;6257      1111b		1(whiteness)*/
;;;6258   ,unsigned short X_W                // »î¶Ż´°żÚµÄżí¶Č
;;;6259   ,unsigned short Y_H                // »î¶Ż´°żÚµÄł¤¶Č
;;;6260   )
;;;6261   {
0035ba  4604              MOV      r4,r0
0035bc  e9ddab0a          LDRD     r10,r11,[sp,#0x28]
0035c0  f8dd9024          LDR      r9,[sp,#0x24]
0035c4  9d0e              LDR      r5,[sp,#0x38]
0035c6  460e              MOV      r6,r1
0035c8  4617              MOV      r7,r2
0035ca  4698              MOV      r8,r3
;;;6262   	if(P_8x8_or_16x16 == 0)
0035cc  2c00              CMP      r4,#0
0035ce  d101              BNE      |L1.13780|
;;;6263     {
;;;6264   		Pattern_Format_8X8();
0035d0  f7fffffe          BL       Pattern_Format_8X8
                  |L1.13780|
;;;6265     }
;;;6266     if(P_8x8_or_16x16 == 1)
0035d4  2c01              CMP      r4,#1
0035d6  d101              BNE      |L1.13788|
;;;6267     {														    
;;;6268   		Pattern_Format_16X16();
0035d8  f7fffffe          BL       Pattern_Format_16X16
                  |L1.13788|
;;;6269     }	
;;;6270   	
;;;6271   	BTE_S0_Color_16bpp();
0035dc  f7fffffe          BL       BTE_S0_Color_16bpp
;;;6272     BTE_S0_Memory_Start_Address(S0_Addr);
0035e0  4630              MOV      r0,r6
0035e2  f7fffffe          BL       BTE_S0_Memory_Start_Address
;;;6273     BTE_S0_Image_Width(S0_W);
0035e6  4638              MOV      r0,r7
0035e8  f7fffffe          BL       BTE_S0_Image_Width
;;;6274     BTE_S0_Window_Start_XY(XS0,YS0);
0035ec  4649              MOV      r1,r9
0035ee  4640              MOV      r0,r8
0035f0  f7fffffe          BL       BTE_S0_Window_Start_XY
;;;6275   
;;;6276   	BTE_Destination_Color_16bpp();
0035f4  f7fffffe          BL       BTE_Destination_Color_16bpp
;;;6277     BTE_Destination_Memory_Start_Address(Des_Addr);
0035f8  4650              MOV      r0,r10
0035fa  f7fffffe          BL       BTE_Destination_Memory_Start_Address
;;;6278     BTE_Destination_Image_Width(Des_W);
0035fe  4658              MOV      r0,r11
003600  f7fffffe          BL       BTE_Destination_Image_Width
;;;6279     BTE_Destination_Window_Start_XY(XDes,YDes);	
003604  e9dd010c          LDRD     r0,r1,[sp,#0x30]
003608  f7fffffe          BL       BTE_Destination_Window_Start_XY
;;;6280      
;;;6281     BTE_ROP_Code(ROP_Code);	
00360c  b2e8              UXTB     r0,r5
00360e  f7fffffe          BL       BTE_ROP_Code
;;;6282     BTE_Operation_Code(0x06); //BTE Operation: Pattern Fill with ROP.
003612  2006              MOVS     r0,#6
003614  f7fffffe          BL       BTE_Operation_Code
;;;6283     BTE_Window_Size(X_W,Y_H); 
003618  e9dd010f          LDRD     r0,r1,[sp,#0x3c]
00361c  f7fffffe          BL       BTE_Window_Size
;;;6284     BTE_Enable();
003620  f7fffffe          BL       BTE_Enable
;;;6285     Check_BTE_Busy();
003624  e8bd4ff0          POP      {r4-r11,lr}
003628  f7ffbffe          B.W      Check_BTE_Busy
;;;6286   }
;;;6287   
                          ENDP

                  LT768_BTE_Pattern_Fill_With_Chroma_key PROC
;;;6289   
;;;6290   void LT768_BTE_Pattern_Fill_With_Chroma_key
00362c  e92d4ff0          PUSH     {r4-r11,lr}
;;;6291   (
;;;6292    unsigned char P_8x8_or_16x16      // 0 : use 8x8 Icon , 1 : use 16x16 Icon.
;;;6293   ,unsigned long S0_Addr             // SOÍĽĎńµÄÄÚ´ćĆđĘĽµŘÖ·
;;;6294   ,unsigned short S0_W               // S0ÍĽĎńµÄżí¶Č
;;;6295   ,unsigned short XS0                // S0ÍĽĎńµÄ×óÉĎ·˝X×ř±ę
;;;6296   ,unsigned short YS0                // S0ÍĽĎńµÄ×óÉĎ·˝Y×ř±ę
;;;6297   ,unsigned long Des_Addr            // ÄżµÄÍĽĎńµÄÄÚ´ćĆđĘĽµŘÖ·
;;;6298   ,unsigned short Des_W              // ÄżµÄÍĽĎńµÄżí¶Č
;;;6299   ,unsigned short XDes               // ÄżµÄÍĽĎńµÄ×óÉĎ·˝X×ř±ę
;;;6300   ,unsigned short YDes               // ÄżµÄÍĽĎńµÄ×óÉĎ·˝Y×ř±ę
;;;6301   ,unsigned int ROP_Code             // ąâŐ¤˛Ů×÷ÄŁĘ˝
;;;6302   /*ROP_Code :
;;;6303      0000b		0(Blackness)
;;;6304      0001b		~S0!E~S1 or ~(S0+S1)
;;;6305      0010b		~S0!ES1
;;;6306      0011b		~S0
;;;6307      0100b		S0!E~S1
;;;6308      0101b		~S1
;;;6309      0110b		S0^S1
;;;6310      0111b		~S0 + ~S1 or ~(S0 + S1)
;;;6311      1000b		S0!ES1
;;;6312      1001b		~(S0^S1)
;;;6313      1010b		S1
;;;6314      1011b		~S0+S1
;;;6315      1100b		S0
;;;6316      1101b		S0+~S1
;;;6317      1110b		S0+S1
;;;6318      1111b		1(whiteness)*/
;;;6319   ,unsigned long Background_color   // Í¸Ă÷É«
;;;6320   ,unsigned short X_W               // »î¶Ż´°żÚµÄżí¶Č
;;;6321   ,unsigned short Y_H               // »î¶Ż´°żÚµÄł¤¶Č
;;;6322   )
;;;6323   {
003630  4604              MOV      r4,r0
003632  e9ddab0a          LDRD     r10,r11,[sp,#0x28]
003636  e9dd500e          LDRD     r5,r0,[sp,#0x38]
00363a  f8dd9024          LDR      r9,[sp,#0x24]
00363e  460e              MOV      r6,r1
003640  4617              MOV      r7,r2
003642  4698              MOV      r8,r3
;;;6324   	Background_color_65k(Background_color);
003644  b280              UXTH     r0,r0
003646  f7fffffe          BL       Background_color_65k
;;;6325   	
;;;6326   	if(P_8x8_or_16x16 == 0)
00364a  b90c              CBNZ     r4,|L1.13904|
;;;6327     {
;;;6328     Pattern_Format_8X8();
00364c  f7fffffe          BL       Pattern_Format_8X8
                  |L1.13904|
;;;6329      }
;;;6330     if(P_8x8_or_16x16 == 1)
003650  2c01              CMP      r4,#1
003652  d101              BNE      |L1.13912|
;;;6331     {														    
;;;6332     Pattern_Format_16X16();
003654  f7fffffe          BL       Pattern_Format_16X16
                  |L1.13912|
;;;6333     }	  
;;;6334   	
;;;6335   	BTE_S0_Color_16bpp();
003658  f7fffffe          BL       BTE_S0_Color_16bpp
;;;6336     BTE_S0_Memory_Start_Address(S0_Addr);
00365c  4630              MOV      r0,r6
00365e  f7fffffe          BL       BTE_S0_Memory_Start_Address
;;;6337     BTE_S0_Image_Width(S0_W);
003662  4638              MOV      r0,r7
003664  f7fffffe          BL       BTE_S0_Image_Width
;;;6338     BTE_S0_Window_Start_XY(XS0,YS0);
003668  4649              MOV      r1,r9
00366a  4640              MOV      r0,r8
00366c  f7fffffe          BL       BTE_S0_Window_Start_XY
;;;6339   
;;;6340   	BTE_Destination_Color_16bpp();
003670  f7fffffe          BL       BTE_Destination_Color_16bpp
;;;6341     BTE_Destination_Memory_Start_Address(Des_Addr);
003674  4650              MOV      r0,r10
003676  f7fffffe          BL       BTE_Destination_Memory_Start_Address
;;;6342     BTE_Destination_Image_Width(Des_W);
00367a  4658              MOV      r0,r11
00367c  f7fffffe          BL       BTE_Destination_Image_Width
;;;6343     BTE_Destination_Window_Start_XY(XDes,YDes);	
003680  e9dd010c          LDRD     r0,r1,[sp,#0x30]
003684  f7fffffe          BL       BTE_Destination_Window_Start_XY
;;;6344      
;;;6345     BTE_ROP_Code(ROP_Code);	
003688  b2e8              UXTB     r0,r5
00368a  f7fffffe          BL       BTE_ROP_Code
;;;6346     BTE_Operation_Code(0x07); //BTE Operation: Pattern Fill with Chroma key.
00368e  2007              MOVS     r0,#7
003690  f7fffffe          BL       BTE_Operation_Code
;;;6347     BTE_Window_Size(X_W,Y_H); 
003694  e9dd0110          LDRD     r0,r1,[sp,#0x40]
003698  f7fffffe          BL       BTE_Window_Size
;;;6348     BTE_Enable();
00369c  f7fffffe          BL       BTE_Enable
;;;6349     Check_BTE_Busy();
0036a0  e8bd4ff0          POP      {r4-r11,lr}
0036a4  f7ffbffe          B.W      Check_BTE_Busy
;;;6350   }
;;;6351   
                          ENDP

                  LT768_BTE_MCU_Write_MCU_16bit PROC
;;;6352   void LT768_BTE_MCU_Write_MCU_16bit
0036a8  e92d4ff0          PUSH     {r4-r11,lr}
;;;6353   (
;;;6354    unsigned long S1_Addr              // S1ÍĽĎńµÄÄÚ´ćĆđĘĽµŘÖ·
;;;6355   ,unsigned short S1_W                // S1ÍĽĎńµÄżí¶Č
;;;6356   ,unsigned short XS1                 // S1ÍĽĎńµÄ×óÉĎ·˝X×ř±ę
;;;6357   ,unsigned short YS1                 // S1ÍĽĎńµÄ×óÉĎ·˝Y×ř±ę
;;;6358   ,unsigned long Des_Addr             // ÄżµÄÍĽĎńµÄÄÚ´ćĆđĘĽµŘÖ·
;;;6359   ,unsigned short Des_W               // ÄżµÄÍĽĎńµÄżí¶Č
;;;6360   ,unsigned short XDes                // ÄżµÄÍĽĎńµÄ×óÉĎ·˝X×ř±ę
;;;6361   ,unsigned short YDes                // ÄżµÄÍĽĎńµÄ×óÉĎ·˝Y×ř±ę
;;;6362   ,unsigned int ROP_Code              // ąâŐ¤˛Ů×÷ÄŁĘ˝ 
;;;6363   /*ROP_Code :
;;;6364      0000b		0(Blackness)
;;;6365      0001b		~S0!E~S1 or ~(S0+S1)
;;;6366      0010b		~S0!ES1
;;;6367      0011b		~S0
;;;6368      0100b		S0!E~S1
;;;6369      0101b		~S1
;;;6370      0110b		S0^S1
;;;6371      0111b		~S0 + ~S1 or ~(S0 + S1)
;;;6372      1000b		S0!ES1
;;;6373      1001b		~(S0^S1)
;;;6374      1010b		S1
;;;6375      1011b		~S0+S1
;;;6376      1100b		S0
;;;6377      1101b		S0+~S1
;;;6378      1110b		S0+S1
;;;6379      1111b		1(whiteness)*/
;;;6380   ,unsigned short X_W                 // »î¶Ż´°żÚµÄżí¶Č
;;;6381   ,unsigned short Y_H                 // »î¶Ż´°żÚµÄł¤¶Č
;;;6382   ,const unsigned short *data         // S0µÄĘýľÝĘŐµŘÖ·
;;;6383   )
;;;6384   {
0036ac  4682              MOV      r10,r0
0036ae  e9dd560e          LDRD     r5,r6,[sp,#0x38]
0036b2  460f              MOV      r7,r1
0036b4  4690              MOV      r8,r2
0036b6  4699              MOV      r9,r3
0036b8  f8ddb024          LDR      r11,[sp,#0x24]
0036bc  9c10              LDR      r4,[sp,#0x40]
;;;6385   	unsigned short i,j;
;;;6386   
;;;6387   	BTE_S1_Color_16bpp();
0036be  f7fffffe          BL       BTE_S1_Color_16bpp
;;;6388     BTE_S1_Memory_Start_Address(S1_Addr);
0036c2  4650              MOV      r0,r10
0036c4  f7fffffe          BL       BTE_S1_Memory_Start_Address
;;;6389     BTE_S1_Image_Width(S1_W); 
0036c8  4638              MOV      r0,r7
0036ca  f7fffffe          BL       BTE_S1_Image_Width
;;;6390     BTE_S1_Window_Start_XY(XS1,YS1);
0036ce  4649              MOV      r1,r9
0036d0  4640              MOV      r0,r8
0036d2  f7fffffe          BL       BTE_S1_Window_Start_XY
;;;6391   
;;;6392   	BTE_Destination_Color_16bpp();
0036d6  f7fffffe          BL       BTE_Destination_Color_16bpp
;;;6393     BTE_Destination_Memory_Start_Address(Des_Addr);
0036da  4658              MOV      r0,r11
0036dc  f7fffffe          BL       BTE_Destination_Memory_Start_Address
;;;6394     BTE_Destination_Image_Width(Des_W);
0036e0  980a              LDR      r0,[sp,#0x28]
0036e2  f7fffffe          BL       BTE_Destination_Image_Width
;;;6395     BTE_Destination_Window_Start_XY(XDes,YDes);
0036e6  e9dd010b          LDRD     r0,r1,[sp,#0x2c]
0036ea  f7fffffe          BL       BTE_Destination_Window_Start_XY
;;;6396     
;;;6397     BTE_Window_Size(X_W,Y_H);
0036ee  4631              MOV      r1,r6
0036f0  4628              MOV      r0,r5
0036f2  f7fffffe          BL       BTE_Window_Size
;;;6398     BTE_ROP_Code(ROP_Code);
0036f6  980d              LDR      r0,[sp,#0x34]
0036f8  b2c0              UXTB     r0,r0
0036fa  f7fffffe          BL       BTE_ROP_Code
;;;6399     BTE_Operation_Code(0x00);		//BTE Operation: MPU Write with ROP.
0036fe  2000              MOVS     r0,#0
003700  f7fffffe          BL       BTE_Operation_Code
;;;6400     BTE_Enable();
003704  f7fffffe          BL       BTE_Enable
;;;6401   	
;;;6402   	BTE_S0_Color_16bpp();
003708  f7fffffe          BL       BTE_S0_Color_16bpp
;;;6403   	LCD_CmdWrite(0x04);				 		//Memory Data Read/Write Port
00370c  2004              MOVS     r0,#4
00370e  f7fffffe          BL       LCD_CmdWrite
;;;6404   	
;;;6405   	//MCU_16bit_ColorDepth_16bpp
;;;6406   	for(i=0;i< Y_H;i++)
003712  2300              MOVS     r3,#0
003714  e00d              B        |L1.14130|
                  |L1.14102|
;;;6407   	{	
;;;6408   		for(j=0;j< (X_W);j++)
003716  2200              MOVS     r2,#0
003718  e007              B        |L1.14122|
                  |L1.14106|
;;;6409    	  {
;;;6410   			Check_Mem_WR_FIFO_not_Full();
00371a  f7fffffe          BL       Check_Mem_WR_FIFO_not_Full
;;;6411   			LCD_DataWrite_Pixel((*data));
00371e  8820              LDRH     r0,[r4,#0]
003720  f7fffffe          BL       LCD_DataWrite_Pixel
;;;6412   			data++;
003724  1ca4              ADDS     r4,r4,#2
003726  1c52              ADDS     r2,r2,#1              ;6408
003728  b292              UXTH     r2,r2                 ;6408
                  |L1.14122|
00372a  42aa              CMP      r2,r5                 ;6408
00372c  d3f5              BCC      |L1.14106|
00372e  1c5b              ADDS     r3,r3,#1              ;6406
003730  b29b              UXTH     r3,r3                 ;6406
                  |L1.14130|
003732  42b3              CMP      r3,r6                 ;6406
003734  d3ef              BCC      |L1.14102|
;;;6413   	  }
;;;6414     }
;;;6415     Check_Mem_WR_FIFO_Empty();
003736  f7fffffe          BL       Check_Mem_WR_FIFO_Empty
;;;6416   	Check_BTE_Busy();
00373a  e8bd4ff0          POP      {r4-r11,lr}
00373e  f7ffbffe          B.W      Check_BTE_Busy
;;;6417   }
;;;6418   
                          ENDP

                  LT768_BTE_MCU_Write_Chroma_key_MCU_16bit PROC
;;;6420   
;;;6421   void LT768_BTE_MCU_Write_Chroma_key_MCU_16bit
003742  e92d47f0          PUSH     {r4-r10,lr}
;;;6422   (
;;;6423    unsigned long Des_Addr                 // ÄżµÄÍĽĎńµÄÄÚ´ćĆđĘĽµŘÖ·
;;;6424   ,unsigned short Des_W                   // ÄżµÄÍĽĎńµÄżí¶Č
;;;6425   ,unsigned short XDes                    // ÄżµÄÍĽĎńµÄ×óÉĎ·˝X×ř±ę
;;;6426   ,unsigned short YDes                    // ÄżµÄÍĽĎńµÄ×óÉĎ·˝Y×ř±ę
;;;6427   ,unsigned long Background_color         // Í¸Ă÷É«
;;;6428   ,unsigned short X_W                     // »î¶Ż´°żÚµÄżí¶Č
;;;6429   ,unsigned short Y_H                     // »î¶Ż´°żÚµÄł¤¶Č
;;;6430   ,const unsigned short *data             // S0µÄĘýľÝĘŐµŘÖ·
;;;6431   )
;;;6432   {
003746  4682              MOV      r10,r0
003748  a808              ADD      r0,sp,#0x20
00374a  9c0b              LDR      r4,[sp,#0x2c]
00374c  c861              LDM      r0,{r0,r5,r6}
00374e  460f              MOV      r7,r1
003750  4690              MOV      r8,r2
003752  4699              MOV      r9,r3
;;;6433   	unsigned int i,j;
;;;6434   	
;;;6435   	Background_color_65k(Background_color);
003754  b280              UXTH     r0,r0
003756  f7fffffe          BL       Background_color_65k
;;;6436   	
;;;6437   	BTE_Destination_Color_16bpp();
00375a  f7fffffe          BL       BTE_Destination_Color_16bpp
;;;6438   	BTE_Destination_Memory_Start_Address(Des_Addr);
00375e  4650              MOV      r0,r10
003760  f7fffffe          BL       BTE_Destination_Memory_Start_Address
;;;6439     BTE_Destination_Image_Width(Des_W);
003764  4638              MOV      r0,r7
003766  f7fffffe          BL       BTE_Destination_Image_Width
;;;6440     BTE_Destination_Window_Start_XY(XDes,YDes);
00376a  4649              MOV      r1,r9
00376c  4640              MOV      r0,r8
00376e  f7fffffe          BL       BTE_Destination_Window_Start_XY
;;;6441     
;;;6442     BTE_Window_Size(X_W,Y_H);
003772  4631              MOV      r1,r6
003774  4628              MOV      r0,r5
003776  f7fffffe          BL       BTE_Window_Size
;;;6443     BTE_Operation_Code(0x04);		//BTE Operation: MPU Write with chroma keying (w/o ROP)
00377a  2004              MOVS     r0,#4
00377c  f7fffffe          BL       BTE_Operation_Code
;;;6444     BTE_Enable();
003780  f7fffffe          BL       BTE_Enable
;;;6445   	
;;;6446   	BTE_S0_Color_16bpp();
003784  f7fffffe          BL       BTE_S0_Color_16bpp
;;;6447     LCD_CmdWrite(0x04);			//Memory Data Read/Write Port
003788  2004              MOVS     r0,#4
00378a  f7fffffe          BL       LCD_CmdWrite
;;;6448   	
;;;6449   	//MCU_16bit_ColorDepth_16bpp
;;;6450   	for(i=0;i< Y_H;i++)
00378e  2300              MOVS     r3,#0
003790  e00b              B        |L1.14250|
                  |L1.14226|
;;;6451   	{	
;;;6452   		for(j=0;j< (X_W);j++)
003792  2200              MOVS     r2,#0
003794  e006              B        |L1.14244|
                  |L1.14230|
;;;6453    	  {
;;;6454   			Check_Mem_WR_FIFO_not_Full();
003796  f7fffffe          BL       Check_Mem_WR_FIFO_not_Full
;;;6455   			LCD_DataWrite_Pixel((*data));
00379a  8820              LDRH     r0,[r4,#0]
00379c  f7fffffe          BL       LCD_DataWrite_Pixel
;;;6456   			data++;
0037a0  1ca4              ADDS     r4,r4,#2
0037a2  1c52              ADDS     r2,r2,#1              ;6452
                  |L1.14244|
0037a4  42aa              CMP      r2,r5                 ;6452
0037a6  d3f6              BCC      |L1.14230|
0037a8  1c5b              ADDS     r3,r3,#1              ;6450
                  |L1.14250|
0037aa  42b3              CMP      r3,r6                 ;6450
0037ac  d3f1              BCC      |L1.14226|
;;;6457   	  }
;;;6458     }
;;;6459     Check_Mem_WR_FIFO_Empty();
0037ae  f7fffffe          BL       Check_Mem_WR_FIFO_Empty
;;;6460   	Check_BTE_Busy();
0037b2  e8bd47f0          POP      {r4-r10,lr}
0037b6  f7ffbffe          B.W      Check_BTE_Busy
;;;6461   }
;;;6462   
                          ENDP

                  LT768_BTE_MCU_Write_ColorExpansion_MCU_16bit PROC
;;;6465   /* ˝áşĎŔ©ŐąÉ«˛ĘµÄ MPU Ś‘Čë */
;;;6466   void LT768_BTE_MCU_Write_ColorExpansion_MCU_16bit
0037ba  e92d47f0          PUSH     {r4-r10,lr}
;;;6467   (
;;;6468    unsigned long Des_Addr               //start address of Destination
;;;6469   ,unsigned short Des_W                 //image width of Destination (recommend = canvas image width)
;;;6470   ,unsigned short XDes                  //coordinate X of Destination
;;;6471   ,unsigned short YDes                  //coordinate Y of Destination
;;;6472   ,unsigned short X_W                   //Width of BTE Window
;;;6473   ,unsigned short Y_H                   //Length of BTE Window
;;;6474   ,unsigned long Foreground_color 
;;;6475   /*Foreground_color : The source (1bit map picture) map data 1 translate to Foreground color by color expansion*/
;;;6476   ,unsigned long Background_color 
;;;6477   /*Background_color : The source (1bit map picture) map data 0 translate to Background color by color expansion*/
;;;6478   ,const unsigned short *data           //16-bit data
;;;6479   )
;;;6480   {
0037be  4690              MOV      r8,r2
0037c0  aa0a              ADD      r2,sp,#0x28
0037c2  4699              MOV      r9,r3
0037c4  e9dd5608          LDRD     r5,r6,[sp,#0x20]
0037c8  ca1c              LDM      r2,{r2-r4}
0037ca  4682              MOV      r10,r0
0037cc  460f              MOV      r7,r1
;;;6481   	unsigned short i,j;
;;;6482   	
;;;6483   	RGB_16b_16bpp();
0037ce  f7fffffe          BL       RGB_16b_16bpp
;;;6484     Foreground_color_65k(Foreground_color);
0037d2  b290              UXTH     r0,r2
0037d4  f7fffffe          BL       Foreground_color_65k
;;;6485     Background_color_65k(Background_color);
0037d8  b298              UXTH     r0,r3
0037da  f7fffffe          BL       Background_color_65k
;;;6486   	BTE_ROP_Code(15);
0037de  200f              MOVS     r0,#0xf
0037e0  f7fffffe          BL       BTE_ROP_Code
;;;6487   	
;;;6488   	BTE_Destination_Color_16bpp();
0037e4  f7fffffe          BL       BTE_Destination_Color_16bpp
;;;6489   	BTE_Destination_Memory_Start_Address(Des_Addr);
0037e8  4650              MOV      r0,r10
0037ea  f7fffffe          BL       BTE_Destination_Memory_Start_Address
;;;6490     BTE_Destination_Image_Width(Des_W);
0037ee  4638              MOV      r0,r7
0037f0  f7fffffe          BL       BTE_Destination_Image_Width
;;;6491     BTE_Destination_Window_Start_XY(XDes,YDes);
0037f4  4649              MOV      r1,r9
0037f6  4640              MOV      r0,r8
0037f8  f7fffffe          BL       BTE_Destination_Window_Start_XY
;;;6492   	
;;;6493   
;;;6494     BTE_Window_Size(X_W,Y_H);
0037fc  4631              MOV      r1,r6
0037fe  4628              MOV      r0,r5
003800  f7fffffe          BL       BTE_Window_Size
;;;6495     BTE_Operation_Code(0x8);		//BTE Operation: MPU Write with Color Expansion (w/o ROP)
003804  2008              MOVS     r0,#8
003806  f7fffffe          BL       BTE_Operation_Code
;;;6496     BTE_Enable();
00380a  f7fffffe          BL       BTE_Enable
;;;6497   	
;;;6498   	LCD_CmdWrite(0x04);				 		//Memory Data Read/Write Port  
00380e  2004              MOVS     r0,#4
003810  f7fffffe          BL       LCD_CmdWrite
;;;6499   	for(i=0;i< Y_H;i++)
003814  2300              MOVS     r3,#0
003816  e00e              B        |L1.14390|
                  |L1.14360|
;;;6500     {	
;;;6501   	  for(j=0;j< X_W/16;j++)
003818  2200              MOVS     r2,#0
00381a  e007              B        |L1.14380|
                  |L1.14364|
;;;6502    	  {
;;;6503   	    Check_Mem_WR_FIFO_not_Full();
00381c  f7fffffe          BL       Check_Mem_WR_FIFO_not_Full
;;;6504   		  LCD_DataWrite_Pixel(*data);  
003820  8820              LDRH     r0,[r4,#0]
003822  f7fffffe          BL       LCD_DataWrite_Pixel
;;;6505   	    data++;
003826  1ca4              ADDS     r4,r4,#2
003828  1c52              ADDS     r2,r2,#1              ;6501
00382a  b292              UXTH     r2,r2                 ;6501
                  |L1.14380|
00382c  ebb21f15          CMP      r2,r5,LSR #4          ;6501
003830  d3f4              BCC      |L1.14364|
003832  1c5b              ADDS     r3,r3,#1              ;6499
003834  b29b              UXTH     r3,r3                 ;6499
                  |L1.14390|
003836  42b3              CMP      r3,r6                 ;6499
003838  d3ee              BCC      |L1.14360|
;;;6506   	  }
;;;6507     }
;;;6508     Check_Mem_WR_FIFO_Empty();
00383a  f7fffffe          BL       Check_Mem_WR_FIFO_Empty
;;;6509   	Check_BTE_Busy();
00383e  e8bd47f0          POP      {r4-r10,lr}
003842  f7ffbffe          B.W      Check_BTE_Busy
;;;6510   }
;;;6511   
                          ENDP

                  LT768_BTE_MCU_Write_ColorExpansion_Chroma_key_MCU_16bit PROC
;;;6514   /* ˝áşĎŔ©ŐąÉ«˛ĘÓë Chroma key µÄ MPU Ś‘Čë */
;;;6515   void LT768_BTE_MCU_Write_ColorExpansion_Chroma_key_MCU_16bit
003846  e92d47f0          PUSH     {r4-r10,lr}
;;;6516   (
;;;6517    unsigned long Des_Addr //start address of Destination
;;;6518   ,unsigned short Des_W //image width of Destination (recommend = canvas image width)
;;;6519   ,unsigned short XDes //coordinate X of Destination
;;;6520   ,unsigned short YDes //coordinate Y of Destination
;;;6521   ,unsigned short X_W //Width of BTE Window
;;;6522   ,unsigned short Y_H //Length of BTE Window
;;;6523   ,unsigned long Foreground_color
;;;6524   /*Foreground_color : The source (1bit map picture) map data 1 translate to Foreground color by color expansion*/
;;;6525   ,const unsigned short *data //16-bit data
;;;6526   )
;;;6527   {
00384a  4690              MOV      r8,r2
00384c  e9dd5608          LDRD     r5,r6,[sp,#0x20]
003850  e9dd240a          LDRD     r2,r4,[sp,#0x28]
003854  4682              MOV      r10,r0
003856  460f              MOV      r7,r1
003858  4699              MOV      r9,r3
;;;6528   	unsigned short i,j;
;;;6529   	
;;;6530   	RGB_16b_16bpp();
00385a  f7fffffe          BL       RGB_16b_16bpp
;;;6531     Foreground_color_65k(Foreground_color);
00385e  b290              UXTH     r0,r2
003860  f7fffffe          BL       Foreground_color_65k
;;;6532   	BTE_ROP_Code(15);
003864  200f              MOVS     r0,#0xf
003866  f7fffffe          BL       BTE_ROP_Code
;;;6533   	
;;;6534   	BTE_Destination_Color_16bpp();
00386a  f7fffffe          BL       BTE_Destination_Color_16bpp
;;;6535   	BTE_Destination_Memory_Start_Address(Des_Addr);
00386e  4650              MOV      r0,r10
003870  f7fffffe          BL       BTE_Destination_Memory_Start_Address
;;;6536     BTE_Destination_Image_Width(Des_W);
003874  4638              MOV      r0,r7
003876  f7fffffe          BL       BTE_Destination_Image_Width
;;;6537     BTE_Destination_Window_Start_XY(XDes,YDes);
00387a  4649              MOV      r1,r9
00387c  4640              MOV      r0,r8
00387e  f7fffffe          BL       BTE_Destination_Window_Start_XY
;;;6538   	
;;;6539   
;;;6540     BTE_Window_Size(X_W,Y_H);
003882  4631              MOV      r1,r6
003884  4628              MOV      r0,r5
003886  f7fffffe          BL       BTE_Window_Size
;;;6541   	BTE_Operation_Code(0x9);		//BTE Operation: MPU Write with Color Expansion and chroma keying (w/o ROP)
00388a  2009              MOVS     r0,#9
00388c  f7fffffe          BL       BTE_Operation_Code
;;;6542     BTE_Enable();
003890  f7fffffe          BL       BTE_Enable
;;;6543   	
;;;6544   	LCD_CmdWrite(0x04);				 		//Memory Data Read/Write Port  
003894  2004              MOVS     r0,#4
003896  f7fffffe          BL       LCD_CmdWrite
;;;6545   	for(i=0;i< Y_H;i++)
00389a  2300              MOVS     r3,#0
00389c  e00e              B        |L1.14524|
                  |L1.14494|
;;;6546     {	
;;;6547   	  for(j=0;j< X_W/16;j++)
00389e  2200              MOVS     r2,#0
0038a0  e007              B        |L1.14514|
                  |L1.14498|
;;;6548    	  {
;;;6549   	    Check_Mem_WR_FIFO_not_Full();
0038a2  f7fffffe          BL       Check_Mem_WR_FIFO_not_Full
;;;6550   		  LCD_DataWrite_Pixel(*data);  
0038a6  8820              LDRH     r0,[r4,#0]
0038a8  f7fffffe          BL       LCD_DataWrite_Pixel
;;;6551   	    data++;
0038ac  1ca4              ADDS     r4,r4,#2
0038ae  1c52              ADDS     r2,r2,#1              ;6547
0038b0  b292              UXTH     r2,r2                 ;6547
                  |L1.14514|
0038b2  ebb21f15          CMP      r2,r5,LSR #4          ;6547
0038b6  d3f4              BCC      |L1.14498|
0038b8  1c5b              ADDS     r3,r3,#1              ;6545
0038ba  b29b              UXTH     r3,r3                 ;6545
                  |L1.14524|
0038bc  42b3              CMP      r3,r6                 ;6545
0038be  d3ee              BCC      |L1.14494|
;;;6552   	  }
;;;6553     }
;;;6554     Check_Mem_WR_FIFO_Empty();
0038c0  f7fffffe          BL       Check_Mem_WR_FIFO_Empty
;;;6555   	Check_BTE_Busy();
0038c4  e8bd47f0          POP      {r4-r10,lr}
0038c8  f7ffbffe          B.W      Check_BTE_Busy
;;;6556   }
;;;6557   
                          ENDP

                  BTE_Alpha_Blending PROC
;;;6574   */
;;;6575   void BTE_Alpha_Blending
0038cc  e92d4ff0          PUSH     {r4-r11,lr}
;;;6576   (
;;;6577    unsigned long S0_Addr
;;;6578    ,unsigned short S0_W
;;;6579    ,unsigned short XS0
;;;6580    ,unsigned short YS0
;;;6581    ,unsigned long S1_Addr
;;;6582    ,unsigned short S1_W
;;;6583    ,unsigned short XS1
;;;6584    ,unsigned short YS1
;;;6585    ,unsigned long Des_Addr
;;;6586    ,unsigned short Des_W
;;;6587    ,unsigned short XDes
;;;6588    ,unsigned short YDes
;;;6589    ,unsigned short X_W
;;;6590    ,unsigned short Y_H
;;;6591    ,unsigned char alpha
;;;6592   )
;;;6593   {	
0038d0  4607              MOV      r7,r0
0038d2  e9ddab0b          LDRD     r10,r11,[sp,#0x2c]
0038d6  e9dd8909          LDRD     r8,r9,[sp,#0x24]
0038da  460c              MOV      r4,r1
0038dc  4615              MOV      r5,r2
0038de  461e              MOV      r6,r3
;;;6594   	BTE_S0_Color_16bpp();
0038e0  f7fffffe          BL       BTE_S0_Color_16bpp
;;;6595     BTE_S0_Memory_Start_Address(S0_Addr);
0038e4  4638              MOV      r0,r7
0038e6  f7fffffe          BL       BTE_S0_Memory_Start_Address
;;;6596     BTE_S0_Image_Width(S0_W);
0038ea  4620              MOV      r0,r4
0038ec  f7fffffe          BL       BTE_S0_Image_Width
;;;6597     BTE_S0_Window_Start_XY(XS0,YS0);
0038f0  4631              MOV      r1,r6
0038f2  4628              MOV      r0,r5
0038f4  f7fffffe          BL       BTE_S0_Window_Start_XY
;;;6598   
;;;6599   	BTE_S1_Color_16bpp();
0038f8  f7fffffe          BL       BTE_S1_Color_16bpp
;;;6600     BTE_S1_Memory_Start_Address(S1_Addr);
0038fc  4640              MOV      r0,r8
0038fe  f7fffffe          BL       BTE_S1_Memory_Start_Address
;;;6601     BTE_S1_Image_Width(S1_W); 
003902  4648              MOV      r0,r9
003904  f7fffffe          BL       BTE_S1_Image_Width
;;;6602     BTE_S1_Window_Start_XY(XS1,YS1);
003908  4659              MOV      r1,r11
00390a  4650              MOV      r0,r10
00390c  f7fffffe          BL       BTE_S1_Window_Start_XY
;;;6603   
;;;6604   	BTE_Destination_Color_16bpp();
003910  f7fffffe          BL       BTE_Destination_Color_16bpp
;;;6605     BTE_Destination_Memory_Start_Address(Des_Addr);
003914  980d              LDR      r0,[sp,#0x34]
003916  f7fffffe          BL       BTE_Destination_Memory_Start_Address
;;;6606     BTE_Destination_Image_Width(Des_W);
00391a  980e              LDR      r0,[sp,#0x38]
00391c  f7fffffe          BL       BTE_Destination_Image_Width
;;;6607     BTE_Destination_Window_Start_XY(XDes,YDes);
003920  e9dd010f          LDRD     r0,r1,[sp,#0x3c]
003924  f7fffffe          BL       BTE_Destination_Window_Start_XY
;;;6608   
;;;6609     BTE_Window_Size(X_W,Y_H);
003928  e9dd0111          LDRD     r0,r1,[sp,#0x44]
00392c  f7fffffe          BL       BTE_Window_Size
;;;6610     BTE_Operation_Code(0x0A);		//BTE Operation: Memory write with opacity (w/o ROP)
003930  200a              MOVS     r0,#0xa
003932  f7fffffe          BL       BTE_Operation_Code
;;;6611     BTE_Alpha_Blending_Effect(alpha);
003936  9813              LDR      r0,[sp,#0x4c]
003938  f7fffffe          BL       BTE_Alpha_Blending_Effect
;;;6612     BTE_Enable();
00393c  f7fffffe          BL       BTE_Enable
;;;6613     Check_BTE_Busy();
003940  e8bd4ff0          POP      {r4-r11,lr}
003944  f7ffbffe          B.W      Check_BTE_Busy
;;;6614   }
;;;6615   const int xs=20;
                          ENDP

                  Show PROC
;;;6623   
;;;6624   void Show(void)
003948  e92d4ffe          PUSH     {r1-r11,lr}
;;;6625   {
;;;6626   	uint16_t i,j;
;;;6627   	uint16_t yn;	
;;;6628     
;;;6629   	Select_Main_Window_16bpp();
00394c  f7fffffe          BL       Select_Main_Window_16bpp
;;;6630   	
;;;6631   	Canvas_Image_Start_address(layer2_start_addr);
003950  f44f1096          MOV      r0,#0x12c000
003954  f7fffffe          BL       Canvas_Image_Start_address
;;;6632   	Canvas_image_width(LCD_XSIZE_TFT);
003958  f44f6080          MOV      r0,#0x400
00395c  f7fffffe          BL       Canvas_image_width
;;;6633     Active_Window_XY(0,0);
003960  2100              MOVS     r1,#0
003962  4608              MOV      r0,r1
003964  f7fffffe          BL       Active_Window_XY
;;;6634   	Active_Window_WH(LCD_XSIZE_TFT,LCD_YSIZE_TFT);			
003968  f44f7116          MOV      r1,#0x258
00396c  f44f6080          MOV      r0,#0x400
003970  f7fffffe          BL       Active_Window_WH
;;;6635   	LT768_DrawSquare_Fill(0,0,1023,599,Blue2);
003974  f240501f          MOV      r0,#0x51f
003978  2100              MOVS     r1,#0
00397a  9000              STR      r0,[sp,#0]
00397c  f2402357          MOV      r3,#0x257
003980  f24032ff          MOV      r2,#0x3ff
003984  4608              MOV      r0,r1
003986  f7fffffe          BL       LT768_DrawSquare_Fill
;;;6636   	
;;;6637   	LT768_DrawCircleSquare_Fill( xs+100,ys,xs+250,ys+60,10,10,Red);//0x0806);
00398a  240a              MOVS     r4,#0xa
00398c  f44f4678          MOV      r6,#0xf800
003990  9400              STR      r4,[sp,#0]
003992  e9cd4601          STRD     r4,r6,[sp,#4]
003996  2350              MOVS     r3,#0x50
003998  f44f7287          MOV      r2,#0x10e
00399c  2114              MOVS     r1,#0x14
00399e  2078              MOVS     r0,#0x78
0039a0  f7fffffe          BL       LT768_DrawCircleSquare_Fill
;;;6638     LT768_DrawCircleSquare_Fill( xs,     ys+100, xs+100, ys+160,10,10,0x3f80);
0039a4  f44f557e          MOV      r5,#0x3f80
0039a8  9400              STR      r4,[sp,#0]
0039aa  2278              MOVS     r2,#0x78
0039ac  23b4              MOVS     r3,#0xb4
0039ae  4611              MOV      r1,r2
0039b0  2014              MOVS     r0,#0x14
0039b2  e9cd4501          STRD     r4,r5,[sp,#4]
0039b6  f7fffffe          BL       LT768_DrawCircleSquare_Fill
;;;6639     LT768_DrawCircleSquare_Fill( xs+160, ys+100, xs+260, ys+160,10,10,0x3f80);
0039ba  9400              STR      r4,[sp,#0]
0039bc  23b4              MOVS     r3,#0xb4
0039be  f44f778c          MOV      r7,#0x118
0039c2  463a              MOV      r2,r7
0039c4  2178              MOVS     r1,#0x78
0039c6  4618              MOV      r0,r3
0039c8  e9cd4501          STRD     r4,r5,[sp,#4]
0039cc  f7fffffe          BL       LT768_DrawCircleSquare_Fill
;;;6640   	LT768_DrawCircleSquare_Fill( xs+320, ys+100, xs+420, ys+160,10,10,0x3f80);
0039d0  9400              STR      r4,[sp,#0]
0039d2  f44f78dc          MOV      r8,#0x1b8
0039d6  f44f79aa          MOV      r9,#0x154
0039da  23b4              MOVS     r3,#0xb4
0039dc  4642              MOV      r2,r8
0039de  2178              MOVS     r1,#0x78
0039e0  4648              MOV      r0,r9
0039e2  e9cd4501          STRD     r4,r5,[sp,#4]
0039e6  f7fffffe          BL       LT768_DrawCircleSquare_Fill
;;;6641   	LT768_DrawCircleSquare_Fill( xs+320, ys+  0, xs+420, ys+ 60,10,10,0x3f80);
0039ea  9400              STR      r4,[sp,#0]
0039ec  2350              MOVS     r3,#0x50
0039ee  4642              MOV      r2,r8
0039f0  2114              MOVS     r1,#0x14
0039f2  4648              MOV      r0,r9
0039f4  e9cd4501          STRD     r4,r5,[sp,#4]
0039f8  f7fffffe          BL       LT768_DrawCircleSquare_Fill
;;;6642   	LT768_Select_Internal_Font_Init(32,1,1,1,0);
0039fc  2000              MOVS     r0,#0
0039fe  2301              MOVS     r3,#1
003a00  9000              STR      r0,[sp,#0]
003a02  461a              MOV      r2,r3
003a04  4619              MOV      r1,r3
003a06  2020              MOVS     r0,#0x20
003a08  f7fffffe          BL       LT768_Select_Internal_Font_Init
;;;6643   	LT768_Print_Internal_Font_String(xs+5,ys+120,Red,Green," Hhgh ");
003a0c  a0fe              ADR      r0,|L1.15880|
003a0e  f44f64fc          MOV      r4,#0x7e0
003a12  9000              STR      r0,[sp,#0]
003a14  4623              MOV      r3,r4
003a16  4632              MOV      r2,r6
003a18  218c              MOVS     r1,#0x8c
003a1a  2019              MOVS     r0,#0x19
003a1c  f7fffffe          BL       LT768_Print_Internal_Font_String
;;;6644   	LT768_Print_Internal_Font_String(xs+5+160,ys+120,Red,Green," Low ");
003a20  a0fb              ADR      r0,|L1.15888|
003a22  9000              STR      r0,[sp,#0]
003a24  4623              MOV      r3,r4
003a26  4632              MOV      r2,r6
003a28  218c              MOVS     r1,#0x8c
003a2a  20b9              MOVS     r0,#0xb9
003a2c  f7fffffe          BL       LT768_Print_Internal_Font_String
;;;6645   	LT768_Print_Internal_Font_String(xs+5+320,ys+120,Red,Green," quit ");
003a30  a0f9              ADR      r0,|L1.15896|
003a32  9000              STR      r0,[sp,#0]
003a34  4623              MOV      r3,r4
003a36  4632              MOV      r2,r6
003a38  218c              MOVS     r1,#0x8c
003a3a  f2401059          MOV      r0,#0x159
003a3e  f7fffffe          BL       LT768_Print_Internal_Font_String
;;;6646   	LT768_Print_Internal_Font_String(xs+5+320,ys+20,Red,Green,"P/flow");
003a42  a0f7              ADR      r0,|L1.15904|
003a44  9000              STR      r0,[sp,#0]
003a46  4623              MOV      r3,r4
003a48  4632              MOV      r2,r6
003a4a  2128              MOVS     r1,#0x28
003a4c  f2401059          MOV      r0,#0x159
003a50  f7fffffe          BL       LT768_Print_Internal_Font_String
;;;6647   	LT768_DrawSquare_Fill( xs+30,ys+240,xs+380,ys+260,White);			
003a54  f64f70ff          MOV      r0,#0xffff
003a58  f44f74c8          MOV      r4,#0x190
003a5c  9000              STR      r0,[sp,#0]
003a5e  463b              MOV      r3,r7
003a60  4622              MOV      r2,r4
003a62  f44f7182          MOV      r1,#0x104
003a66  2032              MOVS     r0,#0x32
003a68  f7fffffe          BL       LT768_DrawSquare_Fill
;;;6648   	/*-------------------------------------*/
;;;6649   	LT768_DrawSquare_Fill(  0, 400,799, 579,0x0f1f);		
003a6c  f640701f          MOV      r0,#0xf1f
003a70  9000              STR      r0,[sp,#0]
003a72  f2402343          MOV      r3,#0x243
003a76  f240321f          MOV      r2,#0x31f
003a7a  4621              MOV      r1,r4
003a7c  2000              MOVS     r0,#0
003a7e  f7fffffe          BL       LT768_DrawSquare_Fill
;;;6650   	
;;;6651   	for (i=0;i<8;i++)
003a82  2500              MOVS     r5,#0
003a84  f44f587e          MOV      r8,#0x3f80            ;6638
;;;6652   	    {
;;;6653   			 for (j=0;j<2;j++)
;;;6654   				   {
;;;6655   						 LT768_DrawCircleSquare_Fill( 20+i*100, 420+j*80, 89+i*100, 469+j*80,10,10,0x3f80);
003a88  f2401ad5          MOV      r10,#0x1d5
003a8c  f44f7bd2          MOV      r11,#0x1a4
003a90  f04f090a          MOV      r9,#0xa               ;6637
                  |L1.14996|
003a94  2400              MOVS     r4,#0                 ;6653
003a96  2114              MOVS     r1,#0x14              ;6637
003a98  eb0500c5          ADD      r0,r5,r5,LSL #3
003a9c  eb001005          ADD      r0,r0,r5,LSL #4
003aa0  2259              MOVS     r2,#0x59
003aa2  eb020680          ADD      r6,r2,r0,LSL #2
003aa6  eb010780          ADD      r7,r1,r0,LSL #2
                  |L1.15018|
003aaa  eb040084          ADD      r0,r4,r4,LSL #2
003aae  eb0a1100          ADD      r1,r10,r0,LSL #4
003ab2  f8cd9000          STR      r9,[sp,#0]
003ab6  b28b              UXTH     r3,r1
003ab8  eb0b1000          ADD      r0,r11,r0,LSL #4
003abc  e9cd9801          STRD     r9,r8,[sp,#4]
003ac0  b281              UXTH     r1,r0
003ac2  b2b2              UXTH     r2,r6
003ac4  b2b8              UXTH     r0,r7
003ac6  f7fffffe          BL       LT768_DrawCircleSquare_Fill
003aca  1c64              ADDS     r4,r4,#1              ;6653
003acc  b2a4              UXTH     r4,r4                 ;6653
003ace  2c02              CMP      r4,#2                 ;6653
003ad0  d3eb              BCC      |L1.15018|
003ad2  1c6d              ADDS     r5,r5,#1              ;6651
003ad4  b2ad              UXTH     r5,r5                 ;6651
003ad6  2d08              CMP      r5,#8                 ;6651
003ad8  d3dc              BCC      |L1.14996|
;;;6656   					 } 
;;;6657   			}
;;;6658   	LT768_Select_Internal_Font_Init(32,1,1,1,0);
003ada  2301              MOVS     r3,#1
003adc  2400              MOVS     r4,#0
003ade  461a              MOV      r2,r3
003ae0  4619              MOV      r1,r3
003ae2  2020              MOVS     r0,#0x20
003ae4  9400              STR      r4,[sp,#0]
003ae6  f7fffffe          BL       LT768_Select_Internal_Font_Init
;;;6659   	LT768_Print_Internal_Font_String( 30,425,Red,Green,"P00");
003aea  a0cf              ADR      r0,|L1.15912|
003aec  f44f65fc          MOV      r5,#0x7e0
003af0  f44f4778          MOV      r7,#0xf800
003af4  f24018a9          MOV      r8,#0x1a9
003af8  9000              STR      r0,[sp,#0]
003afa  462b              MOV      r3,r5
003afc  463a              MOV      r2,r7
003afe  4641              MOV      r1,r8
003b00  201e              MOVS     r0,#0x1e
003b02  f7fffffe          BL       LT768_Print_Internal_Font_String
;;;6660     LT768_Print_Internal_Font_String( 30,505,Red,Green,"P20");
003b06  a0c9              ADR      r0,|L1.15916|
003b08  f24016f9          MOV      r6,#0x1f9
003b0c  9000              STR      r0,[sp,#0]
003b0e  462b              MOV      r3,r5
003b10  463a              MOV      r2,r7
003b12  4631              MOV      r1,r6
003b14  201e              MOVS     r0,#0x1e
003b16  f7fffffe          BL       LT768_Print_Internal_Font_String
;;;6661   	LT768_Print_Internal_Font_String(125,425,Red,Green,"PI00");
003b1a  a0c5              ADR      r0,|L1.15920|
003b1c  9000              STR      r0,[sp,#0]
003b1e  462b              MOV      r3,r5
003b20  463a              MOV      r2,r7
003b22  4641              MOV      r1,r8
003b24  207d              MOVS     r0,#0x7d
003b26  f7fffffe          BL       LT768_Print_Internal_Font_String
;;;6662     LT768_Print_Internal_Font_String(125,505,Red,Green,"PI20");
003b2a  a0c3              ADR      r0,|L1.15928|
003b2c  9000              STR      r0,[sp,#0]
003b2e  462b              MOV      r3,r5
003b30  463a              MOV      r2,r7
003b32  4631              MOV      r1,r6
003b34  207d              MOVS     r0,#0x7d
003b36  f7fffffe          BL       LT768_Print_Internal_Font_String
;;;6663     LT768_Print_Internal_Font_String(230,425,Red,Green,"O21");
003b3a  a0c1              ADR      r0,|L1.15936|
003b3c  9000              STR      r0,[sp,#0]
003b3e  462b              MOV      r3,r5
003b40  463a              MOV      r2,r7
003b42  4641              MOV      r1,r8
003b44  20e6              MOVS     r0,#0xe6
003b46  f7fffffe          BL       LT768_Print_Internal_Font_String
;;;6664     LT768_Print_Internal_Font_String(225,505,Red,Green,"O100");
003b4a  a0be              ADR      r0,|L1.15940|
003b4c  9000              STR      r0,[sp,#0]
003b4e  462b              MOV      r3,r5
003b50  463a              MOV      r2,r7
003b52  4631              MOV      r1,r6
003b54  20e1              MOVS     r0,#0xe1
003b56  f7fffffe          BL       LT768_Print_Internal_Font_String
;;;6665   	LT768_Print_Internal_Font_String(325,425,Red,Green,"V198");
003b5a  a0bc              ADR      r0,|L1.15948|
003b5c  f2401a45          MOV      r10,#0x145
003b60  9000              STR      r0,[sp,#0]
003b62  462b              MOV      r3,r5
003b64  463a              MOV      r2,r7
003b66  4641              MOV      r1,r8
003b68  4650              MOV      r0,r10
003b6a  f7fffffe          BL       LT768_Print_Internal_Font_String
;;;6666     LT768_Print_Internal_Font_String(325,505,Red,Green,"V242");
003b6e  a0b9              ADR      r0,|L1.15956|
003b70  9000              STR      r0,[sp,#0]
003b72  462b              MOV      r3,r5
003b74  463a              MOV      r2,r7
003b76  4631              MOV      r1,r6
003b78  4650              MOV      r0,r10
003b7a  f7fffffe          BL       LT768_Print_Internal_Font_String
;;;6667   	LT768_Print_Internal_Font_String(425,425,Red,Green,"O280");
003b7e  a0b7              ADR      r0,|L1.15964|
003b80  9000              STR      r0,[sp,#0]
003b82  462b              MOV      r3,r5
003b84  463a              MOV      r2,r7
003b86  4641              MOV      r1,r8
003b88  4640              MOV      r0,r8
003b8a  f7fffffe          BL       LT768_Print_Internal_Font_String
;;;6668     LT768_Print_Internal_Font_String(425,505,Red,Green,"O600");
003b8e  a0b5              ADR      r0,|L1.15972|
003b90  9000              STR      r0,[sp,#0]
003b92  462b              MOV      r3,r5
003b94  463a              MOV      r2,r7
003b96  4631              MOV      r1,r6
003b98  4640              MOV      r0,r8
003b9a  f7fffffe          BL       LT768_Print_Internal_Font_String
;;;6669   	LT768_Print_Internal_Font_String(525,425,Red,Green,"A280");
003b9e  a0b3              ADR      r0,|L1.15980|
003ba0  4641              MOV      r1,r8
003ba2  f240280d          MOV      r8,#0x20d
003ba6  9000              STR      r0,[sp,#0]
003ba8  462b              MOV      r3,r5
003baa  463a              MOV      r2,r7
003bac  4640              MOV      r0,r8
003bae  f7fffffe          BL       LT768_Print_Internal_Font_String
;;;6670     LT768_Print_Internal_Font_String(525,505,Red,Green,"A600");
003bb2  a1b0              ADR      r1,|L1.15988|
003bb4  9100              STR      r1,[sp,#0]
003bb6  462b              MOV      r3,r5
003bb8  463a              MOV      r2,r7
003bba  4631              MOV      r1,r6
003bbc  4640              MOV      r0,r8
003bbe  f7fffffe          BL       LT768_Print_Internal_Font_String
;;;6671   	LT768_Select_Internal_Font_Init(24,1,1,1,0);		
003bc2  2301              MOVS     r3,#1
003bc4  461a              MOV      r2,r3
003bc6  4619              MOV      r1,r3
003bc8  2018              MOVS     r0,#0x18
003bca  9400              STR      r4,[sp,#0]
003bcc  f7fffffe          BL       LT768_Select_Internal_Font_Init
;;;6672   	LT768_Print_Internal_Font_String(620,430,Red,Green,"Vt0.3");
003bd0  a0aa              ADR      r0,|L1.15996|
003bd2  f44f78d7          MOV      r8,#0x1ae
003bd6  f44f7a1b          MOV      r10,#0x26c
003bda  9000              STR      r0,[sp,#0]
003bdc  462b              MOV      r3,r5
003bde  463a              MOV      r2,r7
003be0  4641              MOV      r1,r8
003be2  4650              MOV      r0,r10
003be4  f7fffffe          BL       LT768_Print_Internal_Font_String
;;;6673   	LT768_Print_Internal_Font_String(620,510,Red,Green,"ClrWT");			
003be8  a1a6              ADR      r1,|L1.16004|
003bea  9100              STR      r1,[sp,#0]
003bec  462b              MOV      r3,r5
003bee  463a              MOV      r2,r7
003bf0  1d71              ADDS     r1,r6,#5
003bf2  4650              MOV      r0,r10
003bf4  f7fffffe          BL       LT768_Print_Internal_Font_String
;;;6674   	LT768_Print_Internal_Font_String(725,430,Red,Green,"En/Ch");
003bf8  a0a4              ADR      r0,|L1.16012|
003bfa  9000              STR      r0,[sp,#0]
003bfc  462b              MOV      r3,r5
003bfe  463a              MOV      r2,r7
003c00  4641              MOV      r1,r8
003c02  f24020d5          MOV      r0,#0x2d5
003c06  f7fffffe          BL       LT768_Print_Internal_Font_String
;;;6675   	LT768_Select_Internal_Font_Init(24,2,2,1,0);	
003c0a  2202              MOVS     r2,#2
003c0c  2301              MOVS     r3,#1
003c0e  4611              MOV      r1,r2
003c10  2018              MOVS     r0,#0x18
003c12  9400              STR      r4,[sp,#0]
003c14  f7fffffe          BL       LT768_Select_Internal_Font_Init
;;;6676   	LT768_Print_Internal_Font_String(740,505,White,Green,"X");
003c18  a09e              ADR      r0,|L1.16020|
003c1a  9000              STR      r0,[sp,#0]
003c1c  462b              MOV      r3,r5
003c1e  f64f72ff          MOV      r2,#0xffff
003c22  4631              MOV      r1,r6
003c24  f44f7039          MOV      r0,#0x2e4
003c28  f7fffffe          BL       LT768_Print_Internal_Font_String
;;;6677   			
;;;6678   	for (i=0;i<3;i++)
003c2c  2500              MOVS     r5,#0
003c2e  f44f7887          MOV      r8,#0x10e             ;6637
;;;6679   	    {
;;;6680   			 for (j=0;j<2;j++)
;;;6681   				   {
;;;6682   						 LT768_DrawCircleSquare_Fill(530+i*130, 220+j*100,610+i*130, 270+j*100,10,10,0x70f6);
003c32  f2470af6          MOV      r10,#0x70f6
003c36  f04f0bdc          MOV      r11,#0xdc
                  |L1.15418|
003c3a  2400              MOVS     r4,#0                 ;6680
003c3c  f2402162          MOV      r1,#0x262
003c40  eb051085          ADD      r0,r5,r5,LSL #6
003c44  eb010640          ADD      r6,r1,r0,LSL #1
003c48  f2402112          MOV      r1,#0x212
003c4c  eb010740          ADD      r7,r1,r0,LSL #1
                  |L1.15440|
003c50  eb0400c4          ADD      r0,r4,r4,LSL #3
003c54  eb001004          ADD      r0,r0,r4,LSL #4
003c58  eb080180          ADD      r1,r8,r0,LSL #2
003c5c  f8cd9000          STR      r9,[sp,#0]
003c60  b28b              UXTH     r3,r1
003c62  eb0b0080          ADD      r0,r11,r0,LSL #2
003c66  e9cd9a01          STRD     r9,r10,[sp,#4]
003c6a  b281              UXTH     r1,r0
003c6c  b2b2              UXTH     r2,r6
003c6e  b2b8              UXTH     r0,r7
003c70  f7fffffe          BL       LT768_DrawCircleSquare_Fill
003c74  1c64              ADDS     r4,r4,#1              ;6680
003c76  b2a4              UXTH     r4,r4                 ;6680
003c78  2c02              CMP      r4,#2                 ;6680
003c7a  d3e9              BCC      |L1.15440|
003c7c  1c6d              ADDS     r5,r5,#1              ;6678
003c7e  b2ad              UXTH     r5,r5                 ;6678
003c80  2d03              CMP      r5,#3                 ;6678
003c82  d3da              BCC      |L1.15418|
;;;6683   					 } 
;;;6684   			}
;;;6685   	
;;;6686   	LT768_Select_Internal_Font_Init(24,1,1,1,0);
003c84  2301              MOVS     r3,#1
003c86  2400              MOVS     r4,#0
003c88  461a              MOV      r2,r3
003c8a  4619              MOV      r1,r3
003c8c  2018              MOVS     r0,#0x18
003c8e  9400              STR      r4,[sp,#0]
003c90  f7fffffe          BL       LT768_Select_Internal_Font_Init
;;;6687   	LT768_Print_Internal_Font_String(530,10,Green,Green,"Year");
003c94  a080              ADR      r0,|L1.16024|
003c96  f44f65fc          MOV      r5,#0x7e0
003c9a  f2402612          MOV      r6,#0x212
003c9e  9000              STR      r0,[sp,#0]
003ca0  462b              MOV      r3,r5
003ca2  462a              MOV      r2,r5
003ca4  210a              MOVS     r1,#0xa
003ca6  4630              MOV      r0,r6
003ca8  f7fffffe          BL       LT768_Print_Internal_Font_String
;;;6688   	LT768_Print_Internal_Font_String(660,10,Green,Green,"Month");
003cac  a17c              ADR      r1,|L1.16032|
003cae  9100              STR      r1,[sp,#0]
003cb0  462b              MOV      r3,r5
003cb2  462a              MOV      r2,r5
003cb4  210a              MOVS     r1,#0xa
003cb6  f44f7025          MOV      r0,#0x294
003cba  f7fffffe          BL       LT768_Print_Internal_Font_String
;;;6689   	LT768_Print_Internal_Font_String(790,10,Green,Green,"Day");
003cbe  a17a              ADR      r1,|L1.16040|
003cc0  9100              STR      r1,[sp,#0]
003cc2  462b              MOV      r3,r5
003cc4  462a              MOV      r2,r5
003cc6  210a              MOVS     r1,#0xa
003cc8  f2403016          MOV      r0,#0x316
003ccc  f7fffffe          BL       LT768_Print_Internal_Font_String
;;;6690   	LT768_Print_Internal_Font_String(530,70,Green,Green,"Hour");
003cd0  a176              ADR      r1,|L1.16044|
003cd2  9100              STR      r1,[sp,#0]
003cd4  462b              MOV      r3,r5
003cd6  462a              MOV      r2,r5
003cd8  2146              MOVS     r1,#0x46
003cda  4630              MOV      r0,r6
003cdc  f7fffffe          BL       LT768_Print_Internal_Font_String
;;;6691   	LT768_Print_Internal_Font_String(650,70,Green,Green,"Minute");
003ce0  a074              ADR      r0,|L1.16052|
003ce2  9000              STR      r0,[sp,#0]
003ce4  462b              MOV      r3,r5
003ce6  462a              MOV      r2,r5
003ce8  2146              MOVS     r1,#0x46
003cea  f240208a          MOV      r0,#0x28a
003cee  f7fffffe          BL       LT768_Print_Internal_Font_String
;;;6692   	LT768_Print_Internal_Font_String(780,70,Green,Green,"Second");
003cf2  a072              ADR      r0,|L1.16060|
003cf4  f44f7643          MOV      r6,#0x30c
003cf8  9000              STR      r0,[sp,#0]
003cfa  462b              MOV      r3,r5
003cfc  462a              MOV      r2,r5
003cfe  2146              MOVS     r1,#0x46
003d00  4630              MOV      r0,r6
003d02  f7fffffe          BL       LT768_Print_Internal_Font_String
;;;6693   	LT768_Select_Internal_Font_Init(32,1,1,1,0);
003d06  2301              MOVS     r3,#1
003d08  461a              MOV      r2,r3
003d0a  4619              MOV      r1,r3
003d0c  2020              MOVS     r0,#0x20
003d0e  9400              STR      r4,[sp,#0]
003d10  f7fffffe          BL       LT768_Select_Internal_Font_Init
;;;6694   	LT768_Print_Internal_Font_String(550,150,Green,Green,"+");
003d14  a16b              ADR      r1,|L1.16068|
003d16  9100              STR      r1,[sp,#0]
003d18  462b              MOV      r3,r5
003d1a  462a              MOV      r2,r5
003d1c  2196              MOVS     r1,#0x96
003d1e  f2402026          MOV      r0,#0x226
003d22  f7fffffe          BL       LT768_Print_Internal_Font_String
;;;6695   	LT768_Print_Internal_Font_String(680,150,Green,Green,"-");
003d26  a168              ADR      r1,|L1.16072|
003d28  9100              STR      r1,[sp,#0]
003d2a  462b              MOV      r3,r5
003d2c  462a              MOV      r2,r5
003d2e  2196              MOVS     r1,#0x96
003d30  f44f702a          MOV      r0,#0x2a8
003d34  f7fffffe          BL       LT768_Print_Internal_Font_String
;;;6696   	LT768_Print_Internal_Font_String(780,150,Green,Green,"enter");
003d38  a164              ADR      r1,|L1.16076|
003d3a  9100              STR      r1,[sp,#0]
003d3c  462b              MOV      r3,r5
003d3e  462a              MOV      r2,r5
003d40  2196              MOVS     r1,#0x96
003d42  4630              MOV      r0,r6
003d44  f7fffffe          BL       LT768_Print_Internal_Font_String
;;;6697   	
;;;6698   	Canvas_Image_Start_address(layer3_start_addr);
003d48  f44f1016          MOV      r0,#0x258000
003d4c  f7fffffe          BL       Canvas_Image_Start_address
;;;6699   	Canvas_image_width(LCD_XSIZE_TFT);
003d50  f44f6480          MOV      r4,#0x400
003d54  4620              MOV      r0,r4
003d56  f7fffffe          BL       Canvas_image_width
;;;6700     Active_Window_XY(0,0);
003d5a  2100              MOVS     r1,#0
003d5c  4608              MOV      r0,r1
003d5e  f7fffffe          BL       Active_Window_XY
;;;6701   	Active_Window_WH(LCD_XSIZE_TFT,LCD_YSIZE_TFT);			
003d62  f44f7116          MOV      r1,#0x258
003d66  4620              MOV      r0,r4
003d68  f7fffffe          BL       Active_Window_WH
;;;6702   	LT768_DrawSquare_Fill(0,0,LCD_XSIZE_TFT-1,LCD_YSIZE_TFT-1,Blue3);
003d6c  f2421008          MOV      r0,#0x2108
003d70  2100              MOVS     r1,#0
003d72  9000              STR      r0,[sp,#0]
003d74  f2402357          MOV      r3,#0x257
003d78  1e62              SUBS     r2,r4,#1
003d7a  4608              MOV      r0,r1
003d7c  f7fffffe          BL       LT768_DrawSquare_Fill
;;;6703   	
;;;6704   	for (yn=dateRecord0_y; yn<301; yn+=35)
003d80  2414              MOVS     r4,#0x14
;;;6705   	{
;;;6706   		Lines(dateRecord0_x,yn,dateRecord0_x+484,yn,White);  
003d82  10af              ASRS     r7,r5,#2
003d84  f44f7696          MOV      r6,#0x12c             ;6704
003d88  f64f75ff          MOV      r5,#0xffff            ;6647
                  |L1.15756|
003d8c  4623              MOV      r3,r4
003d8e  463a              MOV      r2,r7
003d90  4621              MOV      r1,r4
003d92  2014              MOVS     r0,#0x14
003d94  9500              STR      r5,[sp,#0]
003d96  f7fffffe          BL       Lines
003d9a  3423              ADDS     r4,r4,#0x23           ;6704
003d9c  b2a4              UXTH     r4,r4                 ;6704
003d9e  42b4              CMP      r4,r6                 ;6704
003da0  d9f4              BLS      |L1.15756|
;;;6707   	}
;;;6708       Lines( dateRecord0_x,dateRecord0_y, dateRecord0_x,dateRecord0_y+280,White);
003da2  2214              MOVS     r2,#0x14
003da4  f64f74ff          MOV      r4,#0xffff
003da8  4633              MOV      r3,r6
003daa  4611              MOV      r1,r2
003dac  4610              MOV      r0,r2
003dae  9400              STR      r4,[sp,#0]
003db0  f7fffffe          BL       Lines
;;;6709       Lines( dateRecord0_x+40,dateRecord0_y, dateRecord0_x+40,dateRecord0_y+280,White); 
003db4  223c              MOVS     r2,#0x3c
003db6  4633              MOV      r3,r6
003db8  2114              MOVS     r1,#0x14
003dba  4610              MOV      r0,r2
003dbc  9400              STR      r4,[sp,#0]
003dbe  f7fffffe          BL       Lines
;;;6710       Lines( dateRecord0_x+160,dateRecord0_y, dateRecord0_x+160,dateRecord0_y+280,White);
003dc2  22b4              MOVS     r2,#0xb4
003dc4  4633              MOV      r3,r6
003dc6  2114              MOVS     r1,#0x14
003dc8  4610              MOV      r0,r2
003dca  9400              STR      r4,[sp,#0]
003dcc  f7fffffe          BL       Lines
;;;6711       Lines( dateRecord0_x+484,dateRecord0_y, dateRecord0_x+484,dateRecord0_y+280,White);
003dd0  4638              MOV      r0,r7
003dd2  4633              MOV      r3,r6
003dd4  4602              MOV      r2,r0
003dd6  2114              MOVS     r1,#0x14
003dd8  9400              STR      r4,[sp,#0]
003dda  f7fffffe          BL       Lines
;;;6712   	
;;;6713   	LT768_DrawSquare_Fill(600,0,1020,320,Blue2);
003dde  f240501f          MOV      r0,#0x51f
003de2  9000              STR      r0,[sp,#0]
003de4  f44f73a0          MOV      r3,#0x140
003de8  f44f727f          MOV      r2,#0x3fc
003dec  2100              MOVS     r1,#0
003dee  f44f7016          MOV      r0,#0x258
003df2  f7fffffe          BL       LT768_DrawSquare_Fill
;;;6714   	for (i=0;i<3;i++)
003df6  2500              MOVS     r5,#0
003df8  f44f7a1b          MOV      r10,#0x26c            ;6672
;;;6715   	    {
;;;6716   			 for (j=0;j<4;j++)
;;;6717   				   {
;;;6718   						 LT768_DrawCircleSquare_Fill( xs+j*100+600, ys+70+i*80,xs+670+j*100, ys+120+i*80,10,10,0x07f6);
003dfc  f2402bb2          MOV      r11,#0x2b2
003e00  f24078f6          MOV      r8,#0x7f6
                  |L1.15876|
003e04  2400              MOVS     r4,#0                 ;6716
003e06  e065              B        |L1.16084|
                  |L1.15880|
003e08  20486867          DCB      " Hhgh ",0
003e0c  682000  
003e0f  00                DCB      0
                  |L1.15888|
003e10  204c6f77          DCB      " Low ",0
003e14  2000    
003e16  00                DCB      0
003e17  00                DCB      0
                  |L1.15896|
003e18  20717569          DCB      " quit ",0
003e1c  742000  
003e1f  00                DCB      0
                  |L1.15904|
003e20  502f666c          DCB      "P/flow",0
003e24  6f7700  
003e27  00                DCB      0
                  |L1.15912|
003e28  50303000          DCB      "P00",0
                  |L1.15916|
003e2c  50323000          DCB      "P20",0
                  |L1.15920|
003e30  50493030          DCB      "PI00",0
003e34  00      
003e35  00                DCB      0
003e36  00                DCB      0
003e37  00                DCB      0
                  |L1.15928|
003e38  50493230          DCB      "PI20",0
003e3c  00      
003e3d  00                DCB      0
003e3e  00                DCB      0
003e3f  00                DCB      0
                  |L1.15936|
003e40  4f323100          DCB      "O21",0
                  |L1.15940|
003e44  4f313030          DCB      "O100",0
003e48  00      
003e49  00                DCB      0
003e4a  00                DCB      0
003e4b  00                DCB      0
                  |L1.15948|
003e4c  56313938          DCB      "V198",0
003e50  00      
003e51  00                DCB      0
003e52  00                DCB      0
003e53  00                DCB      0
                  |L1.15956|
003e54  56323432          DCB      "V242",0
003e58  00      
003e59  00                DCB      0
003e5a  00                DCB      0
003e5b  00                DCB      0
                  |L1.15964|
003e5c  4f323830          DCB      "O280",0
003e60  00      
003e61  00                DCB      0
003e62  00                DCB      0
003e63  00                DCB      0
                  |L1.15972|
003e64  4f363030          DCB      "O600",0
003e68  00      
003e69  00                DCB      0
003e6a  00                DCB      0
003e6b  00                DCB      0
                  |L1.15980|
003e6c  41323830          DCB      "A280",0
003e70  00      
003e71  00                DCB      0
003e72  00                DCB      0
003e73  00                DCB      0
                  |L1.15988|
003e74  41363030          DCB      "A600",0
003e78  00      
003e79  00                DCB      0
003e7a  00                DCB      0
003e7b  00                DCB      0
                  |L1.15996|
003e7c  5674302e          DCB      "Vt0."
                  |L1.16000|
003e80  3300              DCB      "3",0
003e82  00                DCB      0
003e83  00                DCB      0
                  |L1.16004|
003e84  436c7257          DCB      "ClrWT",0
003e88  5400    
003e8a  00                DCB      0
003e8b  00                DCB      0
                  |L1.16012|
003e8c  456e2f43          DCB      "En/Ch",0
003e90  6800    
003e92  00                DCB      0
003e93  00                DCB      0
                  |L1.16020|
003e94  5800              DCB      "X",0
003e96  00                DCB      0
003e97  00                DCB      0
                  |L1.16024|
003e98  59656172          DCB      "Year",0
003e9c  00      
003e9d  00                DCB      0
003e9e  00                DCB      0
003e9f  00                DCB      0
                  |L1.16032|
003ea0  4d6f6e74          DCB      "Month",0
003ea4  6800    
003ea6  00                DCB      0
003ea7  00                DCB      0
                  |L1.16040|
003ea8  44617900          DCB      "Day",0
                  |L1.16044|
003eac  486f7572          DCB      "Hour",0
003eb0  00      
003eb1  00                DCB      0
003eb2  00                DCB      0
003eb3  00                DCB      0
                  |L1.16052|
003eb4  4d696e75          DCB      "Minute",0
003eb8  746500  
003ebb  00                DCB      0
                  |L1.16060|
003ebc  5365636f          DCB      "Second",0
003ec0  6e6400  
003ec3  00                DCB      0
                  |L1.16068|
003ec4  2b00              DCB      "+",0
003ec6  00                DCB      0
003ec7  00                DCB      0
                  |L1.16072|
003ec8  2d00              DCB      "-",0
003eca  00                DCB      0
003ecb  00                DCB      0
                  |L1.16076|
003ecc  656e7465          DCB      "enter",0
003ed0  7200    
003ed2  00                DCB      0
003ed3  00                DCB      0
                  |L1.16084|
003ed4  218c              MOVS     r1,#0x8c              ;6643
003ed6  eb050085          ADD      r0,r5,r5,LSL #2
003eda  eb011600          ADD      r6,r1,r0,LSL #4
003ede  215a              MOVS     r1,#0x5a
003ee0  eb011700          ADD      r7,r1,r0,LSL #4
                  |L1.16100|
003ee4  eb0400c4          ADD      r0,r4,r4,LSL #3
003ee8  eb001004          ADD      r0,r0,r4,LSL #4
003eec  eb0b0180          ADD      r1,r11,r0,LSL #2
003ef0  f8cd9000          STR      r9,[sp,#0]
003ef4  e9cd9801          STRD     r9,r8,[sp,#4]
003ef8  b28a              UXTH     r2,r1
003efa  eb0a0080          ADD      r0,r10,r0,LSL #2
003efe  b2b3              UXTH     r3,r6
003f00  b2b9              UXTH     r1,r7
003f02  b280              UXTH     r0,r0
003f04  f7fffffe          BL       LT768_DrawCircleSquare_Fill
003f08  1c64              ADDS     r4,r4,#1              ;6716
003f0a  b2a4              UXTH     r4,r4                 ;6716
003f0c  2c04              CMP      r4,#4                 ;6716
003f0e  d3e9              BCC      |L1.16100|
003f10  1c6d              ADDS     r5,r5,#1              ;6714
003f12  b2ad              UXTH     r5,r5                 ;6714
003f14  2d03              CMP      r5,#3                 ;6714
003f16  f4ffaf75          BCC      |L1.15876|
;;;6719   					 } 
;;;6720   			}
;;;6721   	LT768_Select_Internal_Font_Init(24,2,2,1,0);
003f1a  2400              MOVS     r4,#0
003f1c  2202              MOVS     r2,#2
003f1e  2301              MOVS     r3,#1
003f20  4611              MOV      r1,r2
003f22  2018              MOVS     r0,#0x18
003f24  9400              STR      r4,[sp,#0]
003f26  f7fffffe          BL       LT768_Select_Internal_Font_Init
;;;6722   	LT768_Print_Internal_Font_String(xs+630,ys,Red,Green,"X");		
003f2a  f2af0098          ADR      r0,|L1.16020|
003f2e  f44f65fc          MOV      r5,#0x7e0
003f32  f44f4678          MOV      r6,#0xf800
003f36  f240278a          MOV      r7,#0x28a
003f3a  9000              STR      r0,[sp,#0]
003f3c  462b              MOV      r3,r5
003f3e  4632              MOV      r2,r6
003f40  2114              MOVS     r1,#0x14
003f42  4638              MOV      r0,r7
003f44  f7fffffe          BL       LT768_Print_Internal_Font_String
;;;6723   	LT768_DrawCircleSquare_Fill( xs+820,ys,xs+940,ys+50,10,10,0x0806);		
003f48  f6400006          MOV      r0,#0x806
003f4c  f8cd9000          STR      r9,[sp,#0]
003f50  e9cd9001          STRD     r9,r0,[sp,#4]
003f54  2346              MOVS     r3,#0x46
003f56  f44f7270          MOV      r2,#0x3c0
003f5a  2114              MOVS     r1,#0x14
003f5c  f44f7052          MOV      r0,#0x348
003f60  f7fffffe          BL       LT768_DrawCircleSquare_Fill
;;;6724   	LT768_Select_Internal_Font_Init(32,1,1,1,0);  		
003f64  2301              MOVS     r3,#1
003f66  461a              MOV      r2,r3
003f68  4619              MOV      r1,r3
003f6a  2020              MOVS     r0,#0x20
003f6c  9400              STR      r4,[sp,#0]
003f6e  f7fffffe          BL       LT768_Select_Internal_Font_Init
;;;6725     LT768_Print_Internal_Font_String(xs+630,ys+80,Red,Green,"1");
003f72  a0c6              ADR      r0,|L1.17036|
003f74  9000              STR      r0,[sp,#0]
003f76  462b              MOV      r3,r5
003f78  4632              MOV      r2,r6
003f7a  2164              MOVS     r1,#0x64
003f7c  4638              MOV      r0,r7
003f7e  f7fffffe          BL       LT768_Print_Internal_Font_String
;;;6726   	LT768_Print_Internal_Font_String(xs+630+100,ys+80,Red,Green,"2");
003f82  a0c3              ADR      r0,|L1.17040|
003f84  f2402aee          MOV      r10,#0x2ee
003f88  9000              STR      r0,[sp,#0]
003f8a  462b              MOV      r3,r5
003f8c  4632              MOV      r2,r6
003f8e  2164              MOVS     r1,#0x64
003f90  4650              MOV      r0,r10
003f92  f7fffffe          BL       LT768_Print_Internal_Font_String
;;;6727     LT768_Print_Internal_Font_String(xs+630+100*2,ys+80,Red,Green,"3");	
003f96  f2af1018          ADR      r0,|L1.16000|
003f9a  9000              STR      r0,[sp,#0]
003f9c  462b              MOV      r3,r5
003f9e  4632              MOV      r2,r6
003fa0  2164              MOVS     r1,#0x64
003fa2  f2403052          MOV      r0,#0x352
003fa6  f7fffffe          BL       LT768_Print_Internal_Font_String
;;;6728   	LT768_Print_Internal_Font_String(xs+630,ys+80+80,Red,Green,"4");
003faa  a0ba              ADR      r0,|L1.17044|
003fac  9000              STR      r0,[sp,#0]
003fae  462b              MOV      r3,r5
003fb0  4632              MOV      r2,r6
003fb2  21b4              MOVS     r1,#0xb4
003fb4  4638              MOV      r0,r7
003fb6  f7fffffe          BL       LT768_Print_Internal_Font_String
;;;6729   	LT768_Print_Internal_Font_String(xs+630+100,ys+80+80,Red,Green,"5");
003fba  a0b7              ADR      r0,|L1.17048|
003fbc  9000              STR      r0,[sp,#0]
003fbe  462b              MOV      r3,r5
003fc0  4632              MOV      r2,r6
003fc2  21b4              MOVS     r1,#0xb4
003fc4  4650              MOV      r0,r10
003fc6  f7fffffe          BL       LT768_Print_Internal_Font_String
;;;6730     LT768_Print_Internal_Font_String(xs+630+100*2,ys+80+80,Red,Green,"6");
003fca  a0b4              ADR      r0,|L1.17052|
003fcc  9000              STR      r0,[sp,#0]
003fce  462b              MOV      r3,r5
003fd0  4632              MOV      r2,r6
003fd2  21b4              MOVS     r1,#0xb4
003fd4  f2403052          MOV      r0,#0x352
003fd8  f7fffffe          BL       LT768_Print_Internal_Font_String
;;;6731   	LT768_Print_Internal_Font_String(xs+630,ys+80+80*2,Red,Green,"7");
003fdc  a0b0              ADR      r0,|L1.17056|
003fde  f44f7b82          MOV      r11,#0x104
003fe2  9000              STR      r0,[sp,#0]
003fe4  462b              MOV      r3,r5
003fe6  4632              MOV      r2,r6
003fe8  4659              MOV      r1,r11
003fea  4638              MOV      r0,r7
003fec  f7fffffe          BL       LT768_Print_Internal_Font_String
;;;6732   	LT768_Print_Internal_Font_String(xs+630+100,ys+80+80*2,Red,Green,"8");
003ff0  a0ac              ADR      r0,|L1.17060|
003ff2  9000              STR      r0,[sp,#0]
003ff4  462b              MOV      r3,r5
003ff6  4632              MOV      r2,r6
003ff8  4659              MOV      r1,r11
003ffa  4650              MOV      r0,r10
003ffc  f7fffffe          BL       LT768_Print_Internal_Font_String
;;;6733     LT768_Print_Internal_Font_String(xs+630+100*2,ys+80+80*2,Red,Green,"9");
004000  a0a9              ADR      r0,|L1.17064|
004002  9000              STR      r0,[sp,#0]
004004  462b              MOV      r3,r5
004006  4632              MOV      r2,r6
004008  4659              MOV      r1,r11
00400a  f2403052          MOV      r0,#0x352
00400e  f7fffffe          BL       LT768_Print_Internal_Font_String
;;;6734   	LT768_Print_Internal_Font_String(xs+630+100*3,ys+80+80*2,Red,Green,"0");
004012  a0a6              ADR      r0,|L1.17068|
004014  9000              STR      r0,[sp,#0]
004016  462b              MOV      r3,r5
004018  4632              MOV      r2,r6
00401a  4659              MOV      r1,r11
00401c  f24030b6          MOV      r0,#0x3b6
004020  f7fffffe          BL       LT768_Print_Internal_Font_String
;;;6735   	LT768_Select_Internal_Font_Init(24,1,1,1,0);
004024  2301              MOVS     r3,#1
004026  461a              MOV      r2,r3
004028  4619              MOV      r1,r3
00402a  2018              MOVS     r0,#0x18
00402c  9400              STR      r4,[sp,#0]
00402e  f7fffffe          BL       LT768_Select_Internal_Font_Init
;;;6736   	LT768_Print_Internal_Font_String(xs+605+100*3,ys+80+80,Red,Green,"Enter");
004032  a09f              ADR      r0,|L1.17072|
004034  f240349d          MOV      r4,#0x39d
004038  9000              STR      r0,[sp,#0]
00403a  462b              MOV      r3,r5
00403c  4632              MOV      r2,r6
00403e  21b4              MOVS     r1,#0xb4
004040  4620              MOV      r0,r4
004042  f7fffffe          BL       LT768_Print_Internal_Font_String
;;;6737   	LT768_Print_Internal_Font_String(xs+605+100*3,ys+75,Red,Green,"Back");
004046  a19c              ADR      r1,|L1.17080|
004048  9100              STR      r1,[sp,#0]
00404a  462b              MOV      r3,r5
00404c  4632              MOV      r2,r6
00404e  215f              MOVS     r1,#0x5f
004050  4620              MOV      r0,r4
004052  f7fffffe          BL       LT768_Print_Internal_Font_String
;;;6738   	LT768_Print_Internal_Font_String(xs+605+100*3,ys+95,Red,Green,"space");
004056  a19a              ADR      r1,|L1.17088|
004058  9100              STR      r1,[sp,#0]
00405a  462b              MOV      r3,r5
00405c  4632              MOV      r2,r6
00405e  2173              MOVS     r1,#0x73
004060  4620              MOV      r0,r4
004062  f7fffffe          BL       LT768_Print_Internal_Font_String
;;;6739   			
;;;6740   	for (i=0;i<2;i++)
004066  2500              MOVS     r5,#0
004068  f04f0b96          MOV      r11,#0x96             ;6694
00406c  f04f0a32          MOV      r10,#0x32             ;6647
                  |L1.16496|
;;;6741   	    {
;;;6742   			 for (j=0;j<5;j++)
004070  2400              MOVS     r4,#0
004072  eb0500c5          ADD      r0,r5,r5,LSL #3       ;6655
004076  f44f71dc          MOV      r1,#0x1b8             ;6640
00407a  eb001005          ADD      r0,r0,r5,LSL #4       ;6655
;;;6743   				   {
;;;6744   						 LT768_DrawCircleSquare_Fill(50+j*150,380+i*100,150+j*150, 440+i*100,10,10,0x07f6);
00407e  eb010680          ADD      r6,r1,r0,LSL #2
004082  f44f71be          MOV      r1,#0x17c
004086  eb010780          ADD      r7,r1,r0,LSL #2
                  |L1.16522|
00408a  ebc41004          RSB      r0,r4,r4,LSL #4
00408e  eb000080          ADD      r0,r0,r0,LSL #2
004092  eb0b0140          ADD      r1,r11,r0,LSL #1
004096  f8cd9000          STR      r9,[sp,#0]
00409a  e9cd9801          STRD     r9,r8,[sp,#4]
00409e  b28a              UXTH     r2,r1
0040a0  eb0a0040          ADD      r0,r10,r0,LSL #1
0040a4  b2b3              UXTH     r3,r6
0040a6  b2b9              UXTH     r1,r7
0040a8  b280              UXTH     r0,r0
0040aa  f7fffffe          BL       LT768_DrawCircleSquare_Fill
0040ae  1c64              ADDS     r4,r4,#1              ;6742
0040b0  b2a4              UXTH     r4,r4                 ;6742
0040b2  2c05              CMP      r4,#5                 ;6742
0040b4  d3e9              BCC      |L1.16522|
0040b6  1c6d              ADDS     r5,r5,#1              ;6740
0040b8  b2ad              UXTH     r5,r5                 ;6740
0040ba  2d02              CMP      r5,#2                 ;6740
0040bc  d3d8              BCC      |L1.16496|
;;;6745   					 } 
;;;6746   			}	
;;;6747   			
;;;6748   	Canvas_Image_Start_address(layer4_start_addr);
0040be  f44f1061          MOV      r0,#0x384000
0040c2  f7fffffe          BL       Canvas_Image_Start_address
;;;6749   	Canvas_image_width(LCD_XSIZE_TFT);
0040c6  f44f6980          MOV      r9,#0x400
0040ca  4648              MOV      r0,r9
0040cc  f7fffffe          BL       Canvas_image_width
;;;6750     Active_Window_XY(0,0);
0040d0  2100              MOVS     r1,#0
0040d2  4608              MOV      r0,r1
0040d4  f7fffffe          BL       Active_Window_XY
;;;6751   	Active_Window_WH(LCD_XSIZE_TFT,LCD_YSIZE_TFT);			
0040d8  f44f7116          MOV      r1,#0x258
0040dc  4648              MOV      r0,r9
0040de  f7fffffe          BL       Active_Window_WH
;;;6752   	LT768_DrawSquare_Fill(0,0,1023,599,Blue3);
0040e2  f2421008          MOV      r0,#0x2108
0040e6  2100              MOVS     r1,#0
0040e8  9000              STR      r0,[sp,#0]
0040ea  f2402357          MOV      r3,#0x257
0040ee  f24032ff          MOV      r2,#0x3ff
0040f2  4608              MOV      r0,r1
0040f4  f7fffffe          BL       LT768_DrawSquare_Fill
;;;6753     Lines(OrgXset,OrgYset,OrgXset+500,OrgYset,White);  //H		
0040f8  f240243a          MOV      r4,#0x23a
0040fc  f64f76ff          MOV      r6,#0xffff
004100  4623              MOV      r3,r4
004102  f2402276          MOV      r2,#0x276
004106  4621              MOV      r1,r4
004108  2082              MOVS     r0,#0x82
00410a  9600              STR      r6,[sp,#0]
00410c  f7fffffe          BL       Lines
;;;6754     Lines(OrgXset,OrgYset-500,OrgXset,OrgYset,White);  //V
004110  2282              MOVS     r2,#0x82
004112  4623              MOV      r3,r4
004114  2146              MOVS     r1,#0x46
004116  4610              MOV      r0,r2
004118  9600              STR      r6,[sp,#0]
00411a  f7fffffe          BL       Lines
;;;6755   	for(i=0;i<=500; i+=25)
00411e  2400              MOVS     r4,#0
;;;6756       {
;;;6757        Point(OrgXset+i,OrgYset+1,White);
004120  f240273b          MOV      r7,#0x23b
;;;6758        Point(OrgXset+i,OrgYset+2,White);
004124  f44f780f          MOV      r8,#0x23c
004128  f44f7bfa          MOV      r11,#0x1f4            ;6755
                  |L1.16684|
00412c  f1040582          ADD      r5,r4,#0x82           ;6757
004130  b2a8              UXTH     r0,r5                 ;6757
004132  4632              MOV      r2,r6                 ;6757
004134  4639              MOV      r1,r7                 ;6757
004136  f7fffffe          BL       Point
00413a  b2a8              UXTH     r0,r5
00413c  4632              MOV      r2,r6
00413e  4641              MOV      r1,r8
004140  f7fffffe          BL       Point
;;;6759        if (i%50==0)	Point(OrgXset+i,OrgYset+3,White);		
004144  fbb4f0fa          UDIV     r0,r4,r10
004148  fb0a4010          MLS      r0,r10,r0,r4
00414c  b928              CBNZ     r0,|L1.16730|
00414e  b2a8              UXTH     r0,r5
004150  4632              MOV      r2,r6
004152  f240213d          MOV      r1,#0x23d
004156  f7fffffe          BL       Point
                  |L1.16730|
00415a  3419              ADDS     r4,r4,#0x19           ;6755
00415c  b2a4              UXTH     r4,r4                 ;6755
00415e  455c              CMP      r4,r11                ;6755
004160  d9e4              BLS      |L1.16684|
;;;6760       }	
;;;6761   	for(i=0;i<=500; i+=25)
004162  2400              MOVS     r4,#0
                  |L1.16740|
;;;6762       {
;;;6763        Point(OrgXset-1,OrgYset-500+i,White);
004164  f1040046          ADD      r0,r4,#0x46
004168  4605              MOV      r5,r0
00416a  b281              UXTH     r1,r0
00416c  4632              MOV      r2,r6
00416e  2081              MOVS     r0,#0x81
004170  f7fffffe          BL       Point
;;;6764        Point(OrgXset-2,OrgYset-500+i,White);	
004174  b2a9              UXTH     r1,r5
004176  4632              MOV      r2,r6
004178  2080              MOVS     r0,#0x80
00417a  f7fffffe          BL       Point
00417e  3419              ADDS     r4,r4,#0x19           ;6761
004180  b2a4              UXTH     r4,r4                 ;6761
004182  455c              CMP      r4,r11                ;6761
004184  d9ee              BLS      |L1.16740|
;;;6765       }
;;;6766   		
;;;6767   	Canvas_Image_Start_address(layer5_start_addr);
004186  f44f0096          MOV      r0,#0x4b0000
00418a  f7fffffe          BL       Canvas_Image_Start_address
;;;6768   	Canvas_image_width(LCD_XSIZE_TFT);
00418e  4648              MOV      r0,r9
004190  f7fffffe          BL       Canvas_image_width
;;;6769     Active_Window_XY(0,0);
004194  2100              MOVS     r1,#0
004196  4608              MOV      r0,r1
004198  f7fffffe          BL       Active_Window_XY
;;;6770   	Active_Window_WH(LCD_XSIZE_TFT,LCD_YSIZE_TFT);			
00419c  f44f7116          MOV      r1,#0x258
0041a0  4648              MOV      r0,r9
0041a2  f7fffffe          BL       Active_Window_WH
;;;6771   	LT768_DrawSquare_Fill(0,0,1023,599,Blue3);
0041a6  f2421008          MOV      r0,#0x2108
0041aa  2100              MOVS     r1,#0
0041ac  9000              STR      r0,[sp,#0]
0041ae  f2402357          MOV      r3,#0x257
0041b2  f24032ff          MOV      r2,#0x3ff
0041b6  4608              MOV      r0,r1
0041b8  f7fffffe          BL       LT768_DrawSquare_Fill
;;;6772     Lines(OrgXset,OrgYset,OrgXset+500,OrgYset,White);  //H		
0041bc  f240243a          MOV      r4,#0x23a
0041c0  4623              MOV      r3,r4
0041c2  f2402276          MOV      r2,#0x276
0041c6  4621              MOV      r1,r4
0041c8  2082              MOVS     r0,#0x82
0041ca  9600              STR      r6,[sp,#0]
0041cc  f7fffffe          BL       Lines
;;;6773     Lines(OrgXset,OrgYset-500,OrgXset,OrgYset,White);  //V
0041d0  2282              MOVS     r2,#0x82
0041d2  4623              MOV      r3,r4
0041d4  2146              MOVS     r1,#0x46
0041d6  4610              MOV      r0,r2
0041d8  9600              STR      r6,[sp,#0]
0041da  f7fffffe          BL       Lines
;;;6774   	for(i=0;i<=500; i+=25)
0041de  2400              MOVS     r4,#0
0041e0  f240273d          MOV      r7,#0x23d             ;6759
                  |L1.16868|
;;;6775       {
;;;6776        Point(OrgXset+i,OrgYset+1,White);
0041e4  f1040582          ADD      r5,r4,#0x82
0041e8  b2a8              UXTH     r0,r5
0041ea  4632              MOV      r2,r6
0041ec  f240213b          MOV      r1,#0x23b
0041f0  f7fffffe          BL       Point
;;;6777        Point(OrgXset+i,OrgYset+2,White);
0041f4  b2a8              UXTH     r0,r5
0041f6  4632              MOV      r2,r6
0041f8  4641              MOV      r1,r8
0041fa  f7fffffe          BL       Point
;;;6778        if (i%50==0)	Point(OrgXset+i,OrgYset+3,White);		
0041fe  fbb4f0fa          UDIV     r0,r4,r10
004202  fb0a4010          MLS      r0,r10,r0,r4
004206  b920              CBNZ     r0,|L1.16914|
004208  b2a8              UXTH     r0,r5
00420a  4632              MOV      r2,r6
00420c  4639              MOV      r1,r7
00420e  f7fffffe          BL       Point
                  |L1.16914|
004212  3419              ADDS     r4,r4,#0x19           ;6774
004214  b2a4              UXTH     r4,r4                 ;6774
004216  455c              CMP      r4,r11                ;6774
004218  d9e4              BLS      |L1.16868|
;;;6779       }	
;;;6780   	for(i=0;i<=500; i+=25)
00421a  2400              MOVS     r4,#0
                  |L1.16924|
;;;6781       {
;;;6782        Point(OrgXset-1,OrgYset-500+i,White);
00421c  f1040046          ADD      r0,r4,#0x46
004220  4605              MOV      r5,r0
004222  b281              UXTH     r1,r0
004224  4632              MOV      r2,r6
004226  2081              MOVS     r0,#0x81
004228  f7fffffe          BL       Point
;;;6783        Point(OrgXset-2,OrgYset-500+i,White);	
00422c  b2a9              UXTH     r1,r5
00422e  4632              MOV      r2,r6
004230  2080              MOVS     r0,#0x80
004232  f7fffffe          BL       Point
004236  3419              ADDS     r4,r4,#0x19           ;6780
004238  b2a4              UXTH     r4,r4                 ;6780
00423a  455c              CMP      r4,r11                ;6780
00423c  d9ee              BLS      |L1.16924|
;;;6784       }
;;;6785   			
;;;6786     Canvas_Image_Start_address(layer1_start_addr);
00423e  2000              MOVS     r0,#0
004240  f7fffffe          BL       Canvas_Image_Start_address
;;;6787   
;;;6788   	Main_Image_Start_Address(layer1_start_addr);				
004244  2000              MOVS     r0,#0
004246  f7fffffe          BL       Main_Image_Start_Address
;;;6789   	Main_Image_Width(LCD_XSIZE_TFT);
00424a  4648              MOV      r0,r9
00424c  f7fffffe          BL       Main_Image_Width
;;;6790   	Main_Window_Start_XY(0,0);
004250  2100              MOVS     r1,#0
004252  4608              MOV      r0,r1
004254  f7fffffe          BL       Main_Window_Start_XY
;;;6791   	Canvas_Image_Start_address(layer1_start_addr);
004258  2000              MOVS     r0,#0
00425a  f7fffffe          BL       Canvas_Image_Start_address
;;;6792   	Canvas_image_width(LCD_XSIZE_TFT);
00425e  4648              MOV      r0,r9
004260  f7fffffe          BL       Canvas_image_width
;;;6793     Active_Window_XY(0,0);
004264  2100              MOVS     r1,#0
004266  4608              MOV      r0,r1
004268  f7fffffe          BL       Active_Window_XY
;;;6794   	Active_Window_WH(LCD_XSIZE_TFT,LCD_YSIZE_TFT);			
00426c  f44f7116          MOV      r1,#0x258
004270  4648              MOV      r0,r9
004272  f7fffffe          BL       Active_Window_WH
;;;6795   	LT768_DrawSquare_Fill(0,0,LCD_XSIZE_TFT-1,LCD_YSIZE_TFT-1,0);
004276  2000              MOVS     r0,#0
004278  f2402357          MOV      r3,#0x257
00427c  f24032ff          MOV      r2,#0x3ff
004280  4601              MOV      r1,r0
004282  9000              STR      r0,[sp,#0]
004284  f7fffffe          BL       LT768_DrawSquare_Fill
;;;6796   }
004288  e8bd8ffe          POP      {r1-r11,pc}
                          ENDP

                  |L1.17036|
00428c  3100              DCB      "1",0
00428e  00                DCB      0
00428f  00                DCB      0
                  |L1.17040|
004290  3200              DCB      "2",0
004292  00                DCB      0
004293  00                DCB      0
                  |L1.17044|
004294  3400              DCB      "4",0
004296  00                DCB      0
004297  00                DCB      0
                  |L1.17048|
004298  3500              DCB      "5",0
00429a  00                DCB      0
00429b  00                DCB      0
                  |L1.17052|
00429c  3600              DCB      "6",0
00429e  00                DCB      0
00429f  00                DCB      0
                  |L1.17056|
0042a0  3700              DCB      "7",0
0042a2  00                DCB      0
0042a3  00                DCB      0
                  |L1.17060|
0042a4  3800              DCB      "8",0
0042a6  00                DCB      0
0042a7  00                DCB      0
                  |L1.17064|
0042a8  3900              DCB      "9",0
0042aa  00                DCB      0
0042ab  00                DCB      0
                  |L1.17068|
0042ac  3000              DCB      "0",0
0042ae  00                DCB      0
0042af  00                DCB      0
                  |L1.17072|
0042b0  456e7465          DCB      "Enter",0
0042b4  7200    
0042b6  00                DCB      0
0042b7  00                DCB      0
                  |L1.17080|
0042b8  4261636b          DCB      "Back",0
0042bc  00      
0042bd  00                DCB      0
0042be  00                DCB      0
0042bf  00                DCB      0
                  |L1.17088|
0042c0  73706163          DCB      "space",0
0042c4  6500    
0042c6  00                DCB      0
0042c7  00                DCB      0

                          AREA ||.constdata||, DATA, READONLY, ALIGN=2

                  ||xs||
                          DCD      0x00000014

                          AREA ||area_number.5||, DATA, READONLY, ALIGN=2

                          EXPORTAS ||area_number.5||, ||.constdata||
                  ||ys||
                          DCD      0x00000014

                          AREA ||area_number.6||, DATA, READONLY, ALIGN=1

                          EXPORTAS ||area_number.6||, ||.constdata||
                  dateRecord0_x
000000  0014              DCW      0x0014

                          AREA ||area_number.7||, DATA, READONLY, ALIGN=1

                          EXPORTAS ||area_number.7||, ||.constdata||
                  dateRecord0_y
000000  0014              DCW      0x0014

                          AREA ||area_number.8||, DATA, READONLY, ALIGN=1

                          EXPORTAS ||area_number.8||, ||.constdata||
                  OrgXset
000000  0082              DCW      0x0082

                          AREA ||area_number.9||, DATA, READONLY, ALIGN=1

                          EXPORTAS ||area_number.9||, ||.constdata||
                  OrgYset
000000  023a              DCW      0x023a

                          AREA ||.data||, DATA, ALIGN=0

                  CCLK
000000  00                DCB      0x00
                  MCLK
000001  00                DCB      0x00
                  SCLK
000002  00                DCB      0x00

;*** Start embedded assembler ***

#line 1 "..\\LCD0.c"
	AREA ||.rev16_text||, CODE
	THUMB
	EXPORT |__asm___6_LCD0_c_9f326dac____REV16|
#line 464 "..\\M463_Library\\CMSIS\\Include\\cmsis_armcc.h"
|__asm___6_LCD0_c_9f326dac____REV16| PROC
#line 465

 rev16 r0, r0
 bx lr
	ENDP
	AREA ||.revsh_text||, CODE
	THUMB
	EXPORT |__asm___6_LCD0_c_9f326dac____REVSH|
#line 479
|__asm___6_LCD0_c_9f326dac____REVSH| PROC
#line 480

 revsh r0, r0
 bx lr
	ENDP
	AREA ||.rrx_text||, CODE
	THUMB
	EXPORT |__asm___6_LCD0_c_9f326dac____RRX|
#line 666
|__asm___6_LCD0_c_9f326dac____RRX| PROC
#line 667

 rrx r0, r0
 bx lr
	ENDP

;*** End   embedded assembler ***
